

Microchip MPLAB XC8 Assembler V2.36 build 20220127204148 
                                                                                               Mon Jun 02 15:02:34 2025

Microchip MPLAB XC8 C Compiler v2.36 (Free license) build 20220127204148 Og1 
     1                           	processor	18F47K42
     2                           	fnconf	rparam,??,?,0
     3                           	pagewidth 120
     4                           	opt	flic
     5                           	psect	idataCOMRAM,global,class=CODE,delta=1,noexec
     6                           	psect	idataBANK0,global,class=CODE,delta=1,noexec
     7                           	psect	idataBANK1,global,class=CODE,delta=1,noexec
     8                           	psect	smallconst,global,reloc=2,class=SMALLCONST,delta=1,noexec
     9                           	psect	nvCOMRAM,global,class=COMRAM,space=1,delta=1,lowdata,noexec
    10                           	psect	nvBANK0,global,class=BANK0,space=1,delta=1,lowdata,noexec
    11                           	psect	nvBANK1,global,class=BANK1,space=1,delta=1,lowdata,noexec
    12                           	psect	cinit,global,reloc=2,class=CODE,delta=1
    13                           	psect	bssCOMRAM,global,class=COMRAM,space=1,delta=1,lowdata,noexec
    14                           	psect	dataCOMRAM,global,class=COMRAM,space=1,delta=1,lowdata,noexec
    15                           	psect	bssBANK0,global,class=BANK0,space=1,delta=1,lowdata,noexec
    16                           	psect	dataBANK0,global,class=BANK0,space=1,delta=1,lowdata,noexec
    17                           	psect	bssBANK1,global,class=BANK1,space=1,delta=1,lowdata,noexec
    18                           	psect	dataBANK1,global,class=BANK1,space=1,delta=1,lowdata,noexec
    19                           	psect	cstackBANK0,global,class=BANK0,space=1,delta=1,lowdata,noexec
    20                           	psect	cstackCOMRAM,global,class=COMRAM,space=1,delta=1,lowdata,noexec
    21                           	psect	text0,global,reloc=2,class=CODE,delta=1
    22                           	psect	text1,global,reloc=2,class=CODE,delta=1
    23                           	psect	text2,global,reloc=2,class=CODE,delta=1
    24                           	psect	text3,global,reloc=2,class=CODE,delta=1,group=1
    25                           	psect	text4,global,reloc=2,class=CODE,delta=1,group=1
    26                           	psect	text5,global,reloc=2,class=CODE,delta=1,group=1
    27                           	psect	text6,global,reloc=2,class=CODE,delta=1
    28                           	psect	text7,global,reloc=2,class=CODE,delta=1
    29                           	psect	text8,global,reloc=2,class=CODE,delta=1
    30                           	psect	text9,global,reloc=2,class=CODE,delta=1
    31                           	psect	text10,global,reloc=2,class=CODE,delta=1
    32                           	psect	text11,global,reloc=2,class=CODE,delta=1
    33                           	psect	text12,global,reloc=2,class=CODE,delta=1
    34                           	psect	text13,global,reloc=2,class=CODE,delta=1
    35                           	psect	text14,global,reloc=2,class=CODE,delta=1
    36                           	psect	text15,global,reloc=2,class=CODE,delta=1
    37                           	psect	text16,global,reloc=2,class=CODE,delta=1
    38                           	psect	text17,global,reloc=2,class=CODE,delta=1
    39                           	psect	text18,global,reloc=2,class=CODE,delta=1
    40                           	psect	text19,global,reloc=2,class=CODE,delta=1
    41                           	psect	text20,global,reloc=2,class=CODE,delta=1
    42                           	psect	text21,global,reloc=2,class=CODE,delta=1
    43                           	psect	text22,global,reloc=2,class=CODE,delta=1
    44                           	psect	text23,global,reloc=2,class=CODE,delta=1
    45                           	psect	text24,global,reloc=2,class=CODE,delta=1
    46                           	psect	text25,global,reloc=2,class=CODE,delta=1
    47                           	psect	text26,global,reloc=2,class=CODE,delta=1
    48                           	psect	text27,global,reloc=2,class=CODE,delta=1
    49                           	psect	text28,global,reloc=2,class=CODE,delta=1
    50                           	psect	text29,global,reloc=2,class=CODE,delta=1
    51                           	psect	text30,global,reloc=2,class=CODE,delta=1
    52                           	psect	text31,global,reloc=2,class=CODE,delta=1
    53                           	psect	text32,global,reloc=2,class=CODE,delta=1
    54                           	psect	text33,global,reloc=2,class=CODE,delta=1
    55                           	psect	text34,global,reloc=2,class=CODE,delta=1
    56                           	psect	text35,global,reloc=2,class=CODE,delta=1
    57                           	psect	text36,global,reloc=2,class=CODE,delta=1
    58                           	psect	text37,global,reloc=2,class=CODE,delta=1
    59                           	psect	text38,global,reloc=2,class=CODE,delta=1
    60                           	psect	text39,global,reloc=2,class=CODE,delta=1
    61                           	psect	text40,global,reloc=2,class=CODE,delta=1
    62                           	psect	text41,global,reloc=2,class=CODE,delta=1
    63                           	psect	text42,global,reloc=2,class=CODE,delta=1,group=1
    64                           	psect	text43,global,reloc=2,class=CODE,delta=1
    65                           	psect	text44,global,reloc=2,class=CODE,delta=1
    66                           	psect	text45,global,reloc=2,class=CODE,delta=1
    67                           	psect	text46,global,reloc=2,class=CODE,delta=1
    68                           	psect	text47,global,reloc=2,class=CODE,delta=1
    69                           	psect	text48,global,reloc=2,class=CODE,delta=1
    70                           	psect	text49,global,reloc=2,class=CODE,delta=1
    71                           	psect	text50,global,reloc=2,class=CODE,delta=1
    72                           	psect	text51,global,reloc=2,class=CODE,delta=1
    73                           	psect	text52,global,reloc=2,class=CODE,delta=1
    74                           	psect	text53,global,reloc=2,class=CODE,delta=1
    75                           	psect	text54,global,reloc=2,class=CODE,delta=1
    76                           	psect	text55,global,reloc=2,class=CODE,delta=1
    77                           	psect	text56,global,reloc=2,class=CODE,delta=1
    78                           	psect	text57,global,reloc=2,class=CODE,delta=1
    79                           	psect	text58,global,reloc=2,class=CODE,delta=1
    80                           	psect	text59,global,reloc=2,class=CODE,delta=1
    81                           	psect	text60,global,reloc=2,class=CODE,delta=1
    82                           	psect	text61,global,reloc=2,class=CODE,delta=1,group=1
    83                           	psect	text62,global,reloc=2,class=CODE,delta=1
    84                           	psect	text63,global,reloc=2,class=CODE,delta=1
    85                           	psect	text64,global,reloc=2,class=CODE,delta=1
    86                           	psect	text65,global,reloc=2,class=CODE,delta=1
    87                           	psect	text66,global,reloc=2,class=CODE,delta=1
    88                           	psect	text67,global,reloc=2,class=CODE,delta=1
    89                           	psect	ivt0x8,global,reloc=2,class=CODE,delta=1,noexec,keep,optim=
    90                           	psect	intsave_regs,global,class=BIGRAM,space=1,delta=1,noexec
    91                           	psect	text68,global,reloc=2,class=CODE,delta=1
    92                           	psect	rparam,global,class=COMRAM,space=1,delta=1,noexec
    93                           	psect	config,global,abs,ovrld,class=CONFIG,space=4,delta=1,noexec
    94  0000                     
    95                           ; Generated 21/07/2023 GMT
    96                           ; 
    97                           ; Copyright © 2023, Microchip Technology Inc. and its subsidiaries ("Microchip")
    98                           ; All rights reserved.
    99                           ; 
   100                           ; This software is developed by Microchip Technology Inc. and its subsidiaries ("Microch
      +                          ip").
   101                           ; 
   102                           ; Redistribution and use in source and binary forms, with or without modification, are
   103                           ; permitted provided that the following conditions are met:
   104                           ; 
   105                           ;     1. Redistributions of source code must retain the above copyright notice, this lis
      +                          t of
   106                           ;        conditions and the following disclaimer.
   107                           ; 
   108                           ;     2. Redistributions in binary form must reproduce the above copyright notice, this 
      +                          list
   109                           ;        of conditions and the following disclaimer in the documentation and/or other
   110                           ;        materials provided with the distribution. Publication is not required when
   111                           ;        this file is used in an embedded application.
   112                           ; 
   113                           ;     3. Microchip's name may not be used to endorse or promote products derived from th
      +                          is
   114                           ;        software without specific prior written permission.
   115                           ; 
   116                           ; THIS SOFTWARE IS PROVIDED BY MICROCHIP "AS IS" AND ANY EXPRESS OR IMPLIED WARRANTIES,
   117                           ; INCLUDING, BUT NOT LIMITED TO, THE IMPLIED WARRANTIES OF MERCHANTABILITY AND FITNESS F
      +                          OR
   118                           ; PURPOSE ARE DISCLAIMED.  IN NO EVENT SHALL MICROCHIP BE LIABLE FOR ANY DIRECT, INDIREC
      +                          T,
   119                           ; INCIDENTAL, SPECIAL, EXEMPLARY, OR CONSEQUENTIAL DAMAGES (INCLUDING BUT NOT LIMITED TO
   120                           ; PROCUREMENT OF SUBSTITUTE GOODS OR SERVICES; LOSS OF USE, DATA OR PROFITS; OR BUSINESS
   121                           ; INTERRUPTION) HOWSOEVER CAUSED AND ON ANY THEORY OF LIABILITY, WHETHER IN CONTRACT, ST
      +                          RICT
   122                           ; LIABILITY, OR TORT (INCLUDING NEGLIGENCE OR OTHERWISE) ARISING IN ANY WAY OUT OF THE U
      +                          SE OF
   123                           ; THIS SOFTWARE, EVEN IF ADVISED OF THE POSSIBILITY OF SUCH DAMAGE.
   124                           ; 
   125                           ; 
   126                           ; Code-generator required, PIC18F47K42 Definitions
   127                           ; 
   128                           ; SFR Addresses
   129  0000                     
   130 ;; Function _IOCBF0_DefaultInterruptHandler is unused but had its address taken
   131  0000                     
   132 ;; Function _TMR4_DefaultInterruptHandler is unused but had its address taken
   133  0000                     
   134 ;; Function _TMR6_DefaultInterruptHandler is unused but had its address taken
   135  0000                     
   136 ;; Function _UART1_Transmit_ISR is unused but had its address taken
   137  0000                     
   138 ;; Function _UART1_Receive_ISR is unused but had its address taken
   139  0000                     
   140 ;; Function _UART1_DefaultErrorHandler is unused but had its address taken
   141  0000                     
   142 ;; Function _TMR1_DefaultInterruptHandler is unused but had its address taken
   143  0000                     
   144 ;; Function _TMR5_DefaultInterruptHandler is unused but had its address taken
   145  0000                     
   146                           	psect	idataCOMRAM
   147  004D2E                     __pidataCOMRAM:
   148                           	callstack 0
   149                           
   150                           ;initializer for _dir
   151  004D2E  FFFF               	dw	65535
   152                           
   153                           ;initializer for _contConm
   154  004D30  FFFF               	dw	65535
   155                           
   156                           ;initializer for _enviado
   157  004D32  01                 	db	1
   158                           
   159                           	psect	idataBANK0
   160  004D38                     __pidataBANK0:
   161                           	callstack 0
   162                           
   163                           ;initializer for _porcent
   164  004D38  000A               	dw	10
   165                           
   166                           	psect	idataBANK1
   167  004C0E                     __pidataBANK1:
   168                           	callstack 0
   169                           
   170                           ;initializer for _conversion
   171  004C0E  30                 	db	48
   172  004C0F  31                 	db	49
   173  004C10  32                 	db	50
   174  004C11  33                 	db	51
   175  004C12  34                 	db	52
   176  004C13  35                 	db	53
   177  004C14  36                 	db	54
   178  004C15  37                 	db	55
   179  004C16  38                 	db	56
   180  004C17  39                 	db	57
   181  004C18  41                 	db	65
   182  004C19  42                 	db	66
   183  004C1A  43                 	db	67
   184  004C1B  44                 	db	68
   185  004C1C  45                 	db	69
   186  004C1D  46                 	db	70
   187                           
   188                           	psect	smallconst
   189  002000                     __psmallconst:
   190                           	callstack 0
   191  002000  00                 	db	0
   192  002001                     _spi1_configuration:
   193                           	callstack 0
   194  002001  02                 	db	2
   195  002002  40                 	db	64
   196  002003  00                 	db	0
   197  002004  00                 	db	0
   198  002005  00                 	db	0
   199  002006                     __end_of_spi1_configuration:
   200                           	callstack 0
   201  002006                     _umbral_estabilidad:
   202                           	callstack 0
   203  002006  05                 	db	5
   204  002007                     __end_of_umbral_estabilidad:
   205                           	callstack 0
   206  0000                     _PIE1bits	set	14737
   207  0000                     _PIE2bits	set	14738
   208  0000                     _TMR5L	set	16280
   209  0000                     _TMR5H	set	16281
   210  0000                     _T5CLK	set	16285
   211  0000                     _T5GATE	set	16284
   212  0000                     _T5GCON	set	16283
   213  0000                     _T6RST	set	16279
   214  0000                     _T6HLT	set	16277
   215  0000                     _T6CLKCON	set	16278
   216  0000                     _TMR1L	set	16304
   217  0000                     _TMR1H	set	16305
   218  0000                     _T1CONbits	set	16306
   219  0000                     _PIR3bits	set	14755
   220  0000                     _PIE3bits	set	14739
   221  0000                     _CWG3CON0	set	16196
   222  0000                     _CWG3ISM	set	16193
   223  0000                     _CWG3STR	set	16200
   224  0000                     _CWG3AS1	set	16199
   225  0000                     _CWG3AS0	set	16198
   226  0000                     _CWG3DBF	set	16195
   227  0000                     _CWG2CON0	set	16205
   228  0000                     _CWG2ISM	set	16202
   229  0000                     _CWG2STR	set	16209
   230  0000                     _CWG2AS1	set	16208
   231  0000                     _CWG2AS0	set	16207
   232  0000                     _CWG2DBF	set	16204
   233  0000                     _CWG1CON0	set	16214
   234  0000                     _CWG1ISM	set	16211
   235  0000                     _CWG1DBF	set	16213
   236  0000                     _T4CON	set	16288
   237  0000                     _PIE7bits	set	14743
   238  0000                     _ADERRL	set	16098
   239  0000                     _ADERRH	set	16099
   240  0000                     _ADPREVL	set	16109
   241  0000                     _ADPREVH	set	16110
   242  0000                     _ADFLTRL	set	16102
   243  0000                     _ADFLTRH	set	16103
   244  0000                     _ADACCL	set	16104
   245  0000                     _ADACCH	set	16105
   246  0000                     _ADCNT	set	16107
   247  0000                     _ADRESL	set	16111
   248  0000                     _ADRESH	set	16112
   249  0000                     _ADCON0	set	16120
   250  0000                     _ADCON1	set	16121
   251  0000                     _ADPREH	set	16119
   252  0000                     _ADPREL	set	16118
   253  0000                     _ADCAP	set	16117
   254  0000                     _ADACQH	set	16116
   255  0000                     _ADPCH	set	16113
   256  0000                     _ADRPT	set	16108
   257  0000                     _ADACCU	set	16106
   258  0000                     _ADSTPTH	set	16101
   259  0000                     _ADSTPTL	set	16100
   260  0000                     _ADUTHH	set	16097
   261  0000                     _ADUTHL	set	16096
   262  0000                     _ADLTHH	set	16095
   263  0000                     _T2CON	set	16300
   264  0000                     _PIR4bits	set	14756
   265  0000                     _T2RST	set	16303
   266  0000                     _PMD0	set	14784
   267  0000                     _OSCTUNE	set	14814
   268  0000                     _OSCFRQ	set	14815
   269  0000                     _OSCCON1	set	14809
   270  0000                     _RB2PPS	set	14858
   271  0000                     _RC3PPS	set	14867
   272  0000                     _IOCBPbits	set	14933
   273  0000                     _IOCBNbits	set	14934
   274  0000                     _IOCBFbits	set	14935
   275  0000                     _INLVLB	set	14932
   276  0000                     _SLRCONB	set	14931
   277  0000                     _ODCONB	set	14930
   278  0000                     _RB1I2C	set	14938
   279  0000                     _WPUB	set	14929
   280  0000                     _TRISD	set	16325
   281  0000                     _TRISC	set	16324
   282  0000                     _TRISB	set	16323
   283  0000                     _LATC	set	16316
   284  0000                     _LATB	set	16315
   285  002007  00                 	db	0	; dummy byte at the end
   286  0000                     
   287                           	psect	nvCOMRAM
   288  00005B                     __pnvCOMRAM:
   289                           	callstack 0
   290  00005B                     _duty:
   291                           	callstack 0
   292  00005B                     	ds	2
   293  00005D                     _prevHallB:
   294                           	callstack 0
   295  00005D                     	ds	1
   296                           
   297                           	psect	nvBANK0
   298  0000DD                     __pnvBANK0:
   299                           	callstack 0
   300  0000DD                     _TMR5_InterruptHandler:
   301                           	callstack 0
   302  0000DD                     	ds	3
   303  0000E0                     _TMR1_InterruptHandler:
   304                           	callstack 0
   305  0000E0                     	ds	3
   306  0000E3                     _UART1_OverrunErrorHandler:
   307                           	callstack 0
   308  0000E3                     	ds	3
   309  0000E6                     _UART1_FramingErrorHandler:
   310                           	callstack 0
   311  0000E6                     	ds	3
   312  0000E9                     _TMR6_InterruptHandler:
   313                           	callstack 0
   314  0000E9                     	ds	3
   315  0000EC                     _TMR4_InterruptHandler:
   316                           	callstack 0
   317  0000EC                     	ds	3
   318  0000EF                     _IOCBF0_InterruptHandler:
   319                           	callstack 0
   320  0000EF                     	ds	3
   321  0000F2                     _digito_ptr:
   322                           	callstack 0
   323  0000F2                     	ds	2
   324  0000F4                     _cont:
   325                           	callstack 0
   326  0000F4                     	ds	2
   327  0000F6                     _timer5ReloadVal:
   328                           	callstack 0
   329  0000F6                     	ds	2
   330  0000F8                     _timer1ReloadVal:
   331                           	callstack 0
   332  0000F8                     	ds	2
   333  0000FA                     _prevHallA:
   334                           	callstack 0
   335  0000FA                     	ds	1
   336  0000FB                     _uart1TxBufferRemaining:
   337                           	callstack 0
   338  0000FB                     	ds	1
   339                           
   340                           	psect	nvBANK1
   341  000144                     __pnvBANK1:
   342                           	callstack 0
   343  000144                     _UART1_ErrorHandler:
   344                           	callstack 0
   345  000144                     	ds	3
   346  000147                     _UART1_TxInterruptHandler:
   347                           	callstack 0
   348  000147                     	ds	3
   349  00014A                     _UART1_RxInterruptHandler:
   350                           	callstack 0
   351  00014A                     	ds	3
   352  00014D                     _prevdir:
   353                           	callstack 0
   354  00014D                     	ds	2
   355  00014F                     _prevHallC:
   356                           	callstack 0
   357  00014F                     	ds	1
   358  0000                     _SPI1CON2bits	set	15638
   359  0000                     _SPI1CON1bits	set	15637
   360  0000                     _U1ERRIRbits	set	15865
   361  0000                     _SPI1CON0bits	set	15636
   362  0000                     _ADREFbits	set	16125
   363  0000                     _ADCON1bits	set	16121
   364  0000                     _ADSTATbits	set	16124
   365  0000                     _ADCON2bits	set	16122
   366  0000                     _ADCON3bits	set	16123
   367  0000                     _ADCON0bits	set	16120
   368  0000                     _CWG3STRbits	set	16200
   369  0000                     _CWG2STRbits	set	16209
   370  0000                     _CWG1STRbits	set	16218
   371  0000                     _LATCbits	set	16316
   372  0000                     _TRISCbits	set	16324
   373  0000                     _LATEbits	set	16318
   374  0000                     _LATAbits	set	16314
   375  0000                     _T5GCONbits	set	16283
   376  0000                     _T5CON	set	16282
   377  0000                     _T1GCONbits	set	16307
   378  0000                     _T1CON	set	16306
   379  0000                     _PR6	set	16275
   380  0000                     _TMR6	set	16274
   381  0000                     _T6RSTbits	set	16279
   382  0000                     _T6HLTbits	set	16277
   383  0000                     _T6CON	set	16276
   384  0000                     _TRISBbits	set	16323
   385  0000                     _PR4	set	16287
   386  0000                     _TMR4	set	16286
   387  0000                     _T4CONbits	set	16288
   388  0000                     _T4RSTbits	set	16291
   389  0000                     _T4HLTbits	set	16289
   390  0000                     _PR2	set	16299
   391  0000                     _TMR2	set	16298
   392  0000                     _T2CONbits	set	16300
   393  0000                     _T2RSTbits	set	16303
   394  0000                     _T2HLTbits	set	16301
   395  0000                     _PIE0bits	set	14736
   396  0000                     _ANSELA	set	14912
   397  0000                     _ANSELB	set	14928
   398  0000                     _ANSELC	set	14944
   399  0000                     _ANSELD	set	14960
   400  0000                     _LATA	set	16314
   401  0000                     _LATD	set	16317
   402  0000                     _LATE	set	16318
   403  0000                     _TRISA	set	16322
   404  0000                     _TRISE	set	16326
   405  0000                     _PORTBbits	set	16331
   406  0000                     _PORTDbits	set	16333
   407  0000                     _INTCON0bits	set	16338
   408  0000                     _INLVLD	set	14964
   409  0000                     _SLRCOND	set	14963
   410  0000                     _ODCOND	set	14962
   411  0000                     _RD0I2C	set	14970
   412  0000                     _WPUD	set	14961
   413  0000                     _ANSELE	set	14976
   414  0000                     _INLVLC	set	14948
   415  0000                     _SLRCONC	set	14947
   416  0000                     _ODCONC	set	14946
   417  0000                     _RC3I2C	set	14954
   418  0000                     _WPUC	set	14945
   419  0000                     _SPI1SCKPPS	set	15070
   420  0000                     _INLVLE	set	14980
   421  0000                     _SLRCONE	set	14979
   422  0000                     _ODCONE	set	14978
   423  0000                     _WPUE	set	14977
   424  0000                     _INLVLA	set	14916
   425  0000                     _SLRCONA	set	14915
   426  0000                     _ODCONA	set	14914
   427  0000                     _WPUA	set	14913
   428  0000                     _RB2I2C	set	14939
   429  0000                     _RC4I2C	set	14955
   430  0000                     _RD1I2C	set	14971
   431  0000                     _SPI1SDIPPS	set	15071
   432  0000                     _U1RXPPS	set	15077
   433  0000                     _RC5PPS	set	14869
   434  0000                     _RD0PPS	set	14872
   435  0000                     _RE0PPS	set	14880
   436  0000                     _RC4PPS	set	14868
   437  0000                     _RB3PPS	set	14859
   438  0000                     _RB5PPS	set	14861
   439  0000                     _RD1PPS	set	14873
   440  0000                     _SPI1RXB	set	15632
   441  0000                     _SPI1TXB	set	15633
   442  0000                     _SPI1TCNTL	set	15634
   443  0000                     _SPI1CON0	set	15636
   444  0000                     _ADLTHL	set	16094
   445  0000                     _T2TMR	set	16298
   446  0000                     _T2PR	set	16299
   447  0000                     _T2HLT	set	16301
   448  0000                     _T2CLKCON	set	16302
   449  0000                     _OSCCON3	set	14811
   450  0000                     _OSCEN	set	14813
   451  0000                     _PMD7	set	14791
   452  0000                     _PMD6	set	14790
   453  0000                     _PMD5	set	14789
   454  0000                     _PMD4	set	14788
   455  0000                     _PMD3	set	14787
   456  0000                     _PMD2	set	14786
   457  0000                     _PMD1	set	14785
   458  0000                     _PIR7bits	set	14759
   459  0000                     _ADACQL	set	16115
   460  0000                     _CWG3CLKCON	set	16192
   461  0000                     _CWG3DBR	set	16194
   462  0000                     _CWG3CON1	set	16197
   463  0000                     _CWG2CLKCON	set	16201
   464  0000                     _CWG2DBR	set	16203
   465  0000                     _CWG2CON1	set	16206
   466  0000                     _CWG1CLKCON	set	16210
   467  0000                     _CWG1DBR	set	16212
   468  0000                     _CWG1CON1	set	16215
   469  0000                     _CCPTMRS1bits	set	16223
   470  0000                     _PWM6DCL	set	16232
   471  0000                     _PWM6DCH	set	16233
   472  0000                     _PWM6CON	set	16234
   473  0000                     _ADCLK	set	16127
   474  0000                     _ADACT	set	16126
   475  0000                     _ADREF	set	16125
   476  0000                     _ADSTAT	set	16124
   477  0000                     _ADCON3	set	16123
   478  0000                     _ADCON2	set	16122
   479  0000                     _T6TMR	set	16274
   480  0000                     _T6PR	set	16275
   481  0000                     _T6CONbits	set	16276
   482  0000                     _T5CONbits	set	16282
   483  0000                     _T4TMR	set	16286
   484  0000                     _T4PR	set	16287
   485  0000                     _T4HLT	set	16289
   486  0000                     _T4CLKCON	set	16290
   487  0000                     _T4RST	set	16291
   488  0000                     _PIR9bits	set	14761
   489  0000                     _PIR8bits	set	14760
   490  0000                     _PIR0bits	set	14752
   491  0000                     _PIE9bits	set	14745
   492  0000                     _PIE8bits	set	14744
   493  0000                     _PIR2bits	set	14754
   494  0000                     _CWG1STR	set	16218
   495  0000                     _CWG1AS1	set	16217
   496  0000                     _CWG1AS0	set	16216
   497  0000                     _SPI1STATUSbits	set	15639
   498  0000                     _SPI1BAUD	set	15641
   499  0000                     _SPI1CLK	set	15644
   500  0000                     _SPI1CON2	set	15638
   501  0000                     _SPI1CON1	set	15637
   502  0000                     _U1RXB	set	15848
   503  0000                     _U1P1L	set	15852
   504  0000                     _PIE4bits	set	14740
   505  0000                     _T1CLK	set	16309
   506  0000                     _T1GATE	set	16308
   507  0000                     _T1GCON	set	16307
   508  0000                     _FVRCONbits	set	16065
   509  0000                     _U1ERRIE	set	15866
   510  0000                     _U1ERRIR	set	15865
   511  0000                     _U1UIR	set	15864
   512  0000                     _U1FIFO	set	15863
   513  0000                     _U1BRGH	set	15862
   514  0000                     _U1BRGL	set	15861
   515  0000                     _U1CON2	set	15860
   516  0000                     _U1CON1	set	15859
   517  0000                     _U1CON0	set	15858
   518  0000                     _U1P3H	set	15857
   519  0000                     _U1P3L	set	15856
   520  0000                     _U1P2H	set	15855
   521  0000                     _U1P2L	set	15854
   522  0000                     _U1P1H	set	15853
   523  0000                     _U1TXB	set	15850
   524                           
   525                           ; #config settings
   526                           
   527                           	psect	cinit
   528  004694                     __pcinit:
   529                           	callstack 0
   530  004694                     start_initialization:
   531                           	callstack 0
   532  004694                     __initialization:
   533                           	callstack 0
   534                           
   535                           ; Initialize objects allocated to BANK1 (16 bytes)
   536                           ; load TBLPTR registers with __pidataBANK1
   537  004694  0E0E               	movlw	low __pidataBANK1
   538  004696  6EF6               	movwf	tblptrl,c
   539  004698  0E4C               	movlw	high __pidataBANK1
   540  00469A  6EF7               	movwf	tblptrh,c
   541  00469C  0E00               	movlw	low (__pidataBANK1 shr (0+16))
   542  00469E  6EF8               	movwf	tblptru,c
   543  0046A0  EE00  F134         	lfsr	0,__pdataBANK1
   544  0046A4  EE10 F010          	lfsr	1,16
   545  0046A8                     copy_data0:
   546  0046A8  0009               	tblrd		*+
   547  0046AA  006F FFD7 FFEE     	movff	tablat,postinc0
   548  0046B0  50E5               	movf	postdec1,w,c
   549  0046B2  50E1               	movf	fsr1l,w,c
   550  0046B4  E1F9               	bnz	copy_data0
   551                           
   552                           ; Initialize objects allocated to BANK0 (2 bytes)
   553                           ; load TBLPTR registers with __pidataBANK0
   554  0046B6  0E38               	movlw	low __pidataBANK0
   555  0046B8  6EF6               	movwf	tblptrl,c
   556  0046BA  0E4D               	movlw	high __pidataBANK0
   557  0046BC  6EF7               	movwf	tblptrh,c
   558  0046BE  0E00               	movlw	low (__pidataBANK0 shr (0+16))
   559  0046C0  6EF8               	movwf	tblptru,c
   560  0046C2  0009               	tblrd		*+	;fetch initializer
   561  0046C4  006F FFD4  F0FC    	movff	tablat,__pdataBANK0
   562  0046CA  0009               	tblrd		*+	;fetch initializer
   563  0046CC  006F FFD4  F0FD    	movff	tablat,__pdataBANK0+1
   564                           
   565                           ; Initialize objects allocated to COMRAM (5 bytes)
   566                           ; load TBLPTR registers with __pidataCOMRAM
   567  0046D2  0E2E               	movlw	low __pidataCOMRAM
   568  0046D4  6EF6               	movwf	tblptrl,c
   569  0046D6  0E4D               	movlw	high __pidataCOMRAM
   570  0046D8  6EF7               	movwf	tblptrh,c
   571  0046DA  0E00               	movlw	low (__pidataCOMRAM shr (0+16))
   572  0046DC  6EF8               	movwf	tblptru,c
   573  0046DE  EE00  F056         	lfsr	0,__pdataCOMRAM
   574  0046E2  EE10 F005          	lfsr	1,5
   575  0046E6                     copy_data1:
   576  0046E6  0009               	tblrd		*+
   577  0046E8  006F FFD7 FFEE     	movff	tablat,postinc0
   578  0046EE  50E5               	movf	postdec1,w,c
   579  0046F0  50E1               	movf	fsr1l,w,c
   580  0046F2  E1F9               	bnz	copy_data1
   581                           
   582                           ; Clear objects allocated to BANK1 (52 bytes)
   583  0046F4  EE00  F100         	lfsr	0,__pbssBANK1
   584  0046F8  0E34               	movlw	52
   585  0046FA                     clear_0:
   586  0046FA  6AEE               	clrf	postinc0,c
   587  0046FC  06E8               	decf	wreg,f,c
   588  0046FE  E1FD               	bnz	clear_0
   589                           
   590                           ; Clear objects allocated to BANK0 (72 bytes)
   591  004700  EE00  F060         	lfsr	0,__pbssBANK0
   592  004704  0E48               	movlw	72
   593  004706                     clear_1:
   594  004706  6AEE               	clrf	postinc0,c
   595  004708  06E8               	decf	wreg,f,c
   596  00470A  E1FD               	bnz	clear_1
   597                           
   598                           ; Clear objects allocated to COMRAM (27 bytes)
   599  00470C  EE00  F03B         	lfsr	0,__pbssCOMRAM
   600  004710  0E1B               	movlw	27
   601  004712                     clear_2:
   602  004712  6AEE               	clrf	postinc0,c
   603  004714  06E8               	decf	wreg,f,c
   604  004716  E1FD               	bnz	clear_2
   605                           
   606                           ;
   607                           ; Setup IVTBASE
   608                           ;
   609  004718  0E08               	movlw	(ivt0x8_base shr 0)& (0+255)
   610  00471A  6ED5               	movwf	213,c
   611  00471C  0E00               	movlw	(ivt0x8_base shr (0+8))& (0+255)
   612  00471E  6ED6               	movwf	214,c
   613  004720  0E00               	movlw	(ivt0x8_base shr (0+16))& (0+255)
   614  004722  6ED7               	movwf	215,c
   615  004724                     end_of_initialization:
   616                           	callstack 0
   617  004724                     __end_of__initialization:
   618                           	callstack 0
   619  004724  0100               	movlb	0
   620  004726  EFEC  F019         	goto	_main	;jump to C main() function
   621                           
   622                           	psect	bssCOMRAM
   623  00003B                     __pbssCOMRAM:
   624                           	callstack 0
   625  00003B                     _i2:
   626                           	callstack 0
   627  00003B                     	ds	2
   628  00003D                     _dir_previo:
   629                           	callstack 0
   630  00003D                     	ds	2
   631  00003F                     _estadoPrevio:
   632                           	callstack 0
   633  00003F                     	ds	2
   634  000041                     _estado:
   635                           	callstack 0
   636  000041                     	ds	2
   637  000043                     _leidos_ptr:
   638                           	callstack 0
   639  000043                     	ds	2
   640  000045                     _acelerando:
   641                           	callstack 0
   642  000045                     	ds	1
   643  000046                     _lowByte:
   644                           	callstack 0
   645  000046                     	ds	1
   646  000047                     _highByte:
   647                           	callstack 0
   648  000047                     	ds	1
   649  000048                     _contador_estabilidad:
   650                           	callstack 0
   651  000048                     	ds	1
   652  000049                     _RC6_Previo:
   653                           	callstack 0
   654  000049                     	ds	1
   655  00004A                     _tiempoC_80:
   656                           	callstack 0
   657  00004A                     	ds	1
   658  00004B                     _empezoTimer:
   659                           	callstack 0
   660  00004B                     	ds	1
   661  00004C                     _canal_eleccion:
   662                           	callstack 0
   663  00004C                     	ds	1
   664  00004D                     _uart1RxCount:
   665                           	callstack 0
   666  00004D                     	ds	1
   667  00004E                     _uart1RxTail:
   668                           	callstack 0
   669  00004E                     	ds	1
   670  00004F                     _uart1RxHead:
   671                           	callstack 0
   672  00004F                     	ds	1
   673  000050                     _dato:
   674                           	callstack 0
   675  000050                     	ds	1
   676  000051                     _measuring:
   677                           	callstack 0
   678  000051                     	ds	1
   679  000052                     _timer6:
   680                           	callstack 0
   681  000052                     	ds	1
   682  000053                     _index:
   683                           	callstack 0
   684  000053                     	ds	1
   685  000054                     _rps:
   686                           	callstack 0
   687  000054                     	ds	2
   688                           
   689                           	psect	dataCOMRAM
   690  000056                     __pdataCOMRAM:
   691                           	callstack 0
   692  000056                     _dir:
   693                           	callstack 0
   694  000056                     	ds	2
   695  000058                     _contConm:
   696                           	callstack 0
   697  000058                     	ds	2
   698  00005A                     _enviado:
   699                           	callstack 0
   700  00005A                     	ds	1
   701                           
   702                           	psect	bssBANK0
   703  000060                     __pbssBANK0:
   704                           	callstack 0
   705  000060                     _uart1RxStatusBuffer:
   706                           	callstack 0
   707  000060                     	ds	8
   708  000068                     _uart1RxBuffer:
   709                           	callstack 0
   710  000068                     	ds	8
   711  000070                     _send_data:
   712                           	callstack 0
   713  000070                     	ds	8
   714  000078                     _sumatoriaCorriente:
   715                           	callstack 0
   716  000078                     	ds	4
   717  00007C                     _pulse_count:
   718                           	callstack 0
   719  00007C                     	ds	4
   720  000080                     _leidos:
   721                           	callstack 0
   722  000080                     	ds	4
   723  000084                     _UART1_RxCompleteInterruptHandler:
   724                           	callstack 0
   725  000084                     	ds	3
   726  000087                     _lowByte_16:
   727                           	callstack 0
   728  000087                     	ds	2
   729  000089                     _highByte_16:
   730                           	callstack 0
   731  000089                     	ds	2
   732  00008B                     _validacion_c:
   733                           	callstack 0
   734  00008B                     	ds	2
   735  00008D                     _rps_anterior:
   736                           	callstack 0
   737  00008D                     	ds	2
   738  00008F                     _conteo_preuba:
   739                           	callstack 0
   740  00008F                     	ds	2
   741  000091                     _prueba_current:
   742                           	callstack 0
   743  000091                     	ds	2
   744  000093                     _velocidad:
   745                           	callstack 0
   746  000093                     	ds	2
   747  000095                     _i:
   748                           	callstack 0
   749  000095                     	ds	2
   750  000097                     _promedio:
   751                           	callstack 0
   752  000097                     	ds	2
   753  000099                     _preValorADC:
   754                           	callstack 0
   755  000099                     	ds	2
   756  00009B                     _ValorADC:
   757                           	callstack 0
   758  00009B                     	ds	2
   759  00009D                     _suma:
   760                           	callstack 0
   761  00009D                     	ds	2
   762  00009F                     _adc_meas:
   763                           	callstack 0
   764  00009F                     	ds	2
   765  0000A1                     _cambioValorADC:
   766                           	callstack 0
   767  0000A1                     	ds	1
   768  0000A2                     _uart1RxLastError:
   769                           	callstack 0
   770  0000A2                     	ds	1
   771  0000A3                     _uart1TxTail:
   772                           	callstack 0
   773  0000A3                     	ds	1
   774  0000A4                     _uart1TxHead:
   775                           	callstack 0
   776  0000A4                     	ds	1
   777  0000A5                     _cambioVelocidad:
   778                           	callstack 0
   779  0000A5                     	ds	1
   780  0000A6                     _ascii:
   781                           	callstack 0
   782  0000A6                     	ds	1
   783  0000A7                     _calcPromedio:
   784                           	callstack 0
   785  0000A7                     	ds	1
   786                           
   787                           	psect	dataBANK0
   788  0000FC                     __pdataBANK0:
   789                           	callstack 0
   790  0000FC                     _porcent:
   791                           	callstack 0
   792  0000FC                     	ds	2
   793                           
   794                           	psect	bssBANK1
   795  000100                     __pbssBANK1:
   796                           	callstack 0
   797  000100                     _corriente:
   798                           	callstack 0
   799  000100                     	ds	16
   800  000110                     _uart1TxBuffer:
   801                           	callstack 0
   802  000110                     	ds	8
   803  000118                     _digitos:
   804                           	callstack 0
   805  000118                     	ds	28
   806                           
   807                           	psect	dataBANK1
   808  000134                     __pdataBANK1:
   809                           	callstack 0
   810  000134                     _conversion:
   811                           	callstack 0
   812  000134                     	ds	16
   813                           
   814                           	psect	cstackBANK0
   815  0000A8                     __pcstackBANK0:
   816                           	callstack 0
   817  0000A8                     ??_convertirASCII:
   818  0000A8                     ?___xxtofl:
   819                           	callstack 0
   820  0000A8                     PWM6_LoadDutyValue@dutyValue:
   821                           	callstack 0
   822  0000A8                     IOCBF0_SetInterruptHandler@InterruptHandler:
   823                           	callstack 0
   824  0000A8                     TMR4_SetInterruptHandler@InterruptHandler:
   825                           	callstack 0
   826  0000A8                     TMR6_SetInterruptHandler@InterruptHandler:
   827                           	callstack 0
   828  0000A8                     UART1_SetFramingErrorHandler@interruptHandler:
   829                           	callstack 0
   830  0000A8                     UART1_SetOverrunErrorHandler@interruptHandler:
   831                           	callstack 0
   832  0000A8                     UART1_SetErrorHandler@interruptHandler:
   833                           	callstack 0
   834  0000A8                     UART1_SetRxInterruptHandler@InterruptHandler:
   835                           	callstack 0
   836  0000A8                     UART1_SetTxInterruptHandler@InterruptHandler:
   837                           	callstack 0
   838  0000A8                     TMR1_SetInterruptHandler@InterruptHandler:
   839                           	callstack 0
   840  0000A8                     TMR5_SetInterruptHandler@InterruptHandler:
   841                           	callstack 0
   842  0000A8                     ___xxtofl@val:
   843                           	callstack 0
   844                           
   845                           ; 4 bytes @ 0x0
   846  0000A8                     	ds	2
   847  0000AA                     ??_PWM6_LoadDutyValue:
   848                           
   849                           ; 1 bytes @ 0x2
   850  0000AA                     	ds	1
   851  0000AB                     ??_TMR5_Initialize:
   852  0000AB                     ??_TMR1_Initialize:
   853  0000AB                     
   854                           ; 1 bytes @ 0x3
   855  0000AB                     	ds	1
   856  0000AC                     ??___xxtofl:
   857                           
   858                           ; 1 bytes @ 0x4
   859  0000AC                     	ds	1
   860  0000AD                     
   861                           ; 1 bytes @ 0x5
   862  0000AD                     	ds	3
   863  0000B0                     ___xxtofl@sign:
   864                           	callstack 0
   865                           
   866                           ; 1 bytes @ 0x8
   867  0000B0                     	ds	1
   868  0000B1                     ___xxtofl@exp:
   869                           	callstack 0
   870                           
   871                           ; 1 bytes @ 0x9
   872  0000B1                     	ds	1
   873  0000B2                     ___xxtofl@arg:
   874                           	callstack 0
   875                           
   876                           ; 4 bytes @ 0xA
   877  0000B2                     	ds	4
   878  0000B6                     ?___flmul:
   879                           	callstack 0
   880  0000B6                     ___flmul@b:
   881                           	callstack 0
   882                           
   883                           ; 4 bytes @ 0xE
   884  0000B6                     	ds	4
   885  0000BA                     ___flmul@a:
   886                           	callstack 0
   887                           
   888                           ; 4 bytes @ 0x12
   889  0000BA                     	ds	4
   890  0000BE                     ??___flmul:
   891                           
   892                           ; 1 bytes @ 0x16
   893  0000BE                     	ds	4
   894  0000C2                     ___flmul@sign:
   895                           	callstack 0
   896                           
   897                           ; 1 bytes @ 0x1A
   898  0000C2                     	ds	1
   899  0000C3                     ___flmul@grs:
   900                           	callstack 0
   901                           
   902                           ; 4 bytes @ 0x1B
   903  0000C3                     	ds	4
   904  0000C7                     ___flmul@aexp:
   905                           	callstack 0
   906                           
   907                           ; 1 bytes @ 0x1F
   908  0000C7                     	ds	1
   909  0000C8                     ___flmul@bexp:
   910                           	callstack 0
   911                           
   912                           ; 1 bytes @ 0x20
   913  0000C8                     	ds	1
   914  0000C9                     ___flmul@prod:
   915                           	callstack 0
   916                           
   917                           ; 4 bytes @ 0x21
   918  0000C9                     	ds	4
   919  0000CD                     ___flmul@temp:
   920                           	callstack 0
   921                           
   922                           ; 2 bytes @ 0x25
   923  0000CD                     	ds	2
   924  0000CF                     ?___fltol:
   925                           	callstack 0
   926  0000CF                     ___fltol@f1:
   927                           	callstack 0
   928                           
   929                           ; 4 bytes @ 0x27
   930  0000CF                     	ds	4
   931  0000D3                     ??___fltol:
   932                           
   933                           ; 1 bytes @ 0x2B
   934  0000D3                     	ds	4
   935  0000D7                     ___fltol@sign1:
   936                           	callstack 0
   937                           
   938                           ; 1 bytes @ 0x2F
   939  0000D7                     	ds	1
   940  0000D8                     ___fltol@exp1:
   941                           	callstack 0
   942                           
   943                           ; 1 bytes @ 0x30
   944  0000D8                     	ds	1
   945  0000D9                     ??_main:
   946                           
   947                           ; 1 bytes @ 0x31
   948  0000D9                     	ds	4
   949                           
   950                           	psect	cstackCOMRAM
   951  000001                     __pcstackCOMRAM:
   952                           	callstack 0
   953  000001                     ??_Temp:
   954  000001                     ?___wmul:
   955                           	callstack 0
   956  000001                     ?i2___xxtofl:
   957                           	callstack 0
   958  000001                     UART1_Read@tempRxTail:
   959                           	callstack 0
   960  000001                     current@current:
   961                           	callstack 0
   962  000001                     ___wmul@multiplier:
   963                           	callstack 0
   964  000001                     i2___xxtofl@val:
   965                           	callstack 0
   966                           
   967                           ; 4 bytes @ 0x0
   968  000001                     	ds	1
   969  000002                     UART1_Read@readValue:
   970                           	callstack 0
   971                           
   972                           ; 1 bytes @ 0x1
   973  000002                     	ds	1
   974  000003                     ??_current:
   975  000003                     UART1_Receive@regValue:
   976                           	callstack 0
   977  000003                     ___wmul@multiplicand:
   978                           	callstack 0
   979                           
   980                           ; 2 bytes @ 0x2
   981  000003                     	ds	1
   982  000004                     UART1_Receive@tempRxHead:
   983                           	callstack 0
   984                           
   985                           ; 1 bytes @ 0x3
   986  000004                     	ds	1
   987  000005                     ??i2___xxtofl:
   988  000005                     ___wmul@product:
   989                           	callstack 0
   990                           
   991                           ; 2 bytes @ 0x4
   992  000005                     	ds	2
   993  000007                     i2PWM6_LoadDutyValue@dutyValue:
   994                           	callstack 0
   995                           
   996                           ; 2 bytes @ 0x6
   997  000007                     	ds	2
   998  000009                     ??i2_PWM6_LoadDutyValue:
   999  000009                     i2___xxtofl@sign:
  1000                           	callstack 0
  1001                           
  1002                           ; 1 bytes @ 0x8
  1003  000009                     	ds	1
  1004  00000A                     i2___xxtofl@exp:
  1005                           	callstack 0
  1006                           
  1007                           ; 1 bytes @ 0x9
  1008  00000A                     	ds	1
  1009  00000B                     i2___xxtofl@arg:
  1010                           	callstack 0
  1011                           
  1012                           ; 4 bytes @ 0xA
  1013  00000B                     	ds	4
  1014  00000F                     ?___fldiv:
  1015                           	callstack 0
  1016  00000F                     ?i2___flmul:
  1017                           	callstack 0
  1018  00000F                     ___fldiv@b:
  1019                           	callstack 0
  1020  00000F                     i2___flmul@b:
  1021                           	callstack 0
  1022                           
  1023                           ; 4 bytes @ 0xE
  1024  00000F                     	ds	4
  1025  000013                     ___fldiv@a:
  1026                           	callstack 0
  1027  000013                     i2___flmul@a:
  1028                           	callstack 0
  1029                           
  1030                           ; 4 bytes @ 0x12
  1031  000013                     	ds	4
  1032  000017                     ??___fldiv:
  1033  000017                     ??i2___flmul:
  1034                           
  1035                           ; 1 bytes @ 0x16
  1036  000017                     	ds	4
  1037  00001B                     i2___flmul@sign:
  1038                           	callstack 0
  1039  00001B                     ___fldiv@rem:
  1040                           	callstack 0
  1041                           
  1042                           ; 4 bytes @ 0x1A
  1043  00001B                     	ds	1
  1044  00001C                     i2___flmul@grs:
  1045                           	callstack 0
  1046                           
  1047                           ; 4 bytes @ 0x1B
  1048  00001C                     	ds	3
  1049  00001F                     ___fldiv@sign:
  1050                           	callstack 0
  1051                           
  1052                           ; 1 bytes @ 0x1E
  1053  00001F                     	ds	1
  1054  000020                     i2___flmul@aexp:
  1055                           	callstack 0
  1056  000020                     ___fldiv@new_exp:
  1057                           	callstack 0
  1058                           
  1059                           ; 2 bytes @ 0x1F
  1060  000020                     	ds	1
  1061  000021                     i2___flmul@bexp:
  1062                           	callstack 0
  1063                           
  1064                           ; 1 bytes @ 0x20
  1065  000021                     	ds	1
  1066  000022                     ___fldiv@grs:
  1067                           	callstack 0
  1068  000022                     i2___flmul@prod:
  1069                           	callstack 0
  1070                           
  1071                           ; 4 bytes @ 0x21
  1072  000022                     	ds	4
  1073  000026                     ___fldiv@bexp:
  1074                           	callstack 0
  1075  000026                     i2___flmul@temp:
  1076                           	callstack 0
  1077                           
  1078                           ; 2 bytes @ 0x25
  1079  000026                     	ds	1
  1080  000027                     ___fldiv@aexp:
  1081                           	callstack 0
  1082                           
  1083                           ; 1 bytes @ 0x26
  1084  000027                     	ds	1
  1085  000028                     ?i2___fltol:
  1086                           	callstack 0
  1087  000028                     i2___fltol@f1:
  1088                           	callstack 0
  1089                           
  1090                           ; 4 bytes @ 0x27
  1091  000028                     	ds	4
  1092  00002C                     ??i2___fltol:
  1093                           
  1094                           ; 1 bytes @ 0x2B
  1095  00002C                     	ds	4
  1096  000030                     i2___fltol@sign1:
  1097                           	callstack 0
  1098                           
  1099                           ; 1 bytes @ 0x2F
  1100  000030                     	ds	1
  1101  000031                     i2___fltol@exp1:
  1102                           	callstack 0
  1103                           
  1104                           ; 1 bytes @ 0x30
  1105  000031                     	ds	1
  1106  000032                     ??_velocidadTransitorio:
  1107                           
  1108                           ; 1 bytes @ 0x31
  1109  000032                     	ds	4
  1110  000036                     velocidadTransitorio@paso:
  1111                           	callstack 0
  1112                           
  1113                           ; 2 bytes @ 0x35
  1114  000036                     	ds	2
  1115  000038                     ??_actualizarEstadoMotor:
  1116                           
  1117                           ; 1 bytes @ 0x37
  1118  000038                     	ds	1
  1119  000039                     ??_INTERRUPT_InterruptManager:
  1120                           
  1121                           ; 1 bytes @ 0x38
  1122  000039                     	ds	2
  1123                           
  1124 ;;
  1125 ;;Main: autosize = 0, tempsize = 4, incstack = 0, save=0
  1126 ;;
  1127 ;; *************** function _main *****************
  1128 ;; Defined at:
  1129 ;;		line 114 in file "main.c"
  1130 ;; Parameters:    Size  Location     Type
  1131 ;;		None
  1132 ;; Auto vars:     Size  Location     Type
  1133 ;;		None
  1134 ;; Return value:  Size  Location     Type
  1135 ;;                  1    wreg      void 
  1136 ;; Registers used:
  1137 ;;		wreg, fsr1l, fsr1h, fsr2l, fsr2h, status,2, status,0, prodl, prodh, cstack
  1138 ;; Tracked objects:
  1139 ;;		On entry : 0/0
  1140 ;;		On exit  : 0/0
  1141 ;;		Unchanged: 0/0
  1142 ;; Data sizes:     COMRAM   BANK0   BANK1   BANK2   BANK3   BANK4   BANK5   BANK6   BANK7   BANK8   BANK9  BANK10  BANK1
      +1  BANK12  BANK13  BANK14  BANK15  BANK16  BANK17  BANK18  BANK19  BANK20  BANK21  BANK22  BANK23  BANK24  BANK25  BANK2
      +6  BANK27  BANK28  BANK29  BANK30  BANK31
  1143 ;;      Params:         0       0       0       0       0       0       0       0       0       0       0       0       
      +0       0       0       0       0       0       0       0       0       0       0       0       0       0       0       
      +0       0       0       0       0       0
  1144 ;;      Locals:         0       0       0       0       0       0       0       0       0       0       0       0       
      +0       0       0       0       0       0       0       0       0       0       0       0       0       0       0       
      +0       0       0       0       0       0
  1145 ;;      Temps:          0       4       0       0       0       0       0       0       0       0       0       0       
      +0       0       0       0       0       0       0       0       0       0       0       0       0       0       0       
      +0       0       0       0       0       0
  1146 ;;      Totals:         0       4       0       0       0       0       0       0       0       0       0       0       
      +0       0       0       0       0       0       0       0       0       0       0       0       0       0       0       
      +0       0       0       0       0       0
  1147 ;;Total ram usage:        4 bytes
  1148 ;; Hardware stack levels required when called: 7
  1149 ;; This function calls:
  1150 ;;		_PWM6_LoadDutyValue
  1151 ;;		_SYSTEM_Initialize
  1152 ;;		___flmul
  1153 ;;		___fltol
  1154 ;;		___xxtofl
  1155 ;;		_actualizarDir
  1156 ;;		_convertirASCII
  1157 ;; This function is called by:
  1158 ;;		Startup code after reset
  1159 ;; This function uses a non-reentrant model
  1160 ;;
  1161                           
  1162                           	psect	text0
  1163  0033D8                     __ptext0:
  1164                           	callstack 0
  1165  0033D8                     _main:
  1166                           	callstack 24
  1167  0033D8                     
  1168                           ;main.c: 116:     SYSTEM_Initialize();
  1169  0033D8  ECC0  F024         	call	_SYSTEM_Initialize	;wreg free
  1170  0033DC  88BA               	bsf	186,4,c	;volatile
  1171  0033DE  9ABA               	bcf	186,5,c	;volatile
  1172  0033E0                     
  1173                           ;main.c: 119:     cont = 0;
  1174  0033E0  0E00               	movlw	0
  1175  0033E2  0100               	movlb	0	; () banked
  1176  0033E4  6FF5               	movwf	(_cont+1)& (0+255),b
  1177  0033E6  0E00               	movlw	0
  1178  0033E8  6FF4               	movwf	_cont& (0+255),b
  1179  0033EA                     
  1180                           ; BSR set to: 0
  1181                           ;main.c: 120:     digito_ptr = digitos;
  1182  0033EA  0E18               	movlw	low _digitos
  1183  0033EC  6FF2               	movwf	_digito_ptr& (0+255),b
  1184  0033EE  0E01               	movlw	high _digitos
  1185  0033F0  6FF3               	movwf	(_digito_ptr+1)& (0+255),b
  1186  0033F2                     
  1187                           ; BSR set to: 0
  1188                           ;main.c: 131:     (INTCON0bits.GIE = 1);
  1189  0033F2  8ED2               	bsf	210,7,c	;volatile
  1190  0033F4                     
  1191                           ; BSR set to: 0
  1192                           ;main.c: 133:     prevHallA = 0;
  1193  0033F4  0E00               	movlw	0
  1194  0033F6  6FFA               	movwf	_prevHallA& (0+255),b
  1195  0033F8                     
  1196                           ; BSR set to: 0
  1197                           ;main.c: 134:     prevHallB = 0;
  1198  0033F8  0E00               	movlw	0
  1199  0033FA  6E5D               	movwf	_prevHallB^0,c
  1200  0033FC                     
  1201                           ; BSR set to: 0
  1202                           ;main.c: 135:     prevHallC = 0;
  1203  0033FC  0E00               	movlw	0
  1204  0033FE  0101               	movlb	1	; () banked
  1205  003400  6F4F               	movwf	_prevHallC& (0+255),b
  1206  003402                     
  1207                           ; BSR set to: 1
  1208                           ;main.c: 137:     duty = 310;
  1209  003402  0E01               	movlw	1
  1210  003404  6E5C               	movwf	(_duty+1)^0,c
  1211  003406  0E36               	movlw	54
  1212  003408  6E5B               	movwf	_duty^0,c
  1213  00340A                     
  1214                           ; BSR set to: 1
  1215                           ;main.c: 142:     digitos[3] = 0x2C;
  1216  00340A  0E2C               	movlw	44
  1217  00340C  6F1B               	movwf	(_digitos+3)& (0+255),b
  1218  00340E                     
  1219                           ; BSR set to: 1
  1220                           ;main.c: 143:     digitos[7] = 0x2C;
  1221  00340E  0E2C               	movlw	44
  1222  003410  6F1F               	movwf	(_digitos+7)& (0+255),b
  1223  003412                     
  1224                           ; BSR set to: 1
  1225                           ;main.c: 144:     digitos[11] = 0x2C;
  1226  003412  0E2C               	movlw	44
  1227  003414  6F23               	movwf	(_digitos+11)& (0+255),b
  1228  003416                     
  1229                           ; BSR set to: 1
  1230                           ;main.c: 145:     digitos[15] = 0x0A;
  1231  003416  0E0A               	movlw	10
  1232  003418  6F27               	movwf	(_digitos+15)& (0+255),b
  1233  00341A                     
  1234                           ; BSR set to: 1
  1235                           ;main.c: 146:     digitos[19] = 0x2C;
  1236  00341A  0E2C               	movlw	44
  1237  00341C  6F2B               	movwf	(_digitos+19)& (0+255),b
  1238  00341E                     
  1239                           ; BSR set to: 1
  1240                           ;main.c: 147:     digitos[23] = 0x2C;
  1241  00341E  0E2C               	movlw	44
  1242  003420  6F2F               	movwf	(_digitos+23)& (0+255),b
  1243  003422                     
  1244                           ; BSR set to: 1
  1245                           ;main.c: 148:     digitos[27] = 0x0A;
  1246  003422  0E0A               	movlw	10
  1247  003424  6F33               	movwf	(_digitos+27)& (0+255),b
  1248  003426                     
  1249                           ; BSR set to: 1
  1250                           ;main.c: 150:     leidos[0] = 0x2E;
  1251  003426  0E2E               	movlw	46
  1252  003428  0100               	movlb	0	; () banked
  1253  00342A  6F80               	movwf	_leidos& (0+255),b
  1254  00342C                     
  1255                           ; BSR set to: 0
  1256                           ;main.c: 151:     actualizarDir();
  1257  00342C  ECF2  F023         	call	_actualizarDir	;wreg free
  1258  003430                     
  1259                           ;main.c: 152:     cambioValorADC = 0;
  1260  003430  0E00               	movlw	0
  1261  003432  0100               	movlb	0	; () banked
  1262  003434  6FA1               	movwf	_cambioValorADC& (0+255),b
  1263  003436                     
  1264                           ; BSR set to: 0
  1265                           ;main.c: 153:     leidos_ptr = 0;
  1266  003436  0E00               	movlw	0
  1267  003438  6E44               	movwf	(_leidos_ptr+1)^0,c	;volatile
  1268  00343A  0E00               	movlw	0
  1269  00343C  6E43               	movwf	_leidos_ptr^0,c	;volatile
  1270  00343E                     
  1271                           ; BSR set to: 0
  1272                           ;main.c: 154:     PIE3bits.U1TXIE = 0;
  1273  00343E  0139               	movlb	57	; () banked
  1274  003440  9993               	bcf	147,4,b	;volatile
  1275  003442                     
  1276                           ; BSR set to: 57
  1277                           ;main.c: 155:     PIE4bits.TMR1IE = 0;
  1278  003442  9194               	bcf	148,0,b	;volatile
  1279  003444                     
  1280                           ; BSR set to: 57
  1281                           ;main.c: 156:     PIE9bits.TMR6IE = 0;
  1282  003444  9199               	bcf	153,0,b	;volatile
  1283  003446                     
  1284                           ; BSR set to: 57
  1285                           ;main.c: 157:     PIE0bits.IOCIE = 1;
  1286  003446  8F90               	bsf	144,7,b	;volatile
  1287  003448                     
  1288                           ; BSR set to: 57
  1289                           ;main.c: 162:     empezoTimer = 0;
  1290  003448  0E00               	movlw	0
  1291  00344A  6E4B               	movwf	_empezoTimer^0,c
  1292  00344C                     
  1293                           ; BSR set to: 57
  1294                           ;main.c: 163:     calcPromedio = 0;
  1295  00344C  0E00               	movlw	0
  1296  00344E  0100               	movlb	0	; () banked
  1297  003450  6FA7               	movwf	_calcPromedio& (0+255),b
  1298  003452                     
  1299                           ; BSR set to: 0
  1300                           ;main.c: 164:     FVRCONbits.TSEN = 1;
  1301  003452  013E               	movlb	62	; () banked
  1302  003454  8BC1               	bsf	193,5,b	;volatile
  1303  003456                     
  1304                           ; BSR set to: 62
  1305                           ;main.c: 165:     FVRCONbits.TSRNG = 1;
  1306  003456  89C1               	bsf	193,4,b	;volatile
  1307  003458                     l6209:
  1308                           
  1309                           ;main.c: 173:         if (leidos[0] == 0x56 && cambioVelocidad) {
  1310  003458  0E56               	movlw	86
  1311  00345A  0100               	movlb	0	; () banked
  1312  00345C  1980               	xorwf	_leidos& (0+255),w,b
  1313  00345E  A4D8               	btfss	status,2,c
  1314  003460  EF34  F01A         	goto	u5801
  1315  003464  EF36  F01A         	goto	u5800
  1316  003468                     u5801:
  1317  003468  EF66  F01A         	goto	l6223
  1318  00346C                     u5800:
  1319  00346C                     
  1320                           ; BSR set to: 0
  1321  00346C  51A5               	movf	_cambioVelocidad& (0+255),w,b
  1322  00346E  B4D8               	btfsc	status,2,c
  1323  003470  EF3C  F01A         	goto	u5811
  1324  003474  EF3E  F01A         	goto	u5810
  1325  003478                     u5811:
  1326  003478  EF66  F01A         	goto	l6223
  1327  00347C                     u5810:
  1328  00347C                     
  1329                           ; BSR set to: 0
  1330                           ;main.c: 176:             velocidad = (leidos[1] << 8) +(leidos[2] << 4) + leidos[3];
  1331  00347C  5182               	movf	(_leidos+2)& (0+255),w,b
  1332  00347E  6FD9               	movwf	??_main& (0+255),b
  1333  003480  6BDA               	clrf	(??_main+1)& (0+255),b
  1334  003482  3BD9               	swapf	??_main& (0+255),f,b
  1335  003484  3BDA               	swapf	(??_main+1)& (0+255),f,b
  1336  003486  0EF0               	movlw	240
  1337  003488  17DA               	andwf	(??_main+1)& (0+255),f,b
  1338  00348A  51D9               	movf	??_main& (0+255),w,b
  1339  00348C  0B0F               	andlw	15
  1340  00348E  13DA               	iorwf	(??_main+1)& (0+255),f,b
  1341  003490  0EF0               	movlw	240
  1342  003492  17D9               	andwf	??_main& (0+255),f,b
  1343  003494  5181               	movf	(_leidos+1)& (0+255),w,b
  1344  003496  6FDC               	movwf	(??_main+3)& (0+255),b
  1345  003498  6BDB               	clrf	(??_main+2)& (0+255),b
  1346  00349A  51D9               	movf	??_main& (0+255),w,b
  1347  00349C  27DB               	addwf	(??_main+2)& (0+255),f,b
  1348  00349E  51DA               	movf	(??_main+1)& (0+255),w,b
  1349  0034A0  23DC               	addwfc	(??_main+3)& (0+255),f,b
  1350  0034A2  5183               	movf	(_leidos+3)& (0+255),w,b
  1351  0034A4  25DB               	addwf	(??_main+2)& (0+255),w,b
  1352  0034A6  6F93               	movwf	_velocidad& (0+255),b
  1353  0034A8  0E00               	movlw	0
  1354  0034AA  21DC               	addwfc	(??_main+3)& (0+255),w,b
  1355  0034AC  6F94               	movwf	(_velocidad+1)& (0+255),b
  1356  0034AE                     
  1357                           ; BSR set to: 0
  1358                           ;main.c: 177:             duty = (int) (velocidad);
  1359  0034AE  C093  F05B         	movff	_velocidad,_duty
  1360  0034B2  C094  F05C         	movff	_velocidad+1,_duty+1
  1361  0034B6                     
  1362                           ; BSR set to: 0
  1363                           ;main.c: 178:             PWM6_LoadDutyValue(duty);
  1364  0034B6  C05B  F0A8         	movff	_duty,PWM6_LoadDutyValue@dutyValue
  1365  0034BA  C05C  F0A9         	movff	_duty+1,PWM6_LoadDutyValue@dutyValue+1
  1366  0034BE  ECE1  F024         	call	_PWM6_LoadDutyValue	;wreg free
  1367  0034C2                     
  1368                           ;main.c: 179:             ascii = 0;
  1369  0034C2  0E00               	movlw	0
  1370  0034C4  0100               	movlb	0	; () banked
  1371  0034C6  6FA6               	movwf	_ascii& (0+255),b
  1372  0034C8                     
  1373                           ; BSR set to: 0
  1374                           ;main.c: 180:             cambioVelocidad = 0;
  1375  0034C8  0E00               	movlw	0
  1376  0034CA  6FA5               	movwf	_cambioVelocidad& (0+255),b
  1377  0034CC                     l6223:
  1378                           
  1379                           ; BSR set to: 0
  1380                           ;main.c: 188:         if (ascii) convertirASCII();
  1381  0034CC  51A6               	movf	_ascii& (0+255),w,b
  1382  0034CE  B4D8               	btfsc	status,2,c
  1383  0034D0  EF6C  F01A         	goto	u5821
  1384  0034D4  EF6E  F01A         	goto	u5820
  1385  0034D8                     u5821:
  1386  0034D8  EF70  F01A         	goto	l6227
  1387  0034DC                     u5820:
  1388  0034DC                     
  1389                           ; BSR set to: 0
  1390  0034DC  EC4B  F01F         	call	_convertirASCII	;wreg free
  1391  0034E0                     l6227:
  1392                           
  1393                           ;main.c: 190:         if (calcPromedio) {
  1394  0034E0  0100               	movlb	0	; () banked
  1395  0034E2  51A7               	movf	_calcPromedio& (0+255),w,b
  1396  0034E4  B4D8               	btfsc	status,2,c
  1397  0034E6  EF77  F01A         	goto	u5831
  1398  0034EA  EF79  F01A         	goto	u5830
  1399  0034EE                     u5831:
  1400  0034EE  EF2C  F01A         	goto	l6209
  1401  0034F2                     u5830:
  1402  0034F2                     
  1403                           ; BSR set to: 0
  1404                           ;main.c: 193:             calcPromedio = 0;
  1405  0034F2  0E00               	movlw	0
  1406  0034F4  6FA7               	movwf	_calcPromedio& (0+255),b
  1407                           
  1408                           ;main.c: 194:             sumatoriaCorriente = 0;
  1409  0034F6  0E00               	movlw	0
  1410  0034F8  6F78               	movwf	_sumatoriaCorriente& (0+255),b
  1411  0034FA  0E00               	movlw	0
  1412  0034FC  6F79               	movwf	(_sumatoriaCorriente+1)& (0+255),b
  1413  0034FE  0E00               	movlw	0
  1414  003500  6F7A               	movwf	(_sumatoriaCorriente+2)& (0+255),b
  1415  003502  0E00               	movlw	0
  1416  003504  6F7B               	movwf	(_sumatoriaCorriente+3)& (0+255),b
  1417  003506                     
  1418                           ; BSR set to: 0
  1419                           ;main.c: 195:             sumatoriaCorriente += (uint32_t) (corriente[0]);
  1420  003506  0101               	movlb	1	; () banked
  1421  003508  5100               	movf	_corriente& (0+255),w,b
  1422  00350A  0100               	movlb	0	; () banked
  1423  00350C  2778               	addwf	_sumatoriaCorriente& (0+255),f,b
  1424  00350E  0101               	movlb	1	; () banked
  1425  003510  5101               	movf	(_corriente+1)& (0+255),w,b
  1426  003512  0100               	movlb	0	; () banked
  1427  003514  2379               	addwfc	(_sumatoriaCorriente+1)& (0+255),f,b
  1428  003516  0E00               	movlw	0
  1429  003518  237A               	addwfc	(_sumatoriaCorriente+2)& (0+255),f,b
  1430  00351A  0E00               	movlw	0
  1431  00351C  237B               	addwfc	(_sumatoriaCorriente+3)& (0+255),f,b
  1432  00351E                     
  1433                           ; BSR set to: 0
  1434                           ;main.c: 196:             sumatoriaCorriente += (uint32_t) (corriente[1]);
  1435  00351E  0101               	movlb	1	; () banked
  1436  003520  5102               	movf	(_corriente+2)& (0+255),w,b
  1437  003522  0100               	movlb	0	; () banked
  1438  003524  2778               	addwf	_sumatoriaCorriente& (0+255),f,b
  1439  003526  0101               	movlb	1	; () banked
  1440  003528  5103               	movf	(_corriente+3)& (0+255),w,b
  1441  00352A  0100               	movlb	0	; () banked
  1442  00352C  2379               	addwfc	(_sumatoriaCorriente+1)& (0+255),f,b
  1443  00352E  0E00               	movlw	0
  1444  003530  237A               	addwfc	(_sumatoriaCorriente+2)& (0+255),f,b
  1445  003532  0E00               	movlw	0
  1446  003534  237B               	addwfc	(_sumatoriaCorriente+3)& (0+255),f,b
  1447  003536                     
  1448                           ; BSR set to: 0
  1449                           ;main.c: 197:             sumatoriaCorriente += (uint32_t) (corriente[2]);
  1450  003536  0101               	movlb	1	; () banked
  1451  003538  5104               	movf	(_corriente+4)& (0+255),w,b
  1452  00353A  0100               	movlb	0	; () banked
  1453  00353C  2778               	addwf	_sumatoriaCorriente& (0+255),f,b
  1454  00353E  0101               	movlb	1	; () banked
  1455  003540  5105               	movf	(_corriente+5)& (0+255),w,b
  1456  003542  0100               	movlb	0	; () banked
  1457  003544  2379               	addwfc	(_sumatoriaCorriente+1)& (0+255),f,b
  1458  003546  0E00               	movlw	0
  1459  003548  237A               	addwfc	(_sumatoriaCorriente+2)& (0+255),f,b
  1460  00354A  0E00               	movlw	0
  1461  00354C  237B               	addwfc	(_sumatoriaCorriente+3)& (0+255),f,b
  1462  00354E                     
  1463                           ; BSR set to: 0
  1464                           ;main.c: 198:             sumatoriaCorriente += (uint32_t) (corriente[3]);
  1465  00354E  0101               	movlb	1	; () banked
  1466  003550  5106               	movf	(_corriente+6)& (0+255),w,b
  1467  003552  0100               	movlb	0	; () banked
  1468  003554  2778               	addwf	_sumatoriaCorriente& (0+255),f,b
  1469  003556  0101               	movlb	1	; () banked
  1470  003558  5107               	movf	(_corriente+7)& (0+255),w,b
  1471  00355A  0100               	movlb	0	; () banked
  1472  00355C  2379               	addwfc	(_sumatoriaCorriente+1)& (0+255),f,b
  1473  00355E  0E00               	movlw	0
  1474  003560  237A               	addwfc	(_sumatoriaCorriente+2)& (0+255),f,b
  1475  003562  0E00               	movlw	0
  1476  003564  237B               	addwfc	(_sumatoriaCorriente+3)& (0+255),f,b
  1477  003566                     
  1478                           ; BSR set to: 0
  1479                           ;main.c: 199:             sumatoriaCorriente += (uint32_t) (corriente[4]);
  1480  003566  0101               	movlb	1	; () banked
  1481  003568  5108               	movf	(_corriente+8)& (0+255),w,b
  1482  00356A  0100               	movlb	0	; () banked
  1483  00356C  2778               	addwf	_sumatoriaCorriente& (0+255),f,b
  1484  00356E  0101               	movlb	1	; () banked
  1485  003570  5109               	movf	(_corriente+9)& (0+255),w,b
  1486  003572  0100               	movlb	0	; () banked
  1487  003574  2379               	addwfc	(_sumatoriaCorriente+1)& (0+255),f,b
  1488  003576  0E00               	movlw	0
  1489  003578  237A               	addwfc	(_sumatoriaCorriente+2)& (0+255),f,b
  1490  00357A  0E00               	movlw	0
  1491  00357C  237B               	addwfc	(_sumatoriaCorriente+3)& (0+255),f,b
  1492  00357E                     
  1493                           ; BSR set to: 0
  1494                           ;main.c: 200:             sumatoriaCorriente += (uint32_t) (corriente[5]);
  1495  00357E  0101               	movlb	1	; () banked
  1496  003580  510A               	movf	(_corriente+10)& (0+255),w,b
  1497  003582  0100               	movlb	0	; () banked
  1498  003584  2778               	addwf	_sumatoriaCorriente& (0+255),f,b
  1499  003586  0101               	movlb	1	; () banked
  1500  003588  510B               	movf	(_corriente+11)& (0+255),w,b
  1501  00358A  0100               	movlb	0	; () banked
  1502  00358C  2379               	addwfc	(_sumatoriaCorriente+1)& (0+255),f,b
  1503  00358E  0E00               	movlw	0
  1504  003590  237A               	addwfc	(_sumatoriaCorriente+2)& (0+255),f,b
  1505  003592  0E00               	movlw	0
  1506  003594  237B               	addwfc	(_sumatoriaCorriente+3)& (0+255),f,b
  1507  003596                     
  1508                           ; BSR set to: 0
  1509                           ;main.c: 201:             promedio = (uint16_t) ((int) (sumatoriaCorriente * 0.166666666
      +                          667));
  1510  003596  0EAB               	movlw	171
  1511  003598  6FBA               	movwf	___flmul@a& (0+255),b
  1512  00359A  0EAA               	movlw	170
  1513  00359C  6FBB               	movwf	(___flmul@a+1)& (0+255),b
  1514  00359E  0E2A               	movlw	42
  1515  0035A0  6FBC               	movwf	(___flmul@a+2)& (0+255),b
  1516  0035A2  0E3E               	movlw	62
  1517  0035A4  6FBD               	movwf	(___flmul@a+3)& (0+255),b
  1518  0035A6  C078  F0A8         	movff	_sumatoriaCorriente,___xxtofl@val
  1519  0035AA  C079  F0A9         	movff	_sumatoriaCorriente+1,___xxtofl@val+1
  1520  0035AE  C07A  F0AA         	movff	_sumatoriaCorriente+2,___xxtofl@val+2
  1521  0035B2  C07B  F0AB         	movff	_sumatoriaCorriente+3,___xxtofl@val+3
  1522  0035B6  0E00               	movlw	0
  1523  0035B8  EC07  F01C         	call	___xxtofl
  1524  0035BC  C0A8  F0B6         	movff	?___xxtofl,___flmul@b
  1525  0035C0  C0A9  F0B7         	movff	?___xxtofl+1,___flmul@b+1
  1526  0035C4  C0AA  F0B8         	movff	?___xxtofl+2,___flmul@b+2
  1527  0035C8  C0AB  F0B9         	movff	?___xxtofl+3,___flmul@b+3
  1528  0035CC  EC04  F010         	call	___flmul	;wreg free
  1529  0035D0  C0B6  F0CF         	movff	?___flmul,___fltol@f1
  1530  0035D4  C0B7  F0D0         	movff	?___flmul+1,___fltol@f1+1
  1531  0035D8  C0B8  F0D1         	movff	?___flmul+2,___fltol@f1+2
  1532  0035DC  C0B9  F0D2         	movff	?___flmul+3,___fltol@f1+3
  1533  0035E0  ECFB  F020         	call	___fltol	;wreg free
  1534  0035E4  C0CF  F097         	movff	?___fltol,_promedio
  1535  0035E8  C0D0  F098         	movff	?___fltol+1,_promedio+1
  1536  0035EC                     
  1537                           ;main.c: 202:             corriente[6] = promedio;
  1538  0035EC  C097  F10C         	movff	_promedio,_corriente+12
  1539  0035F0  C098  F10D         	movff	_promedio+1,_corriente+13
  1540  0035F4                     
  1541                           ;main.c: 203:             send_data[1] = promedio;
  1542  0035F4  C097  F072         	movff	_promedio,_send_data+2
  1543  0035F8  C098  F073         	movff	_promedio+1,_send_data+3
  1544  0035FC                     
  1545                           ;main.c: 205:             i = 0;
  1546  0035FC  0E00               	movlw	0
  1547  0035FE  0100               	movlb	0	; () banked
  1548  003600  6F96               	movwf	(_i+1)& (0+255),b
  1549  003602  0E00               	movlw	0
  1550  003604  6F95               	movwf	_i& (0+255),b
  1551  003606  EF2C  F01A         	goto	l6209
  1552  00360A  EF0D  F000         	goto	start
  1553  00360E                     __end_of_main:
  1554                           	callstack 0
  1555                           
  1556 ;; *************** function _convertirASCII *****************
  1557 ;; Defined at:
  1558 ;;		line 62 in file "UART.c"
  1559 ;; Parameters:    Size  Location     Type
  1560 ;;		None
  1561 ;; Auto vars:     Size  Location     Type
  1562 ;;		None
  1563 ;; Return value:  Size  Location     Type
  1564 ;;                  1    wreg      void 
  1565 ;; Registers used:
  1566 ;;		wreg, fsr1l, fsr1h, fsr2l, fsr2h, status,2, status,0
  1567 ;; Tracked objects:
  1568 ;;		On entry : 0/0
  1569 ;;		On exit  : 0/0
  1570 ;;		Unchanged: 0/0
  1571 ;; Data sizes:     COMRAM   BANK0   BANK1   BANK2   BANK3   BANK4   BANK5   BANK6   BANK7   BANK8   BANK9  BANK10  BANK1
      +1  BANK12  BANK13  BANK14  BANK15  BANK16  BANK17  BANK18  BANK19  BANK20  BANK21  BANK22  BANK23  BANK24  BANK25  BANK2
      +6  BANK27  BANK28  BANK29  BANK30  BANK31
  1572 ;;      Params:         0       0       0       0       0       0       0       0       0       0       0       0       
      +0       0       0       0       0       0       0       0       0       0       0       0       0       0       0       
      +0       0       0       0       0       0
  1573 ;;      Locals:         0       0       0       0       0       0       0       0       0       0       0       0       
      +0       0       0       0       0       0       0       0       0       0       0       0       0       0       0       
      +0       0       0       0       0       0
  1574 ;;      Temps:          0       3       0       0       0       0       0       0       0       0       0       0       
      +0       0       0       0       0       0       0       0       0       0       0       0       0       0       0       
      +0       0       0       0       0       0
  1575 ;;      Totals:         0       3       0       0       0       0       0       0       0       0       0       0       
      +0       0       0       0       0       0       0       0       0       0       0       0       0       0       0       
      +0       0       0       0       0       0
  1576 ;;Total ram usage:        3 bytes
  1577 ;; Hardware stack levels used: 1
  1578 ;; Hardware stack levels required when called: 4
  1579 ;; This function calls:
  1580 ;;		Nothing
  1581 ;; This function is called by:
  1582 ;;		_main
  1583 ;; This function uses a non-reentrant model
  1584 ;;
  1585                           
  1586                           	psect	text1
  1587  003E96                     __ptext1:
  1588                           	callstack 0
  1589  003E96                     _convertirASCII:
  1590                           	callstack 26
  1591  003E96                     
  1592                           ;UART.c: 64:         digitos[0 + i] = conversion[(send_data[i2] >> 8) & 0x000F];
  1593  003E96  90D8               	bcf	status,0,c
  1594  003E98  343B               	rlcf	_i2^0,w,c
  1595  003E9A  6ED9               	movwf	fsr2l,c
  1596  003E9C  343C               	rlcf	(_i2+1)^0,w,c
  1597  003E9E  6EDA               	movwf	fsr2h,c
  1598  003EA0  0E70               	movlw	low _send_data
  1599  003EA2  26D9               	addwf	fsr2l,f,c
  1600  003EA4  0E00               	movlw	high _send_data
  1601  003EA6  22DA               	addwfc	fsr2h,f,c
  1602  003EA8  006F FF78  F0A8    	movff	postinc2,??_convertirASCII
  1603  003EAE  006F FF74  F0A9    	movff	postdec2,??_convertirASCII+1
  1604  003EB4  C0A9  F0A8         	movff	??_convertirASCII+1,??_convertirASCII
  1605  003EB8  0100               	movlb	0	; () banked
  1606  003EBA  6BA9               	clrf	(??_convertirASCII+1)& (0+255),b
  1607  003EBC  0E0F               	movlw	15
  1608  003EBE  17A8               	andwf	??_convertirASCII& (0+255),f,b
  1609  003EC0  0E00               	movlw	0
  1610  003EC2  17A9               	andwf	(??_convertirASCII+1)& (0+255),f,b
  1611  003EC4  0E34               	movlw	low _conversion
  1612  003EC6  25A8               	addwf	??_convertirASCII& (0+255),w,b
  1613  003EC8  6ED9               	movwf	fsr2l,c
  1614  003ECA  0E01               	movlw	high _conversion
  1615  003ECC  21A9               	addwfc	(??_convertirASCII+1)& (0+255),w,b
  1616  003ECE  6EDA               	movwf	fsr2h,c
  1617  003ED0  0E18               	movlw	low _digitos
  1618  003ED2  2595               	addwf	_i& (0+255),w,b
  1619  003ED4  6EE1               	movwf	fsr1l,c
  1620  003ED6  0E01               	movlw	high _digitos
  1621  003ED8  2196               	addwfc	(_i+1)& (0+255),w,b
  1622  003EDA  6EE2               	movwf	fsr1h,c
  1623  003EDC  006F FF7F FFE7     	movff	indf2,indf1
  1624                           
  1625                           ;UART.c: 65:         digitos[1 + i] = conversion[(send_data[i2] >> 4) & 0x000F];
  1626  003EE2  90D8               	bcf	status,0,c
  1627  003EE4  343B               	rlcf	_i2^0,w,c
  1628  003EE6  6ED9               	movwf	fsr2l,c
  1629  003EE8  343C               	rlcf	(_i2+1)^0,w,c
  1630  003EEA  6EDA               	movwf	fsr2h,c
  1631  003EEC  0E70               	movlw	low _send_data
  1632  003EEE  26D9               	addwf	fsr2l,f,c
  1633  003EF0  0E00               	movlw	high _send_data
  1634  003EF2  22DA               	addwfc	fsr2h,f,c
  1635  003EF4  006F FF78  F0A8    	movff	postinc2,??_convertirASCII
  1636  003EFA  006F FF74  F0A9    	movff	postdec2,??_convertirASCII+1
  1637  003F00  0E04               	movlw	4
  1638  003F02  6FAA               	movwf	(??_convertirASCII+2)& (0+255),b
  1639  003F04                     u4755:
  1640  003F04  90D8               	bcf	status,0,c
  1641  003F06  33A9               	rrcf	(??_convertirASCII+1)& (0+255),f,b
  1642  003F08  33A8               	rrcf	??_convertirASCII& (0+255),f,b
  1643  003F0A  2FAA               	decfsz	(??_convertirASCII+2)& (0+255),f,b
  1644  003F0C  EF82  F01F         	goto	u4755
  1645  003F10  0E0F               	movlw	15
  1646  003F12  17A8               	andwf	??_convertirASCII& (0+255),f,b
  1647  003F14  0E00               	movlw	0
  1648  003F16  17A9               	andwf	(??_convertirASCII+1)& (0+255),f,b
  1649  003F18  0E34               	movlw	low _conversion
  1650  003F1A  25A8               	addwf	??_convertirASCII& (0+255),w,b
  1651  003F1C  6ED9               	movwf	fsr2l,c
  1652  003F1E  0E01               	movlw	high _conversion
  1653  003F20  21A9               	addwfc	(??_convertirASCII+1)& (0+255),w,b
  1654  003F22  6EDA               	movwf	fsr2h,c
  1655  003F24  0E19               	movlw	low (_digitos+1)
  1656  003F26  2595               	addwf	_i& (0+255),w,b
  1657  003F28  6EE1               	movwf	fsr1l,c
  1658  003F2A  0E01               	movlw	high (_digitos+1)
  1659  003F2C  2196               	addwfc	(_i+1)& (0+255),w,b
  1660  003F2E  6EE2               	movwf	fsr1h,c
  1661  003F30  006F FF7F FFE7     	movff	indf2,indf1
  1662                           
  1663                           ;UART.c: 66:         digitos[2 + i] = conversion[send_data[i2] & 0x000F];
  1664  003F36  90D8               	bcf	status,0,c
  1665  003F38  343B               	rlcf	_i2^0,w,c
  1666  003F3A  6ED9               	movwf	fsr2l,c
  1667  003F3C  343C               	rlcf	(_i2+1)^0,w,c
  1668  003F3E  6EDA               	movwf	fsr2h,c
  1669  003F40  0E70               	movlw	low _send_data
  1670  003F42  26D9               	addwf	fsr2l,f,c
  1671  003F44  0E00               	movlw	high _send_data
  1672  003F46  22DA               	addwfc	fsr2h,f,c
  1673  003F48  006F FF78  F0A8    	movff	postinc2,??_convertirASCII
  1674  003F4E  006F FF74  F0A9    	movff	postdec2,??_convertirASCII+1
  1675  003F54  0E0F               	movlw	15
  1676  003F56  17A8               	andwf	??_convertirASCII& (0+255),f,b
  1677  003F58  0E00               	movlw	0
  1678  003F5A  17A9               	andwf	(??_convertirASCII+1)& (0+255),f,b
  1679  003F5C  0E34               	movlw	low _conversion
  1680  003F5E  25A8               	addwf	??_convertirASCII& (0+255),w,b
  1681  003F60  6ED9               	movwf	fsr2l,c
  1682  003F62  0E01               	movlw	high _conversion
  1683  003F64  21A9               	addwfc	(??_convertirASCII+1)& (0+255),w,b
  1684  003F66  6EDA               	movwf	fsr2h,c
  1685  003F68  0E1A               	movlw	low (_digitos+2)
  1686  003F6A  2595               	addwf	_i& (0+255),w,b
  1687  003F6C  6EE1               	movwf	fsr1l,c
  1688  003F6E  0E01               	movlw	high (_digitos+2)
  1689  003F70  2196               	addwfc	(_i+1)& (0+255),w,b
  1690  003F72  6EE2               	movwf	fsr1h,c
  1691  003F74  006F FF7F FFE7     	movff	indf2,indf1
  1692  003F7A                     
  1693                           ; BSR set to: 0
  1694                           ;UART.c: 67:         i+=4;
  1695  003F7A  0E04               	movlw	4
  1696  003F7C  2795               	addwf	_i& (0+255),f,b
  1697  003F7E  0E00               	movlw	0
  1698  003F80  2396               	addwfc	(_i+1)& (0+255),f,b
  1699  003F82                     
  1700                           ; BSR set to: 0
  1701                           ;UART.c: 68:         i2++;
  1702  003F82  4A3B               	infsnz	_i2^0,f,c
  1703  003F84  2A3C               	incf	(_i2+1)^0,f,c
  1704  003F86                     
  1705                           ; BSR set to: 0
  1706                           ;UART.c: 69:         if (i ==16) {
  1707  003F86  0E10               	movlw	16
  1708  003F88  1995               	xorwf	_i& (0+255),w,b
  1709  003F8A  1196               	iorwf	(_i+1)& (0+255),w,b
  1710  003F8C  A4D8               	btfss	status,2,c
  1711  003F8E  EFCB  F01F         	goto	u4761
  1712  003F92  EFCD  F01F         	goto	u4760
  1713  003F96                     u4761:
  1714  003F96  EFDE  F01F         	goto	l1697
  1715  003F9A                     u4760:
  1716  003F9A                     
  1717                           ; BSR set to: 0
  1718                           ;UART.c: 70:             i2 = 0;
  1719  003F9A  0E00               	movlw	0
  1720  003F9C  6E3C               	movwf	(_i2+1)^0,c
  1721  003F9E  0E00               	movlw	0
  1722  003FA0  6E3B               	movwf	_i2^0,c
  1723                           
  1724                           ;UART.c: 71:             i = 0;
  1725  003FA2  0E00               	movlw	0
  1726  003FA4  6F96               	movwf	(_i+1)& (0+255),b
  1727  003FA6  0E00               	movlw	0
  1728  003FA8  6F95               	movwf	_i& (0+255),b
  1729                           
  1730                           ;UART.c: 72:             ascii = 0;
  1731  003FAA  0E00               	movlw	0
  1732  003FAC  6FA6               	movwf	_ascii& (0+255),b
  1733  003FAE                     
  1734                           ; BSR set to: 0
  1735                           ;UART.c: 73:             digito_ptr = digitos;
  1736  003FAE  0E18               	movlw	low _digitos
  1737  003FB0  6FF2               	movwf	_digito_ptr& (0+255),b
  1738  003FB2  0E01               	movlw	high _digitos
  1739  003FB4  6FF3               	movwf	(_digito_ptr+1)& (0+255),b
  1740  003FB6                     
  1741                           ; BSR set to: 0
  1742  003FB6  8CBC               	bsf	188,6,c	;volatile
  1743  003FB8                     
  1744                           ; BSR set to: 0
  1745                           ;UART.c: 75:             PIE3bits.U1TXIE = 1;
  1746  003FB8  0139               	movlb	57	; () banked
  1747  003FBA  8993               	bsf	147,4,b	;volatile
  1748  003FBC                     l1697:
  1749  003FBC  0012               	return		;funcret
  1750  003FBE                     __end_of_convertirASCII:
  1751                           	callstack 0
  1752                           
  1753 ;; *************** function _actualizarDir *****************
  1754 ;; Defined at:
  1755 ;;		line 33 in file "Joystick.c"
  1756 ;; Parameters:    Size  Location     Type
  1757 ;;		None
  1758 ;; Auto vars:     Size  Location     Type
  1759 ;;		None
  1760 ;; Return value:  Size  Location     Type
  1761 ;;                  1    wreg      void 
  1762 ;; Registers used:
  1763 ;;		wreg, status,2, status,0
  1764 ;; Tracked objects:
  1765 ;;		On entry : 0/0
  1766 ;;		On exit  : 0/0
  1767 ;;		Unchanged: 0/0
  1768 ;; Data sizes:     COMRAM   BANK0   BANK1   BANK2   BANK3   BANK4   BANK5   BANK6   BANK7   BANK8   BANK9  BANK10  BANK1
      +1  BANK12  BANK13  BANK14  BANK15  BANK16  BANK17  BANK18  BANK19  BANK20  BANK21  BANK22  BANK23  BANK24  BANK25  BANK2
      +6  BANK27  BANK28  BANK29  BANK30  BANK31
  1769 ;;      Params:         0       0       0       0       0       0       0       0       0       0       0       0       
      +0       0       0       0       0       0       0       0       0       0       0       0       0       0       0       
      +0       0       0       0       0       0
  1770 ;;      Locals:         0       0       0       0       0       0       0       0       0       0       0       0       
      +0       0       0       0       0       0       0       0       0       0       0       0       0       0       0       
      +0       0       0       0       0       0
  1771 ;;      Temps:          0       0       0       0       0       0       0       0       0       0       0       0       
      +0       0       0       0       0       0       0       0       0       0       0       0       0       0       0       
      +0       0       0       0       0       0
  1772 ;;      Totals:         0       0       0       0       0       0       0       0       0       0       0       0       
      +0       0       0       0       0       0       0       0       0       0       0       0       0       0       0       
      +0       0       0       0       0       0
  1773 ;;Total ram usage:        0 bytes
  1774 ;; Hardware stack levels used: 1
  1775 ;; Hardware stack levels required when called: 4
  1776 ;; This function calls:
  1777 ;;		Nothing
  1778 ;; This function is called by:
  1779 ;;		_main
  1780 ;; This function uses a non-reentrant model
  1781 ;;
  1782                           
  1783                           	psect	text2
  1784  0047E4                     __ptext2:
  1785                           	callstack 0
  1786  0047E4                     _actualizarDir:
  1787                           	callstack 26
  1788  0047E4                     
  1789                           ;Joystick.c: 38:     prevdir = dir;
  1790  0047E4  C056  F14D         	movff	_dir,_prevdir
  1791  0047E8  C057  F14E         	movff	_dir+1,_prevdir+1
  1792  0047EC                     
  1793                           ;Joystick.c: 39:     if (leidos[0] == 0x2E)dir = 0;
  1794  0047EC  0E2E               	movlw	46
  1795  0047EE  0100               	movlb	0	; () banked
  1796  0047F0  1980               	xorwf	_leidos& (0+255),w,b
  1797  0047F2  A4D8               	btfss	status,2,c
  1798  0047F4  EFFE  F023         	goto	u4721
  1799  0047F8  EF00  F024         	goto	u4720
  1800  0047FC                     u4721:
  1801  0047FC  EF04  F024         	goto	l5561
  1802  004800                     u4720:
  1803  004800                     
  1804                           ; BSR set to: 0
  1805  004800  0E00               	movlw	0
  1806  004802  6E57               	movwf	(_dir+1)^0,c
  1807  004804  0E00               	movlw	0
  1808  004806  6E56               	movwf	_dir^0,c
  1809  004808                     l5561:
  1810                           
  1811                           ; BSR set to: 0
  1812                           ;Joystick.c: 40:     if (leidos[0] == 0x2D) dir = -1;
  1813  004808  0E2D               	movlw	45
  1814  00480A  1980               	xorwf	_leidos& (0+255),w,b
  1815  00480C  A4D8               	btfss	status,2,c
  1816  00480E  EF0B  F024         	goto	u4731
  1817  004812  EF0D  F024         	goto	u4730
  1818  004816                     u4731:
  1819  004816  EF0F  F024         	goto	l5565
  1820  00481A                     u4730:
  1821  00481A                     
  1822                           ; BSR set to: 0
  1823  00481A  6856               	setf	_dir^0,c
  1824  00481C  6857               	setf	(_dir+1)^0,c
  1825  00481E                     l5565:
  1826                           
  1827                           ; BSR set to: 0
  1828                           ;Joystick.c: 41:     if (leidos[0] == 0x2B) dir = 1;
  1829  00481E  0E2B               	movlw	43
  1830  004820  1980               	xorwf	_leidos& (0+255),w,b
  1831  004822  A4D8               	btfss	status,2,c
  1832  004824  EF16  F024         	goto	u4741
  1833  004828  EF18  F024         	goto	u4740
  1834  00482C                     u4741:
  1835  00482C  EF1C  F024         	goto	l1604
  1836  004830                     u4740:
  1837  004830                     
  1838                           ; BSR set to: 0
  1839  004830  0E00               	movlw	0
  1840  004832  6E57               	movwf	(_dir+1)^0,c
  1841  004834  0E01               	movlw	1
  1842  004836  6E56               	movwf	_dir^0,c
  1843  004838                     l1604:
  1844                           
  1845                           ; BSR set to: 0
  1846  004838  0012               	return		;funcret
  1847  00483A                     __end_of_actualizarDir:
  1848                           	callstack 0
  1849                           
  1850 ;; *************** function ___xxtofl *****************
  1851 ;; Defined at:
  1852 ;;		line 10 in file "C:\Program Files\Microchip\xc8\v2.36\pic\sources\c99\common\xxtofl.c"
  1853 ;; Parameters:    Size  Location     Type
  1854 ;;  sign            1    wreg     unsigned char 
  1855 ;;  val             4    0[BANK0 ] long 
  1856 ;; Auto vars:     Size  Location     Type
  1857 ;;  sign            1    8[BANK0 ] unsigned char 
  1858 ;;  arg             4   10[BANK0 ] unsigned long 
  1859 ;;  exp             1    9[BANK0 ] unsigned char 
  1860 ;; Return value:  Size  Location     Type
  1861 ;;                  4    0[BANK0 ] unsigned char 
  1862 ;; Registers used:
  1863 ;;		wreg, status,2, status,0
  1864 ;; Tracked objects:
  1865 ;;		On entry : 0/0
  1866 ;;		On exit  : 0/0
  1867 ;;		Unchanged: 0/0
  1868 ;; Data sizes:     COMRAM   BANK0   BANK1   BANK2   BANK3   BANK4   BANK5   BANK6   BANK7   BANK8   BANK9  BANK10  BANK1
      +1  BANK12  BANK13  BANK14  BANK15  BANK16  BANK17  BANK18  BANK19  BANK20  BANK21  BANK22  BANK23  BANK24  BANK25  BANK2
      +6  BANK27  BANK28  BANK29  BANK30  BANK31
  1869 ;;      Params:         0       4       0       0       0       0       0       0       0       0       0       0       
      +0       0       0       0       0       0       0       0       0       0       0       0       0       0       0       
      +0       0       0       0       0       0
  1870 ;;      Locals:         0       6       0       0       0       0       0       0       0       0       0       0       
      +0       0       0       0       0       0       0       0       0       0       0       0       0       0       0       
      +0       0       0       0       0       0
  1871 ;;      Temps:          0       4       0       0       0       0       0       0       0       0       0       0       
      +0       0       0       0       0       0       0       0       0       0       0       0       0       0       0       
      +0       0       0       0       0       0
  1872 ;;      Totals:         0      14       0       0       0       0       0       0       0       0       0       0       
      +0       0       0       0       0       0       0       0       0       0       0       0       0       0       0       
      +0       0       0       0       0       0
  1873 ;;Total ram usage:       14 bytes
  1874 ;; Hardware stack levels used: 1
  1875 ;; Hardware stack levels required when called: 4
  1876 ;; This function calls:
  1877 ;;		Nothing
  1878 ;; This function is called by:
  1879 ;;		_main
  1880 ;; This function uses a non-reentrant model
  1881 ;;
  1882                           
  1883                           	psect	text3
  1884  00380E                     __ptext3:
  1885                           	callstack 0
  1886  00380E                     ___xxtofl:
  1887                           	callstack 26
  1888                           
  1889                           ; BSR set to: 0
  1890                           ;incstack = 0
  1891                           ;___xxtofl@sign stored from wreg
  1892  00380E  0100               	movlb	0	; () banked
  1893  003810  6FB0               	movwf	___xxtofl@sign& (0+255),b
  1894  003812  0100               	movlb	0	; () banked
  1895  003814  51B0               	movf	___xxtofl@sign& (0+255),w,b
  1896  003816  B4D8               	btfsc	status,2,c
  1897  003818  EF10  F01C         	goto	u5261
  1898  00381C  EF12  F01C         	goto	u5260
  1899  003820                     u5261:
  1900  003820  EF34  F01C         	goto	l2355
  1901  003824                     u5260:
  1902  003824                     
  1903                           ; BSR set to: 0
  1904  003824  BFAB               	btfsc	(___xxtofl@val+3)& (0+255),7,b
  1905  003826  EF19  F01C         	goto	u5270
  1906  00382A  EF17  F01C         	goto	u5271
  1907  00382E                     u5271:
  1908  00382E  EF34  F01C         	goto	l2355
  1909  003832                     u5270:
  1910  003832                     
  1911                           ; BSR set to: 0
  1912  003832  C0A8  F0AC         	movff	___xxtofl@val,??___xxtofl
  1913  003836  C0A9  F0AD         	movff	___xxtofl@val+1,??___xxtofl+1
  1914  00383A  C0AA  F0AE         	movff	___xxtofl@val+2,??___xxtofl+2
  1915  00383E  C0AB  F0AF         	movff	___xxtofl@val+3,??___xxtofl+3
  1916  003842  1FAC               	comf	??___xxtofl& (0+255),f,b
  1917  003844  1FAD               	comf	(??___xxtofl+1)& (0+255),f,b
  1918  003846  1FAE               	comf	(??___xxtofl+2)& (0+255),f,b
  1919  003848  1FAF               	comf	(??___xxtofl+3)& (0+255),f,b
  1920  00384A  2BAC               	incf	??___xxtofl& (0+255),f,b
  1921  00384C  0E00               	movlw	0
  1922  00384E  23AD               	addwfc	(??___xxtofl+1)& (0+255),f,b
  1923  003850  23AE               	addwfc	(??___xxtofl+2)& (0+255),f,b
  1924  003852  23AF               	addwfc	(??___xxtofl+3)& (0+255),f,b
  1925  003854  C0AC  F0B2         	movff	??___xxtofl,___xxtofl@arg
  1926  003858  C0AD  F0B3         	movff	??___xxtofl+1,___xxtofl@arg+1
  1927  00385C  C0AE  F0B4         	movff	??___xxtofl+2,___xxtofl@arg+2
  1928  003860  C0AF  F0B5         	movff	??___xxtofl+3,___xxtofl@arg+3
  1929  003864  EF3C  F01C         	goto	l5903
  1930  003868                     l2355:
  1931                           
  1932                           ; BSR set to: 0
  1933  003868  C0A8  F0B2         	movff	___xxtofl@val,___xxtofl@arg
  1934  00386C  C0A9  F0B3         	movff	___xxtofl@val+1,___xxtofl@arg+1
  1935  003870  C0AA  F0B4         	movff	___xxtofl@val+2,___xxtofl@arg+2
  1936  003874  C0AB  F0B5         	movff	___xxtofl@val+3,___xxtofl@arg+3
  1937  003878                     l5903:
  1938                           
  1939                           ; BSR set to: 0
  1940  003878  51A8               	movf	___xxtofl@val& (0+255),w,b
  1941  00387A  11A9               	iorwf	(___xxtofl@val+1)& (0+255),w,b
  1942  00387C  11AA               	iorwf	(___xxtofl@val+2)& (0+255),w,b
  1943  00387E  11AB               	iorwf	(___xxtofl@val+3)& (0+255),w,b
  1944  003880  A4D8               	btfss	status,2,c
  1945  003882  EF45  F01C         	goto	u5281
  1946  003886  EF47  F01C         	goto	u5280
  1947  00388A                     u5281:
  1948  00388A  EF51  F01C         	goto	l5909
  1949  00388E                     u5280:
  1950  00388E                     
  1951                           ; BSR set to: 0
  1952  00388E  0E00               	movlw	0
  1953  003890  6FA8               	movwf	?___xxtofl& (0+255),b
  1954  003892  0E00               	movlw	0
  1955  003894  6FA9               	movwf	(?___xxtofl+1)& (0+255),b
  1956  003896  0E00               	movlw	0
  1957  003898  6FAA               	movwf	(?___xxtofl+2)& (0+255),b
  1958  00389A  0E00               	movlw	0
  1959  00389C  6FAB               	movwf	(?___xxtofl+3)& (0+255),b
  1960  00389E  EFE2  F01C         	goto	l2358
  1961  0038A2                     l5909:
  1962                           
  1963                           ; BSR set to: 0
  1964  0038A2  0E96               	movlw	150
  1965  0038A4  6FB1               	movwf	___xxtofl@exp& (0+255),b
  1966  0038A6  EF5B  F01C         	goto	l5913
  1967  0038AA                     l5911:
  1968                           
  1969                           ; BSR set to: 0
  1970  0038AA  2BB1               	incf	___xxtofl@exp& (0+255),f,b
  1971  0038AC  90D8               	bcf	status,0,c
  1972  0038AE  33B5               	rrcf	(___xxtofl@arg+3)& (0+255),f,b
  1973  0038B0  33B4               	rrcf	(___xxtofl@arg+2)& (0+255),f,b
  1974  0038B2  33B3               	rrcf	(___xxtofl@arg+1)& (0+255),f,b
  1975  0038B4  33B2               	rrcf	___xxtofl@arg& (0+255),f,b
  1976  0038B6                     l5913:
  1977                           
  1978                           ; BSR set to: 0
  1979  0038B6  0E00               	movlw	0
  1980  0038B8  15B2               	andwf	___xxtofl@arg& (0+255),w,b
  1981  0038BA  6FAC               	movwf	??___xxtofl& (0+255),b
  1982  0038BC  0E00               	movlw	0
  1983  0038BE  15B3               	andwf	(___xxtofl@arg+1)& (0+255),w,b
  1984  0038C0  6FAD               	movwf	(??___xxtofl+1)& (0+255),b
  1985  0038C2  0E00               	movlw	0
  1986  0038C4  15B4               	andwf	(___xxtofl@arg+2)& (0+255),w,b
  1987  0038C6  6FAE               	movwf	(??___xxtofl+2)& (0+255),b
  1988  0038C8  0EFE               	movlw	254
  1989  0038CA  15B5               	andwf	(___xxtofl@arg+3)& (0+255),w,b
  1990  0038CC  6FAF               	movwf	(??___xxtofl+3)& (0+255),b
  1991  0038CE  51AC               	movf	??___xxtofl& (0+255),w,b
  1992  0038D0  11AD               	iorwf	(??___xxtofl+1)& (0+255),w,b
  1993  0038D2  11AE               	iorwf	(??___xxtofl+2)& (0+255),w,b
  1994  0038D4  11AF               	iorwf	(??___xxtofl+3)& (0+255),w,b
  1995  0038D6  A4D8               	btfss	status,2,c
  1996  0038D8  EF70  F01C         	goto	u5291
  1997  0038DC  EF72  F01C         	goto	u5290
  1998  0038E0                     u5291:
  1999  0038E0  EF55  F01C         	goto	l5911
  2000  0038E4                     u5290:
  2001  0038E4  EF80  F01C         	goto	l2362
  2002  0038E8                     l5915:
  2003                           
  2004                           ; BSR set to: 0
  2005  0038E8  2BB1               	incf	___xxtofl@exp& (0+255),f,b
  2006  0038EA                     
  2007                           ; BSR set to: 0
  2008  0038EA  0E01               	movlw	1
  2009  0038EC  27B2               	addwf	___xxtofl@arg& (0+255),f,b
  2010  0038EE  0E00               	movlw	0
  2011  0038F0  23B3               	addwfc	(___xxtofl@arg+1)& (0+255),f,b
  2012  0038F2  23B4               	addwfc	(___xxtofl@arg+2)& (0+255),f,b
  2013  0038F4  23B5               	addwfc	(___xxtofl@arg+3)& (0+255),f,b
  2014  0038F6                     
  2015                           ; BSR set to: 0
  2016  0038F6  90D8               	bcf	status,0,c
  2017  0038F8  33B5               	rrcf	(___xxtofl@arg+3)& (0+255),f,b
  2018  0038FA  33B4               	rrcf	(___xxtofl@arg+2)& (0+255),f,b
  2019  0038FC  33B3               	rrcf	(___xxtofl@arg+1)& (0+255),f,b
  2020  0038FE  33B2               	rrcf	___xxtofl@arg& (0+255),f,b
  2021  003900                     l2362:
  2022                           
  2023                           ; BSR set to: 0
  2024  003900  0E00               	movlw	0
  2025  003902  15B2               	andwf	___xxtofl@arg& (0+255),w,b
  2026  003904  6FAC               	movwf	??___xxtofl& (0+255),b
  2027  003906  0E00               	movlw	0
  2028  003908  15B3               	andwf	(___xxtofl@arg+1)& (0+255),w,b
  2029  00390A  6FAD               	movwf	(??___xxtofl+1)& (0+255),b
  2030  00390C  0E00               	movlw	0
  2031  00390E  15B4               	andwf	(___xxtofl@arg+2)& (0+255),w,b
  2032  003910  6FAE               	movwf	(??___xxtofl+2)& (0+255),b
  2033  003912  0EFF               	movlw	255
  2034  003914  15B5               	andwf	(___xxtofl@arg+3)& (0+255),w,b
  2035  003916  6FAF               	movwf	(??___xxtofl+3)& (0+255),b
  2036  003918  51AC               	movf	??___xxtofl& (0+255),w,b
  2037  00391A  11AD               	iorwf	(??___xxtofl+1)& (0+255),w,b
  2038  00391C  11AE               	iorwf	(??___xxtofl+2)& (0+255),w,b
  2039  00391E  11AF               	iorwf	(??___xxtofl+3)& (0+255),w,b
  2040  003920  A4D8               	btfss	status,2,c
  2041  003922  EF95  F01C         	goto	u5301
  2042  003926  EF97  F01C         	goto	u5300
  2043  00392A                     u5301:
  2044  00392A  EF74  F01C         	goto	l5915
  2045  00392E                     u5300:
  2046  00392E  EF9F  F01C         	goto	l5923
  2047  003932                     l5921:
  2048                           
  2049                           ; BSR set to: 0
  2050  003932  07B1               	decf	___xxtofl@exp& (0+255),f,b
  2051  003934  90D8               	bcf	status,0,c
  2052  003936  37B2               	rlcf	___xxtofl@arg& (0+255),f,b
  2053  003938  37B3               	rlcf	(___xxtofl@arg+1)& (0+255),f,b
  2054  00393A  37B4               	rlcf	(___xxtofl@arg+2)& (0+255),f,b
  2055  00393C  37B5               	rlcf	(___xxtofl@arg+3)& (0+255),f,b
  2056  00393E                     l5923:
  2057                           
  2058                           ; BSR set to: 0
  2059  00393E  BFB4               	btfsc	(___xxtofl@arg+2)& (0+255),7,b
  2060  003940  EFA4  F01C         	goto	u5311
  2061  003944  EFA6  F01C         	goto	u5310
  2062  003948                     u5311:
  2063  003948  EFAE  F01C         	goto	l2369
  2064  00394C                     u5310:
  2065  00394C                     
  2066                           ; BSR set to: 0
  2067  00394C  0E02               	movlw	2
  2068  00394E  61B1               	cpfslt	___xxtofl@exp& (0+255),b
  2069  003950  EFAC  F01C         	goto	u5321
  2070  003954  EFAE  F01C         	goto	u5320
  2071  003958                     u5321:
  2072  003958  EF99  F01C         	goto	l5921
  2073  00395C                     u5320:
  2074  00395C                     l2369:
  2075                           
  2076                           ; BSR set to: 0
  2077  00395C  B1B1               	btfsc	___xxtofl@exp& (0+255),0,b
  2078  00395E  EFB3  F01C         	goto	u5331
  2079  003962  EFB5  F01C         	goto	u5330
  2080  003966                     u5331:
  2081  003966  EFB6  F01C         	goto	l5929
  2082  00396A                     u5330:
  2083  00396A                     
  2084                           ; BSR set to: 0
  2085  00396A  9FB4               	bcf	(___xxtofl@arg+2)& (0+255),7,b
  2086  00396C                     l5929:
  2087                           
  2088                           ; BSR set to: 0
  2089  00396C  90D8               	bcf	status,0,c
  2090  00396E  33B1               	rrcf	___xxtofl@exp& (0+255),f,b
  2091  003970                     
  2092                           ; BSR set to: 0
  2093  003970  C0B1  F0AC         	movff	___xxtofl@exp,??___xxtofl
  2094  003974  6BAD               	clrf	(??___xxtofl+1)& (0+255),b
  2095  003976  6BAE               	clrf	(??___xxtofl+2)& (0+255),b
  2096  003978  6BAF               	clrf	(??___xxtofl+3)& (0+255),b
  2097  00397A  C0AC  F0AF         	movff	??___xxtofl,??___xxtofl+3
  2098  00397E  6BAE               	clrf	(??___xxtofl+2)& (0+255),b
  2099  003980  6BAD               	clrf	(??___xxtofl+1)& (0+255),b
  2100  003982  6BAC               	clrf	??___xxtofl& (0+255),b
  2101  003984  51AC               	movf	??___xxtofl& (0+255),w,b
  2102  003986  13B2               	iorwf	___xxtofl@arg& (0+255),f,b
  2103  003988  51AD               	movf	(??___xxtofl+1)& (0+255),w,b
  2104  00398A  13B3               	iorwf	(___xxtofl@arg+1)& (0+255),f,b
  2105  00398C  51AE               	movf	(??___xxtofl+2)& (0+255),w,b
  2106  00398E  13B4               	iorwf	(___xxtofl@arg+2)& (0+255),f,b
  2107  003990  51AF               	movf	(??___xxtofl+3)& (0+255),w,b
  2108  003992  13B5               	iorwf	(___xxtofl@arg+3)& (0+255),f,b
  2109  003994                     
  2110                           ; BSR set to: 0
  2111  003994  51B0               	movf	___xxtofl@sign& (0+255),w,b
  2112  003996  B4D8               	btfsc	status,2,c
  2113  003998  EFD0  F01C         	goto	u5341
  2114  00399C  EFD2  F01C         	goto	u5340
  2115  0039A0                     u5341:
  2116  0039A0  EFDA  F01C         	goto	l5939
  2117  0039A4                     u5340:
  2118  0039A4                     
  2119                           ; BSR set to: 0
  2120  0039A4  BFAB               	btfsc	(___xxtofl@val+3)& (0+255),7,b
  2121  0039A6  EFD9  F01C         	goto	u5350
  2122  0039AA  EFD7  F01C         	goto	u5351
  2123  0039AE                     u5351:
  2124  0039AE  EFDA  F01C         	goto	l5939
  2125  0039B2                     u5350:
  2126  0039B2                     
  2127                           ; BSR set to: 0
  2128  0039B2  8FB5               	bsf	(___xxtofl@arg+3)& (0+255),7,b
  2129  0039B4                     l5939:
  2130                           
  2131                           ; BSR set to: 0
  2132  0039B4  C0B2  F0A8         	movff	___xxtofl@arg,?___xxtofl
  2133  0039B8  C0B3  F0A9         	movff	___xxtofl@arg+1,?___xxtofl+1
  2134  0039BC  C0B4  F0AA         	movff	___xxtofl@arg+2,?___xxtofl+2
  2135  0039C0  C0B5  F0AB         	movff	___xxtofl@arg+3,?___xxtofl+3
  2136  0039C4                     l2358:
  2137                           
  2138                           ; BSR set to: 0
  2139  0039C4  0012               	return		;funcret
  2140  0039C6                     __end_of___xxtofl:
  2141                           	callstack 0
  2142                           
  2143 ;; *************** function ___fltol *****************
  2144 ;; Defined at:
  2145 ;;		line 43 in file "C:\Program Files\Microchip\xc8\v2.36\pic\sources\c99\common\fltol.c"
  2146 ;; Parameters:    Size  Location     Type
  2147 ;;  f1              4   39[BANK0 ] unsigned char 
  2148 ;; Auto vars:     Size  Location     Type
  2149 ;;  exp1            1   48[BANK0 ] unsigned char 
  2150 ;;  sign1           1   47[BANK0 ] unsigned char 
  2151 ;; Return value:  Size  Location     Type
  2152 ;;                  4   39[BANK0 ] long 
  2153 ;; Registers used:
  2154 ;;		wreg, status,2, status,0
  2155 ;; Tracked objects:
  2156 ;;		On entry : 0/0
  2157 ;;		On exit  : 0/0
  2158 ;;		Unchanged: 0/0
  2159 ;; Data sizes:     COMRAM   BANK0   BANK1   BANK2   BANK3   BANK4   BANK5   BANK6   BANK7   BANK8   BANK9  BANK10  BANK1
      +1  BANK12  BANK13  BANK14  BANK15  BANK16  BANK17  BANK18  BANK19  BANK20  BANK21  BANK22  BANK23  BANK24  BANK25  BANK2
      +6  BANK27  BANK28  BANK29  BANK30  BANK31
  2160 ;;      Params:         0       4       0       0       0       0       0       0       0       0       0       0       
      +0       0       0       0       0       0       0       0       0       0       0       0       0       0       0       
      +0       0       0       0       0       0
  2161 ;;      Locals:         0       2       0       0       0       0       0       0       0       0       0       0       
      +0       0       0       0       0       0       0       0       0       0       0       0       0       0       0       
      +0       0       0       0       0       0
  2162 ;;      Temps:          0       4       0       0       0       0       0       0       0       0       0       0       
      +0       0       0       0       0       0       0       0       0       0       0       0       0       0       0       
      +0       0       0       0       0       0
  2163 ;;      Totals:         0      10       0       0       0       0       0       0       0       0       0       0       
      +0       0       0       0       0       0       0       0       0       0       0       0       0       0       0       
      +0       0       0       0       0       0
  2164 ;;Total ram usage:       10 bytes
  2165 ;; Hardware stack levels used: 1
  2166 ;; Hardware stack levels required when called: 4
  2167 ;; This function calls:
  2168 ;;		Nothing
  2169 ;; This function is called by:
  2170 ;;		_main
  2171 ;; This function uses a non-reentrant model
  2172 ;;
  2173                           
  2174                           	psect	text4
  2175  0041F6                     __ptext4:
  2176                           	callstack 0
  2177  0041F6                     ___fltol:
  2178                           	callstack 26
  2179  0041F6  0100               	movlb	0	; () banked
  2180  0041F8  35D1               	rlcf	(___fltol@f1+2)& (0+255),w,b
  2181  0041FA  35D2               	rlcf	(___fltol@f1+3)& (0+255),w,b
  2182  0041FC  6FD8               	movwf	___fltol@exp1& (0+255),b
  2183  0041FE  51D8               	movf	___fltol@exp1& (0+255),w,b
  2184  004200  A4D8               	btfss	status,2,c
  2185  004202  EF05  F021         	goto	u5191
  2186  004206  EF07  F021         	goto	u5190
  2187  00420A                     u5191:
  2188  00420A  EF11  F021         	goto	l5859
  2189  00420E                     u5190:
  2190  00420E                     l5855:
  2191                           
  2192                           ; BSR set to: 0
  2193  00420E  0E00               	movlw	0
  2194  004210  6FCF               	movwf	?___fltol& (0+255),b
  2195  004212  0E00               	movlw	0
  2196  004214  6FD0               	movwf	(?___fltol+1)& (0+255),b
  2197  004216  0E00               	movlw	0
  2198  004218  6FD1               	movwf	(?___fltol+2)& (0+255),b
  2199  00421A  0E00               	movlw	0
  2200  00421C  6FD2               	movwf	(?___fltol+3)& (0+255),b
  2201  00421E  EF7E  F021         	goto	l1997
  2202  004222                     l5859:
  2203                           
  2204                           ; BSR set to: 0
  2205  004222  C0CF  F0D3         	movff	___fltol@f1,??___fltol
  2206  004226  C0D0  F0D4         	movff	___fltol@f1+1,??___fltol+1
  2207  00422A  C0D1  F0D5         	movff	___fltol@f1+2,??___fltol+2
  2208  00422E  C0D2  F0D6         	movff	___fltol@f1+3,??___fltol+3
  2209  004232  0E20               	movlw	32
  2210  004234  EF21  F021         	goto	u5200
  2211  004238                     u5205:
  2212  004238  90D8               	bcf	status,0,c
  2213  00423A  33D6               	rrcf	(??___fltol+3)& (0+255),f,b
  2214  00423C  33D5               	rrcf	(??___fltol+2)& (0+255),f,b
  2215  00423E  33D4               	rrcf	(??___fltol+1)& (0+255),f,b
  2216  004240  33D3               	rrcf	??___fltol& (0+255),f,b
  2217  004242                     u5200:
  2218  004242  2EE8               	decfsz	wreg,f,c
  2219  004244  EF1C  F021         	goto	u5205
  2220  004248  51D3               	movf	??___fltol& (0+255),w,b
  2221  00424A  6FD7               	movwf	___fltol@sign1& (0+255),b
  2222  00424C                     
  2223                           ; BSR set to: 0
  2224  00424C  8FD1               	bsf	(___fltol@f1+2)& (0+255),7,b
  2225  00424E                     
  2226                           ; BSR set to: 0
  2227  00424E  0EFF               	movlw	255
  2228  004250  17CF               	andwf	___fltol@f1& (0+255),f,b
  2229  004252  0EFF               	movlw	255
  2230  004254  17D0               	andwf	(___fltol@f1+1)& (0+255),f,b
  2231  004256  0EFF               	movlw	255
  2232  004258  17D1               	andwf	(___fltol@f1+2)& (0+255),f,b
  2233  00425A  0E00               	movlw	0
  2234  00425C  17D2               	andwf	(___fltol@f1+3)& (0+255),f,b
  2235  00425E                     
  2236                           ; BSR set to: 0
  2237  00425E  0E96               	movlw	150
  2238  004260  5FD8               	subwf	___fltol@exp1& (0+255),f,b
  2239  004262                     
  2240                           ; BSR set to: 0
  2241  004262  BFD8               	btfsc	___fltol@exp1& (0+255),7,b
  2242  004264  EF38  F021         	goto	u5210
  2243  004268  EF36  F021         	goto	u5211
  2244  00426C                     u5211:
  2245  00426C  EF4E  F021         	goto	l5879
  2246  004270                     u5210:
  2247  004270                     
  2248                           ; BSR set to: 0
  2249  004270  51D8               	movf	___fltol@exp1& (0+255),w,b
  2250  004272  0A80               	xorlw	128
  2251  004274  0F97               	addlw	151
  2252  004276  B0D8               	btfsc	status,0,c
  2253  004278  EF40  F021         	goto	u5221
  2254  00427C  EF42  F021         	goto	u5220
  2255  004280                     u5221:
  2256  004280  EF44  F021         	goto	l5875
  2257  004284                     u5220:
  2258  004284  EF07  F021         	goto	l5855
  2259  004288                     l5875:
  2260                           
  2261                           ; BSR set to: 0
  2262  004288  90D8               	bcf	status,0,c
  2263  00428A  33D2               	rrcf	(___fltol@f1+3)& (0+255),f,b
  2264  00428C  33D1               	rrcf	(___fltol@f1+2)& (0+255),f,b
  2265  00428E  33D0               	rrcf	(___fltol@f1+1)& (0+255),f,b
  2266  004290  33CF               	rrcf	___fltol@f1& (0+255),f,b
  2267  004292                     
  2268                           ; BSR set to: 0
  2269  004292  3FD8               	incfsz	___fltol@exp1& (0+255),f,b
  2270  004294  EF44  F021         	goto	l5875
  2271  004298  EF66  F021         	goto	l5889
  2272  00429C                     l5879:
  2273                           
  2274                           ; BSR set to: 0
  2275  00429C  0E1F               	movlw	31
  2276  00429E  65D8               	cpfsgt	___fltol@exp1& (0+255),b
  2277  0042A0  EF54  F021         	goto	u5231
  2278  0042A4  EF56  F021         	goto	u5230
  2279  0042A8                     u5231:
  2280  0042A8  EF5E  F021         	goto	l5887
  2281  0042AC                     u5230:
  2282  0042AC  EF07  F021         	goto	l5855
  2283  0042B0                     l5885:
  2284                           
  2285                           ; BSR set to: 0
  2286  0042B0  90D8               	bcf	status,0,c
  2287  0042B2  37CF               	rlcf	___fltol@f1& (0+255),f,b
  2288  0042B4  37D0               	rlcf	(___fltol@f1+1)& (0+255),f,b
  2289  0042B6  37D1               	rlcf	(___fltol@f1+2)& (0+255),f,b
  2290  0042B8  37D2               	rlcf	(___fltol@f1+3)& (0+255),f,b
  2291  0042BA  07D8               	decf	___fltol@exp1& (0+255),f,b
  2292  0042BC                     l5887:
  2293                           
  2294                           ; BSR set to: 0
  2295  0042BC  51D8               	movf	___fltol@exp1& (0+255),w,b
  2296  0042BE  A4D8               	btfss	status,2,c
  2297  0042C0  EF64  F021         	goto	u5241
  2298  0042C4  EF66  F021         	goto	u5240
  2299  0042C8                     u5241:
  2300  0042C8  EF58  F021         	goto	l5885
  2301  0042CC                     u5240:
  2302  0042CC                     l5889:
  2303                           
  2304                           ; BSR set to: 0
  2305  0042CC  51D7               	movf	___fltol@sign1& (0+255),w,b
  2306  0042CE  B4D8               	btfsc	status,2,c
  2307  0042D0  EF6C  F021         	goto	u5251
  2308  0042D4  EF6E  F021         	goto	u5250
  2309  0042D8                     u5251:
  2310  0042D8  EF76  F021         	goto	l5893
  2311  0042DC                     u5250:
  2312  0042DC                     
  2313                           ; BSR set to: 0
  2314  0042DC  1FD2               	comf	(___fltol@f1+3)& (0+255),f,b
  2315  0042DE  1FD1               	comf	(___fltol@f1+2)& (0+255),f,b
  2316  0042E0  1FD0               	comf	(___fltol@f1+1)& (0+255),f,b
  2317  0042E2  6DCF               	negf	___fltol@f1& (0+255),b
  2318  0042E4  0E00               	movlw	0
  2319  0042E6  23D0               	addwfc	(___fltol@f1+1)& (0+255),f,b
  2320  0042E8  23D1               	addwfc	(___fltol@f1+2)& (0+255),f,b
  2321  0042EA  23D2               	addwfc	(___fltol@f1+3)& (0+255),f,b
  2322  0042EC                     l5893:
  2323                           
  2324                           ; BSR set to: 0
  2325  0042EC  C0CF  F0CF         	movff	___fltol@f1,?___fltol
  2326  0042F0  C0D0  F0D0         	movff	___fltol@f1+1,?___fltol+1
  2327  0042F4  C0D1  F0D1         	movff	___fltol@f1+2,?___fltol+2
  2328  0042F8  C0D2  F0D2         	movff	___fltol@f1+3,?___fltol+3
  2329  0042FC                     l1997:
  2330                           
  2331                           ; BSR set to: 0
  2332  0042FC  0012               	return		;funcret
  2333  0042FE                     __end_of___fltol:
  2334                           	callstack 0
  2335                           
  2336 ;; *************** function ___flmul *****************
  2337 ;; Defined at:
  2338 ;;		line 8 in file "C:\Program Files\Microchip\xc8\v2.36\pic\sources\c99\common\sprcmul.c"
  2339 ;; Parameters:    Size  Location     Type
  2340 ;;  b               4   14[BANK0 ] long 
  2341 ;;  a               4   18[BANK0 ] long 
  2342 ;; Auto vars:     Size  Location     Type
  2343 ;;  prod            4   33[BANK0 ] struct .
  2344 ;;  grs             4   27[BANK0 ] unsigned long 
  2345 ;;  temp            2   37[BANK0 ] struct .
  2346 ;;  bexp            1   32[BANK0 ] unsigned char 
  2347 ;;  aexp            1   31[BANK0 ] unsigned char 
  2348 ;;  sign            1   26[BANK0 ] unsigned char 
  2349 ;; Return value:  Size  Location     Type
  2350 ;;                  4   14[BANK0 ] unsigned char 
  2351 ;; Registers used:
  2352 ;;		wreg, status,2, status,0, prodl, prodh
  2353 ;; Tracked objects:
  2354 ;;		On entry : 0/0
  2355 ;;		On exit  : 0/0
  2356 ;;		Unchanged: 0/0
  2357 ;; Data sizes:     COMRAM   BANK0   BANK1   BANK2   BANK3   BANK4   BANK5   BANK6   BANK7   BANK8   BANK9  BANK10  BANK1
      +1  BANK12  BANK13  BANK14  BANK15  BANK16  BANK17  BANK18  BANK19  BANK20  BANK21  BANK22  BANK23  BANK24  BANK25  BANK2
      +6  BANK27  BANK28  BANK29  BANK30  BANK31
  2358 ;;      Params:         0       8       0       0       0       0       0       0       0       0       0       0       
      +0       0       0       0       0       0       0       0       0       0       0       0       0       0       0       
      +0       0       0       0       0       0
  2359 ;;      Locals:         0      13       0       0       0       0       0       0       0       0       0       0       
      +0       0       0       0       0       0       0       0       0       0       0       0       0       0       0       
      +0       0       0       0       0       0
  2360 ;;      Temps:          0       4       0       0       0       0       0       0       0       0       0       0       
      +0       0       0       0       0       0       0       0       0       0       0       0       0       0       0       
      +0       0       0       0       0       0
  2361 ;;      Totals:         0      25       0       0       0       0       0       0       0       0       0       0       
      +0       0       0       0       0       0       0       0       0       0       0       0       0       0       0       
      +0       0       0       0       0       0
  2362 ;;Total ram usage:       25 bytes
  2363 ;; Hardware stack levels used: 1
  2364 ;; Hardware stack levels required when called: 4
  2365 ;; This function calls:
  2366 ;;		Nothing
  2367 ;; This function is called by:
  2368 ;;		_main
  2369 ;; This function uses a non-reentrant model
  2370 ;;
  2371                           
  2372                           	psect	text5
  2373  002008                     __ptext5:
  2374                           	callstack 0
  2375  002008                     ___flmul:
  2376                           	callstack 26
  2377  002008  0100               	movlb	0	; () banked
  2378  00200A  51B9               	movf	(___flmul@b+3)& (0+255),w,b
  2379  00200C  0B80               	andlw	128
  2380  00200E  6FC2               	movwf	___flmul@sign& (0+255),b
  2381  002010  51B9               	movf	(___flmul@b+3)& (0+255),w,b
  2382  002012  25B9               	addwf	(___flmul@b+3)& (0+255),w,b
  2383  002014  6FC8               	movwf	___flmul@bexp& (0+255),b
  2384  002016                     
  2385                           ; BSR set to: 0
  2386  002016  AFB8               	btfss	(___flmul@b+2)& (0+255),7,b
  2387  002018  EF10  F010         	goto	u5001
  2388  00201C  EF12  F010         	goto	u5000
  2389  002020                     u5001:
  2390  002020  EF13  F010         	goto	l5729
  2391  002024                     u5000:
  2392  002024                     
  2393                           ; BSR set to: 0
  2394  002024  81C8               	bsf	___flmul@bexp& (0+255),0,b
  2395  002026                     l5729:
  2396                           
  2397                           ; BSR set to: 0
  2398  002026  51C8               	movf	___flmul@bexp& (0+255),w,b
  2399  002028  B4D8               	btfsc	status,2,c
  2400  00202A  EF19  F010         	goto	u5011
  2401  00202E  EF1B  F010         	goto	u5010
  2402  002032                     u5011:
  2403  002032  EF2E  F010         	goto	l5737
  2404  002036                     u5010:
  2405  002036                     
  2406                           ; BSR set to: 0
  2407  002036  29C8               	incf	___flmul@bexp& (0+255),w,b
  2408  002038  A4D8               	btfss	status,2,c
  2409  00203A  EF21  F010         	goto	u5021
  2410  00203E  EF23  F010         	goto	u5020
  2411  002042                     u5021:
  2412  002042  EF2B  F010         	goto	l5735
  2413  002046                     u5020:
  2414  002046                     
  2415                           ; BSR set to: 0
  2416  002046  0E00               	movlw	0
  2417  002048  6FB6               	movwf	___flmul@b& (0+255),b
  2418  00204A  0E00               	movlw	0
  2419  00204C  6FB7               	movwf	(___flmul@b+1)& (0+255),b
  2420  00204E  0E00               	movlw	0
  2421  002050  6FB8               	movwf	(___flmul@b+2)& (0+255),b
  2422  002052  0E00               	movlw	0
  2423  002054  6FB9               	movwf	(___flmul@b+3)& (0+255),b
  2424  002056                     l5735:
  2425                           
  2426                           ; BSR set to: 0
  2427  002056  8FB8               	bsf	(___flmul@b+2)& (0+255),7,b
  2428  002058  EF36  F010         	goto	l5739
  2429  00205C                     l5737:
  2430                           
  2431                           ; BSR set to: 0
  2432  00205C  0E00               	movlw	0
  2433  00205E  6FB6               	movwf	___flmul@b& (0+255),b
  2434  002060  0E00               	movlw	0
  2435  002062  6FB7               	movwf	(___flmul@b+1)& (0+255),b
  2436  002064  0E00               	movlw	0
  2437  002066  6FB8               	movwf	(___flmul@b+2)& (0+255),b
  2438  002068  0E00               	movlw	0
  2439  00206A  6FB9               	movwf	(___flmul@b+3)& (0+255),b
  2440  00206C                     l5739:
  2441                           
  2442                           ; BSR set to: 0
  2443  00206C  51BD               	movf	(___flmul@a+3)& (0+255),w,b
  2444  00206E  0B80               	andlw	128
  2445  002070  1BC2               	xorwf	___flmul@sign& (0+255),f,b
  2446  002072                     
  2447                           ; BSR set to: 0
  2448  002072  51BD               	movf	(___flmul@a+3)& (0+255),w,b
  2449  002074  25BD               	addwf	(___flmul@a+3)& (0+255),w,b
  2450  002076  6FC7               	movwf	___flmul@aexp& (0+255),b
  2451  002078                     
  2452                           ; BSR set to: 0
  2453  002078  AFBC               	btfss	(___flmul@a+2)& (0+255),7,b
  2454  00207A  EF41  F010         	goto	u5031
  2455  00207E  EF43  F010         	goto	u5030
  2456  002082                     u5031:
  2457  002082  EF44  F010         	goto	l5747
  2458  002086                     u5030:
  2459  002086                     
  2460                           ; BSR set to: 0
  2461  002086  81C7               	bsf	___flmul@aexp& (0+255),0,b
  2462  002088                     l5747:
  2463                           
  2464                           ; BSR set to: 0
  2465  002088  51C7               	movf	___flmul@aexp& (0+255),w,b
  2466  00208A  B4D8               	btfsc	status,2,c
  2467  00208C  EF4A  F010         	goto	u5041
  2468  002090  EF4C  F010         	goto	u5040
  2469  002094                     u5041:
  2470  002094  EF5F  F010         	goto	l5755
  2471  002098                     u5040:
  2472  002098                     
  2473                           ; BSR set to: 0
  2474  002098  29C7               	incf	___flmul@aexp& (0+255),w,b
  2475  00209A  A4D8               	btfss	status,2,c
  2476  00209C  EF52  F010         	goto	u5051
  2477  0020A0  EF54  F010         	goto	u5050
  2478  0020A4                     u5051:
  2479  0020A4  EF5C  F010         	goto	l5753
  2480  0020A8                     u5050:
  2481  0020A8                     
  2482                           ; BSR set to: 0
  2483  0020A8  0E00               	movlw	0
  2484  0020AA  6FBA               	movwf	___flmul@a& (0+255),b
  2485  0020AC  0E00               	movlw	0
  2486  0020AE  6FBB               	movwf	(___flmul@a+1)& (0+255),b
  2487  0020B0  0E00               	movlw	0
  2488  0020B2  6FBC               	movwf	(___flmul@a+2)& (0+255),b
  2489  0020B4  0E00               	movlw	0
  2490  0020B6  6FBD               	movwf	(___flmul@a+3)& (0+255),b
  2491  0020B8                     l5753:
  2492                           
  2493                           ; BSR set to: 0
  2494  0020B8  8FBC               	bsf	(___flmul@a+2)& (0+255),7,b
  2495  0020BA  EF67  F010         	goto	l2314
  2496  0020BE                     l5755:
  2497                           
  2498                           ; BSR set to: 0
  2499  0020BE  0E00               	movlw	0
  2500  0020C0  6FBA               	movwf	___flmul@a& (0+255),b
  2501  0020C2  0E00               	movlw	0
  2502  0020C4  6FBB               	movwf	(___flmul@a+1)& (0+255),b
  2503  0020C6  0E00               	movlw	0
  2504  0020C8  6FBC               	movwf	(___flmul@a+2)& (0+255),b
  2505  0020CA  0E00               	movlw	0
  2506  0020CC  6FBD               	movwf	(___flmul@a+3)& (0+255),b
  2507  0020CE                     l2314:
  2508                           
  2509                           ; BSR set to: 0
  2510  0020CE  51C7               	movf	___flmul@aexp& (0+255),w,b
  2511  0020D0  B4D8               	btfsc	status,2,c
  2512  0020D2  EF6D  F010         	goto	u5061
  2513  0020D6  EF6F  F010         	goto	u5060
  2514  0020DA                     u5061:
  2515  0020DA  EF77  F010         	goto	l5759
  2516  0020DE                     u5060:
  2517  0020DE                     
  2518                           ; BSR set to: 0
  2519  0020DE  51C8               	movf	___flmul@bexp& (0+255),w,b
  2520  0020E0  A4D8               	btfss	status,2,c
  2521  0020E2  EF75  F010         	goto	u5071
  2522  0020E6  EF77  F010         	goto	u5070
  2523  0020EA                     u5071:
  2524  0020EA  EF81  F010         	goto	l5763
  2525  0020EE                     u5070:
  2526  0020EE                     l5759:
  2527                           
  2528                           ; BSR set to: 0
  2529  0020EE  0E00               	movlw	0
  2530  0020F0  6FB6               	movwf	?___flmul& (0+255),b
  2531  0020F2  0E00               	movlw	0
  2532  0020F4  6FB7               	movwf	(?___flmul+1)& (0+255),b
  2533  0020F6  0E00               	movlw	0
  2534  0020F8  6FB8               	movwf	(?___flmul+2)& (0+255),b
  2535  0020FA  0E00               	movlw	0
  2536  0020FC  6FB9               	movwf	(?___flmul+3)& (0+255),b
  2537  0020FE  EF2B  F012         	goto	l2318
  2538  002102                     l5763:
  2539                           
  2540                           ; BSR set to: 0
  2541  002102  51BC               	movf	(___flmul@a+2)& (0+255),w,b
  2542  002104  03B6               	mulwf	___flmul@b& (0+255),b
  2543  002106  006F FFCC  F0CD    	movff	prodl,___flmul@temp
  2544  00210C  006F FFD0  F0CE    	movff	prodh,___flmul@temp+1
  2545  002112                     
  2546                           ; BSR set to: 0
  2547  002112  51CD               	movf	___flmul@temp& (0+255),w,b
  2548  002114  6FC3               	movwf	___flmul@grs& (0+255),b
  2549  002116  6BC4               	clrf	(___flmul@grs+1)& (0+255),b
  2550  002118  6BC5               	clrf	(___flmul@grs+2)& (0+255),b
  2551  00211A  6BC6               	clrf	(___flmul@grs+3)& (0+255),b
  2552  00211C                     
  2553                           ; BSR set to: 0
  2554  00211C  51CE               	movf	(___flmul@temp+1)& (0+255),w,b
  2555  00211E  6FC9               	movwf	___flmul@prod& (0+255),b
  2556  002120  6BCA               	clrf	(___flmul@prod+1)& (0+255),b
  2557  002122  6BCB               	clrf	(___flmul@prod+2)& (0+255),b
  2558  002124  6BCC               	clrf	(___flmul@prod+3)& (0+255),b
  2559  002126  51BB               	movf	(___flmul@a+1)& (0+255),w,b
  2560  002128  03B7               	mulwf	(___flmul@b+1)& (0+255),b
  2561  00212A  006F FFCC  F0CD    	movff	prodl,___flmul@temp
  2562  002130  006F FFD0  F0CE    	movff	prodh,___flmul@temp+1
  2563  002136                     
  2564                           ; BSR set to: 0
  2565  002136  51CD               	movf	___flmul@temp& (0+255),w,b
  2566  002138  27C3               	addwf	___flmul@grs& (0+255),f,b
  2567  00213A  0E00               	movlw	0
  2568  00213C  23C4               	addwfc	(___flmul@grs+1)& (0+255),f,b
  2569  00213E  23C5               	addwfc	(___flmul@grs+2)& (0+255),f,b
  2570  002140  23C6               	addwfc	(___flmul@grs+3)& (0+255),f,b
  2571  002142                     
  2572                           ; BSR set to: 0
  2573  002142  51CE               	movf	(___flmul@temp+1)& (0+255),w,b
  2574  002144  27C9               	addwf	___flmul@prod& (0+255),f,b
  2575  002146  0E00               	movlw	0
  2576  002148  23CA               	addwfc	(___flmul@prod+1)& (0+255),f,b
  2577  00214A  23CB               	addwfc	(___flmul@prod+2)& (0+255),f,b
  2578  00214C  23CC               	addwfc	(___flmul@prod+3)& (0+255),f,b
  2579  00214E  51BA               	movf	___flmul@a& (0+255),w,b
  2580  002150  03B8               	mulwf	(___flmul@b+2)& (0+255),b
  2581  002152  006F FFCC  F0CD    	movff	prodl,___flmul@temp
  2582  002158  006F FFD0  F0CE    	movff	prodh,___flmul@temp+1
  2583  00215E                     
  2584                           ; BSR set to: 0
  2585  00215E  51CD               	movf	___flmul@temp& (0+255),w,b
  2586  002160  27C3               	addwf	___flmul@grs& (0+255),f,b
  2587  002162  0E00               	movlw	0
  2588  002164  23C4               	addwfc	(___flmul@grs+1)& (0+255),f,b
  2589  002166  23C5               	addwfc	(___flmul@grs+2)& (0+255),f,b
  2590  002168  23C6               	addwfc	(___flmul@grs+3)& (0+255),f,b
  2591  00216A                     
  2592                           ; BSR set to: 0
  2593  00216A  51CE               	movf	(___flmul@temp+1)& (0+255),w,b
  2594  00216C  27C9               	addwf	___flmul@prod& (0+255),f,b
  2595  00216E  0E00               	movlw	0
  2596  002170  23CA               	addwfc	(___flmul@prod+1)& (0+255),f,b
  2597  002172  23CB               	addwfc	(___flmul@prod+2)& (0+255),f,b
  2598  002174  23CC               	addwfc	(___flmul@prod+3)& (0+255),f,b
  2599  002176                     
  2600                           ; BSR set to: 0
  2601  002176  C0C5  F0C6         	movff	___flmul@grs+2,___flmul@grs+3
  2602  00217A  C0C4  F0C5         	movff	___flmul@grs+1,___flmul@grs+2
  2603  00217E  C0C3  F0C4         	movff	___flmul@grs,___flmul@grs+1
  2604  002182  6BC3               	clrf	___flmul@grs& (0+255),b
  2605  002184                     
  2606                           ; BSR set to: 0
  2607  002184  51BA               	movf	___flmul@a& (0+255),w,b
  2608  002186  03B7               	mulwf	(___flmul@b+1)& (0+255),b
  2609  002188  006F FFCC  F0CD    	movff	prodl,___flmul@temp
  2610  00218E  006F FFD0  F0CE    	movff	prodh,___flmul@temp+1
  2611  002194                     
  2612                           ; BSR set to: 0
  2613  002194  51CD               	movf	___flmul@temp& (0+255),w,b
  2614  002196  27C3               	addwf	___flmul@grs& (0+255),f,b
  2615  002198  51CE               	movf	(___flmul@temp+1)& (0+255),w,b
  2616  00219A  23C4               	addwfc	(___flmul@grs+1)& (0+255),f,b
  2617  00219C  0E00               	movlw	0
  2618  00219E  23C5               	addwfc	(___flmul@grs+2)& (0+255),f,b
  2619  0021A0  0E00               	movlw	0
  2620  0021A2  23C6               	addwfc	(___flmul@grs+3)& (0+255),f,b
  2621  0021A4                     
  2622                           ; BSR set to: 0
  2623  0021A4  51BB               	movf	(___flmul@a+1)& (0+255),w,b
  2624  0021A6  03B6               	mulwf	___flmul@b& (0+255),b
  2625  0021A8  006F FFCC  F0CD    	movff	prodl,___flmul@temp
  2626  0021AE  006F FFD0  F0CE    	movff	prodh,___flmul@temp+1
  2627  0021B4                     
  2628                           ; BSR set to: 0
  2629  0021B4  51CD               	movf	___flmul@temp& (0+255),w,b
  2630  0021B6  27C3               	addwf	___flmul@grs& (0+255),f,b
  2631  0021B8  51CE               	movf	(___flmul@temp+1)& (0+255),w,b
  2632  0021BA  23C4               	addwfc	(___flmul@grs+1)& (0+255),f,b
  2633  0021BC  0E00               	movlw	0
  2634  0021BE  23C5               	addwfc	(___flmul@grs+2)& (0+255),f,b
  2635  0021C0  0E00               	movlw	0
  2636  0021C2  23C6               	addwfc	(___flmul@grs+3)& (0+255),f,b
  2637  0021C4                     
  2638                           ; BSR set to: 0
  2639  0021C4  C0C5  F0C6         	movff	___flmul@grs+2,___flmul@grs+3
  2640  0021C8  C0C4  F0C5         	movff	___flmul@grs+1,___flmul@grs+2
  2641  0021CC  C0C3  F0C4         	movff	___flmul@grs,___flmul@grs+1
  2642  0021D0  6BC3               	clrf	___flmul@grs& (0+255),b
  2643  0021D2  51BA               	movf	___flmul@a& (0+255),w,b
  2644  0021D4  03B6               	mulwf	___flmul@b& (0+255),b
  2645  0021D6  006F FFCC  F0CD    	movff	prodl,___flmul@temp
  2646  0021DC  006F FFD0  F0CE    	movff	prodh,___flmul@temp+1
  2647  0021E2                     
  2648                           ; BSR set to: 0
  2649  0021E2  51CD               	movf	___flmul@temp& (0+255),w,b
  2650  0021E4  27C3               	addwf	___flmul@grs& (0+255),f,b
  2651  0021E6  51CE               	movf	(___flmul@temp+1)& (0+255),w,b
  2652  0021E8  23C4               	addwfc	(___flmul@grs+1)& (0+255),f,b
  2653  0021EA  0E00               	movlw	0
  2654  0021EC  23C5               	addwfc	(___flmul@grs+2)& (0+255),f,b
  2655  0021EE  0E00               	movlw	0
  2656  0021F0  23C6               	addwfc	(___flmul@grs+3)& (0+255),f,b
  2657  0021F2                     
  2658                           ; BSR set to: 0
  2659  0021F2  51BC               	movf	(___flmul@a+2)& (0+255),w,b
  2660  0021F4  03B7               	mulwf	(___flmul@b+1)& (0+255),b
  2661  0021F6  006F FFCC  F0CD    	movff	prodl,___flmul@temp
  2662  0021FC  006F FFD0  F0CE    	movff	prodh,___flmul@temp+1
  2663  002202  51CD               	movf	___flmul@temp& (0+255),w,b
  2664  002204  27C9               	addwf	___flmul@prod& (0+255),f,b
  2665  002206  51CE               	movf	(___flmul@temp+1)& (0+255),w,b
  2666  002208  23CA               	addwfc	(___flmul@prod+1)& (0+255),f,b
  2667  00220A  0E00               	movlw	0
  2668  00220C  23CB               	addwfc	(___flmul@prod+2)& (0+255),f,b
  2669  00220E  0E00               	movlw	0
  2670  002210  23CC               	addwfc	(___flmul@prod+3)& (0+255),f,b
  2671  002212                     
  2672                           ; BSR set to: 0
  2673  002212  51BB               	movf	(___flmul@a+1)& (0+255),w,b
  2674  002214  03B8               	mulwf	(___flmul@b+2)& (0+255),b
  2675  002216  006F FFCC  F0CD    	movff	prodl,___flmul@temp
  2676  00221C  006F FFD0  F0CE    	movff	prodh,___flmul@temp+1
  2677  002222                     
  2678                           ; BSR set to: 0
  2679  002222  51CD               	movf	___flmul@temp& (0+255),w,b
  2680  002224  27C9               	addwf	___flmul@prod& (0+255),f,b
  2681  002226  51CE               	movf	(___flmul@temp+1)& (0+255),w,b
  2682  002228  23CA               	addwfc	(___flmul@prod+1)& (0+255),f,b
  2683  00222A  0E00               	movlw	0
  2684  00222C  23CB               	addwfc	(___flmul@prod+2)& (0+255),f,b
  2685  00222E  0E00               	movlw	0
  2686  002230  23CC               	addwfc	(___flmul@prod+3)& (0+255),f,b
  2687  002232  51BC               	movf	(___flmul@a+2)& (0+255),w,b
  2688  002234  03B8               	mulwf	(___flmul@b+2)& (0+255),b
  2689  002236  006F FFCC  F0CD    	movff	prodl,___flmul@temp
  2690  00223C  006F FFD0  F0CE    	movff	prodh,___flmul@temp+1
  2691  002242                     
  2692                           ; BSR set to: 0
  2693  002242  51CD               	movf	___flmul@temp& (0+255),w,b
  2694  002244  6FBE               	movwf	??___flmul& (0+255),b
  2695  002246  51CE               	movf	(___flmul@temp+1)& (0+255),w,b
  2696  002248  6FBF               	movwf	(??___flmul+1)& (0+255),b
  2697  00224A  6BC0               	clrf	(??___flmul+2)& (0+255),b
  2698  00224C  6BC1               	clrf	(??___flmul+3)& (0+255),b
  2699  00224E  C0C0  F0C1         	movff	??___flmul+2,??___flmul+3
  2700  002252  C0BF  F0C0         	movff	??___flmul+1,??___flmul+2
  2701  002256  C0BE  F0BF         	movff	??___flmul,??___flmul+1
  2702  00225A  6BBE               	clrf	??___flmul& (0+255),b
  2703  00225C  51BE               	movf	??___flmul& (0+255),w,b
  2704  00225E  27C9               	addwf	___flmul@prod& (0+255),f,b
  2705  002260  51BF               	movf	(??___flmul+1)& (0+255),w,b
  2706  002262  23CA               	addwfc	(___flmul@prod+1)& (0+255),f,b
  2707  002264  51C0               	movf	(??___flmul+2)& (0+255),w,b
  2708  002266  23CB               	addwfc	(___flmul@prod+2)& (0+255),f,b
  2709  002268  51C1               	movf	(??___flmul+3)& (0+255),w,b
  2710  00226A  23CC               	addwfc	(___flmul@prod+3)& (0+255),f,b
  2711  00226C                     
  2712                           ; BSR set to: 0
  2713  00226C  C0C3  F0BE         	movff	___flmul@grs,??___flmul
  2714  002270  C0C4  F0BF         	movff	___flmul@grs+1,??___flmul+1
  2715  002274  C0C5  F0C0         	movff	___flmul@grs+2,??___flmul+2
  2716  002278  C0C6  F0C1         	movff	___flmul@grs+3,??___flmul+3
  2717  00227C  0E19               	movlw	25
  2718  00227E  EF46  F011         	goto	u5080
  2719  002282                     u5085:
  2720  002282  90D8               	bcf	status,0,c
  2721  002284  33C1               	rrcf	(??___flmul+3)& (0+255),f,b
  2722  002286  33C0               	rrcf	(??___flmul+2)& (0+255),f,b
  2723  002288  33BF               	rrcf	(??___flmul+1)& (0+255),f,b
  2724  00228A  33BE               	rrcf	??___flmul& (0+255),f,b
  2725  00228C                     u5080:
  2726  00228C  2EE8               	decfsz	wreg,f,c
  2727  00228E  EF41  F011         	goto	u5085
  2728  002292  51BE               	movf	??___flmul& (0+255),w,b
  2729  002294  27C9               	addwf	___flmul@prod& (0+255),f,b
  2730  002296  51BF               	movf	(??___flmul+1)& (0+255),w,b
  2731  002298  23CA               	addwfc	(___flmul@prod+1)& (0+255),f,b
  2732  00229A  51C0               	movf	(??___flmul+2)& (0+255),w,b
  2733  00229C  23CB               	addwfc	(___flmul@prod+2)& (0+255),f,b
  2734  00229E  51C1               	movf	(??___flmul+3)& (0+255),w,b
  2735  0022A0  23CC               	addwfc	(___flmul@prod+3)& (0+255),f,b
  2736  0022A2                     
  2737                           ; BSR set to: 0
  2738  0022A2  C0C5  F0C6         	movff	___flmul@grs+2,___flmul@grs+3
  2739  0022A6  C0C4  F0C5         	movff	___flmul@grs+1,___flmul@grs+2
  2740  0022AA  C0C3  F0C4         	movff	___flmul@grs,___flmul@grs+1
  2741  0022AE  6BC3               	clrf	___flmul@grs& (0+255),b
  2742  0022B0                     
  2743                           ; BSR set to: 0
  2744  0022B0  51C7               	movf	___flmul@aexp& (0+255),w,b
  2745  0022B2  C0C8  F0BE         	movff	___flmul@bexp,??___flmul
  2746  0022B6  6BBF               	clrf	(??___flmul+1)& (0+255),b
  2747  0022B8  27BE               	addwf	??___flmul& (0+255),f,b
  2748  0022BA  0E00               	movlw	0
  2749  0022BC  23BF               	addwfc	(??___flmul+1)& (0+255),f,b
  2750  0022BE  0E82               	movlw	130
  2751  0022C0  25BE               	addwf	??___flmul& (0+255),w,b
  2752  0022C2  6FCD               	movwf	___flmul@temp& (0+255),b
  2753  0022C4  0EFF               	movlw	255
  2754  0022C6  21BF               	addwfc	(??___flmul+1)& (0+255),w,b
  2755  0022C8  6FCE               	movwf	(___flmul@temp+1)& (0+255),b
  2756  0022CA  EF7C  F011         	goto	l5811
  2757  0022CE                     l5805:
  2758                           
  2759                           ; BSR set to: 0
  2760  0022CE  90D8               	bcf	status,0,c
  2761  0022D0  37C9               	rlcf	___flmul@prod& (0+255),f,b
  2762  0022D2  37CA               	rlcf	(___flmul@prod+1)& (0+255),f,b
  2763  0022D4  37CB               	rlcf	(___flmul@prod+2)& (0+255),f,b
  2764  0022D6  37CC               	rlcf	(___flmul@prod+3)& (0+255),f,b
  2765  0022D8                     
  2766                           ; BSR set to: 0
  2767  0022D8  AFC6               	btfss	(___flmul@grs+3)& (0+255),7,b
  2768  0022DA  EF71  F011         	goto	u5091
  2769  0022DE  EF73  F011         	goto	u5090
  2770  0022E2                     u5091:
  2771  0022E2  EF74  F011         	goto	l2321
  2772  0022E6                     u5090:
  2773  0022E6                     
  2774                           ; BSR set to: 0
  2775  0022E6  81C9               	bsf	___flmul@prod& (0+255),0,b
  2776  0022E8                     l2321:
  2777                           
  2778                           ; BSR set to: 0
  2779  0022E8  90D8               	bcf	status,0,c
  2780  0022EA  37C3               	rlcf	___flmul@grs& (0+255),f,b
  2781  0022EC  37C4               	rlcf	(___flmul@grs+1)& (0+255),f,b
  2782  0022EE  37C5               	rlcf	(___flmul@grs+2)& (0+255),f,b
  2783  0022F0  37C6               	rlcf	(___flmul@grs+3)& (0+255),f,b
  2784  0022F2  07CD               	decf	___flmul@temp& (0+255),f,b
  2785  0022F4  A0D8               	btfss	status,0,c
  2786  0022F6  07CE               	decf	(___flmul@temp+1)& (0+255),f,b
  2787  0022F8                     l5811:
  2788                           
  2789                           ; BSR set to: 0
  2790  0022F8  AFCB               	btfss	(___flmul@prod+2)& (0+255),7,b
  2791  0022FA  EF81  F011         	goto	u5101
  2792  0022FE  EF83  F011         	goto	u5100
  2793  002302                     u5101:
  2794  002302  EF67  F011         	goto	l5805
  2795  002306                     u5100:
  2796  002306                     
  2797                           ; BSR set to: 0
  2798  002306  0E00               	movlw	0
  2799  002308  6FC7               	movwf	___flmul@aexp& (0+255),b
  2800  00230A                     
  2801                           ; BSR set to: 0
  2802  00230A  AFC6               	btfss	(___flmul@grs+3)& (0+255),7,b
  2803  00230C  EF8A  F011         	goto	u5111
  2804  002310  EF8C  F011         	goto	u5110
  2805  002314                     u5111:
  2806  002314  EFB0  F011         	goto	l2323
  2807  002318                     u5110:
  2808  002318                     
  2809                           ; BSR set to: 0
  2810  002318  0EFF               	movlw	255
  2811  00231A  15C3               	andwf	___flmul@grs& (0+255),w,b
  2812  00231C  6FBE               	movwf	??___flmul& (0+255),b
  2813  00231E  0EFF               	movlw	255
  2814  002320  15C4               	andwf	(___flmul@grs+1)& (0+255),w,b
  2815  002322  6FBF               	movwf	(??___flmul+1)& (0+255),b
  2816  002324  0EFF               	movlw	255
  2817  002326  15C5               	andwf	(___flmul@grs+2)& (0+255),w,b
  2818  002328  6FC0               	movwf	(??___flmul+2)& (0+255),b
  2819  00232A  0E7F               	movlw	127
  2820  00232C  15C6               	andwf	(___flmul@grs+3)& (0+255),w,b
  2821  00232E  6FC1               	movwf	(??___flmul+3)& (0+255),b
  2822  002330  51BE               	movf	??___flmul& (0+255),w,b
  2823  002332  11BF               	iorwf	(??___flmul+1)& (0+255),w,b
  2824  002334  11C0               	iorwf	(??___flmul+2)& (0+255),w,b
  2825  002336  11C1               	iorwf	(??___flmul+3)& (0+255),w,b
  2826  002338  B4D8               	btfsc	status,2,c
  2827  00233A  EFA1  F011         	goto	u5121
  2828  00233E  EFA3  F011         	goto	u5120
  2829  002342                     u5121:
  2830  002342  EFA7  F011         	goto	l2324
  2831  002346                     u5120:
  2832  002346                     l5819:
  2833                           
  2834                           ; BSR set to: 0
  2835  002346  0E01               	movlw	1
  2836  002348  6FC7               	movwf	___flmul@aexp& (0+255),b
  2837  00234A  EFB0  F011         	goto	l2323
  2838  00234E                     l2324:
  2839                           
  2840                           ; BSR set to: 0
  2841  00234E  A1C9               	btfss	___flmul@prod& (0+255),0,b
  2842  002350  EFAC  F011         	goto	u5131
  2843  002354  EFAE  F011         	goto	u5130
  2844  002358                     u5131:
  2845  002358  EFB0  F011         	goto	l2323
  2846  00235C                     u5130:
  2847  00235C  EFA3  F011         	goto	l5819
  2848  002360                     l2323:
  2849                           
  2850                           ; BSR set to: 0
  2851  002360  51C7               	movf	___flmul@aexp& (0+255),w,b
  2852  002362  B4D8               	btfsc	status,2,c
  2853  002364  EFB6  F011         	goto	u5141
  2854  002368  EFB8  F011         	goto	u5140
  2855  00236C                     u5141:
  2856  00236C  EFDC  F011         	goto	l5831
  2857  002370                     u5140:
  2858  002370                     
  2859                           ; BSR set to: 0
  2860  002370  0E01               	movlw	1
  2861  002372  27C9               	addwf	___flmul@prod& (0+255),f,b
  2862  002374  0E00               	movlw	0
  2863  002376  23CA               	addwfc	(___flmul@prod+1)& (0+255),f,b
  2864  002378  23CB               	addwfc	(___flmul@prod+2)& (0+255),f,b
  2865  00237A  23CC               	addwfc	(___flmul@prod+3)& (0+255),f,b
  2866  00237C                     
  2867                           ; BSR set to: 0
  2868  00237C  A1CC               	btfss	(___flmul@prod+3)& (0+255),0,b
  2869  00237E  EFC3  F011         	goto	u5151
  2870  002382  EFC5  F011         	goto	u5150
  2871  002386                     u5151:
  2872  002386  EFDC  F011         	goto	l5831
  2873  00238A                     u5150:
  2874  00238A                     
  2875                           ; BSR set to: 0
  2876  00238A  C0C9  F0BE         	movff	___flmul@prod,??___flmul
  2877  00238E  C0CA  F0BF         	movff	___flmul@prod+1,??___flmul+1
  2878  002392  C0CB  F0C0         	movff	___flmul@prod+2,??___flmul+2
  2879  002396  C0CC  F0C1         	movff	___flmul@prod+3,??___flmul+3
  2880  00239A  35C1               	rlcf	(??___flmul+3)& (0+255),w,b
  2881  00239C  33C1               	rrcf	(??___flmul+3)& (0+255),f,b
  2882  00239E  33C0               	rrcf	(??___flmul+2)& (0+255),f,b
  2883  0023A0  33BF               	rrcf	(??___flmul+1)& (0+255),f,b
  2884  0023A2  33BE               	rrcf	??___flmul& (0+255),f,b
  2885  0023A4  C0BE  F0C9         	movff	??___flmul,___flmul@prod
  2886  0023A8  C0BF  F0CA         	movff	??___flmul+1,___flmul@prod+1
  2887  0023AC  C0C0  F0CB         	movff	??___flmul+2,___flmul@prod+2
  2888  0023B0  C0C1  F0CC         	movff	??___flmul+3,___flmul@prod+3
  2889  0023B4                     
  2890                           ; BSR set to: 0
  2891  0023B4  4BCD               	infsnz	___flmul@temp& (0+255),f,b
  2892  0023B6  2BCE               	incf	(___flmul@temp+1)& (0+255),f,b
  2893  0023B8                     l5831:
  2894                           
  2895                           ; BSR set to: 0
  2896  0023B8  BFCE               	btfsc	(___flmul@temp+1)& (0+255),7,b
  2897  0023BA  EFE7  F011         	goto	u5161
  2898  0023BE  51CE               	movf	(___flmul@temp+1)& (0+255),w,b
  2899  0023C0  E108               	bnz	u5160
  2900  0023C2  29CD               	incf	___flmul@temp& (0+255),w,b
  2901  0023C4  A0D8               	btfss	status,0,c
  2902  0023C6  EFE7  F011         	goto	u5161
  2903  0023CA  EFE9  F011         	goto	u5160
  2904  0023CE                     u5161:
  2905  0023CE  EFF3  F011         	goto	l5835
  2906  0023D2                     u5160:
  2907  0023D2                     
  2908                           ; BSR set to: 0
  2909  0023D2  0E00               	movlw	0
  2910  0023D4  6FC9               	movwf	___flmul@prod& (0+255),b
  2911  0023D6  0E00               	movlw	0
  2912  0023D8  6FCA               	movwf	(___flmul@prod+1)& (0+255),b
  2913  0023DA  0E80               	movlw	128
  2914  0023DC  6FCB               	movwf	(___flmul@prod+2)& (0+255),b
  2915  0023DE  0E7F               	movlw	127
  2916  0023E0  6FCC               	movwf	(___flmul@prod+3)& (0+255),b
  2917  0023E2  EF21  F012         	goto	l5847
  2918  0023E6                     l5835:
  2919                           
  2920                           ; BSR set to: 0
  2921  0023E6  BFCE               	btfsc	(___flmul@temp+1)& (0+255),7,b
  2922  0023E8  EF00  F012         	goto	u5170
  2923  0023EC  51CE               	movf	(___flmul@temp+1)& (0+255),w,b
  2924  0023EE  E106               	bnz	u5171
  2925  0023F0  05CD               	decf	___flmul@temp& (0+255),w,b
  2926  0023F2  B0D8               	btfsc	status,0,c
  2927  0023F4  EFFE  F011         	goto	u5171
  2928  0023F8  EF00  F012         	goto	u5170
  2929  0023FC                     u5171:
  2930  0023FC  EF0C  F012         	goto	l2331
  2931  002400                     u5170:
  2932  002400                     
  2933                           ; BSR set to: 0
  2934  002400  0E00               	movlw	0
  2935  002402  6FC9               	movwf	___flmul@prod& (0+255),b
  2936  002404  0E00               	movlw	0
  2937  002406  6FCA               	movwf	(___flmul@prod+1)& (0+255),b
  2938  002408  0E00               	movlw	0
  2939  00240A  6FCB               	movwf	(___flmul@prod+2)& (0+255),b
  2940  00240C  0E00               	movlw	0
  2941  00240E  6FCC               	movwf	(___flmul@prod+3)& (0+255),b
  2942  002410  0E00               	movlw	0
  2943  002412  6FC2               	movwf	___flmul@sign& (0+255),b
  2944  002414  EF21  F012         	goto	l5847
  2945  002418                     l2331:
  2946                           
  2947                           ; BSR set to: 0
  2948  002418  C0CD  F0C8         	movff	___flmul@temp,___flmul@bexp
  2949  00241C                     
  2950                           ; BSR set to: 0
  2951  00241C  0EFF               	movlw	255
  2952  00241E  17C9               	andwf	___flmul@prod& (0+255),f,b
  2953  002420  0EFF               	movlw	255
  2954  002422  17CA               	andwf	(___flmul@prod+1)& (0+255),f,b
  2955  002424  0E7F               	movlw	127
  2956  002426  17CB               	andwf	(___flmul@prod+2)& (0+255),f,b
  2957  002428  0E00               	movlw	0
  2958  00242A  17CC               	andwf	(___flmul@prod+3)& (0+255),f,b
  2959  00242C                     
  2960                           ; BSR set to: 0
  2961  00242C  A1C8               	btfss	___flmul@bexp& (0+255),0,b
  2962  00242E  EF1B  F012         	goto	u5181
  2963  002432  EF1D  F012         	goto	u5180
  2964  002436                     u5181:
  2965  002436  EF1E  F012         	goto	l5845
  2966  00243A                     u5180:
  2967  00243A                     
  2968                           ; BSR set to: 0
  2969  00243A  8FCB               	bsf	(___flmul@prod+2)& (0+255),7,b
  2970  00243C                     l5845:
  2971                           
  2972                           ; BSR set to: 0
  2973  00243C  90D8               	bcf	status,0,c
  2974  00243E  31C8               	rrcf	___flmul@bexp& (0+255),w,b
  2975  002440  6FCC               	movwf	(___flmul@prod+3)& (0+255),b
  2976  002442                     l5847:
  2977                           
  2978                           ; BSR set to: 0
  2979  002442  51C2               	movf	___flmul@sign& (0+255),w,b
  2980  002444  13CC               	iorwf	(___flmul@prod+3)& (0+255),f,b
  2981  002446                     
  2982                           ; BSR set to: 0
  2983  002446  C0C9  F0B6         	movff	___flmul@prod,?___flmul
  2984  00244A  C0CA  F0B7         	movff	___flmul@prod+1,?___flmul+1
  2985  00244E  C0CB  F0B8         	movff	___flmul@prod+2,?___flmul+2
  2986  002452  C0CC  F0B9         	movff	___flmul@prod+3,?___flmul+3
  2987  002456                     l2318:
  2988                           
  2989                           ; BSR set to: 0
  2990  002456  0012               	return		;funcret
  2991  002458                     __end_of___flmul:
  2992                           	callstack 0
  2993                           
  2994 ;; *************** function _SYSTEM_Initialize *****************
  2995 ;; Defined at:
  2996 ;;		line 50 in file "mcc_generated_files/mcc.c"
  2997 ;; Parameters:    Size  Location     Type
  2998 ;;		None
  2999 ;; Auto vars:     Size  Location     Type
  3000 ;;		None
  3001 ;; Return value:  Size  Location     Type
  3002 ;;                  1    wreg      void 
  3003 ;; Registers used:
  3004 ;;		wreg, status,2, status,0, cstack
  3005 ;; Tracked objects:
  3006 ;;		On entry : 0/0
  3007 ;;		On exit  : 0/0
  3008 ;;		Unchanged: 0/0
  3009 ;; Data sizes:     COMRAM   BANK0   BANK1   BANK2   BANK3   BANK4   BANK5   BANK6   BANK7   BANK8   BANK9  BANK10  BANK1
      +1  BANK12  BANK13  BANK14  BANK15  BANK16  BANK17  BANK18  BANK19  BANK20  BANK21  BANK22  BANK23  BANK24  BANK25  BANK2
      +6  BANK27  BANK28  BANK29  BANK30  BANK31
  3010 ;;      Params:         0       0       0       0       0       0       0       0       0       0       0       0       
      +0       0       0       0       0       0       0       0       0       0       0       0       0       0       0       
      +0       0       0       0       0       0
  3011 ;;      Locals:         0       0       0       0       0       0       0       0       0       0       0       0       
      +0       0       0       0       0       0       0       0       0       0       0       0       0       0       0       
      +0       0       0       0       0       0
  3012 ;;      Temps:          0       0       0       0       0       0       0       0       0       0       0       0       
      +0       0       0       0       0       0       0       0       0       0       0       0       0       0       0       
      +0       0       0       0       0       0
  3013 ;;      Totals:         0       0       0       0       0       0       0       0       0       0       0       0       
      +0       0       0       0       0       0       0       0       0       0       0       0       0       0       0       
      +0       0       0       0       0       0
  3014 ;;Total ram usage:        0 bytes
  3015 ;; Hardware stack levels used: 1
  3016 ;; Hardware stack levels required when called: 6
  3017 ;; This function calls:
  3018 ;;		_ADCC_Initialize
  3019 ;;		_CWG1_Initialize
  3020 ;;		_CWG2_Initialize
  3021 ;;		_CWG3_Initialize
  3022 ;;		_INTERRUPT_Initialize
  3023 ;;		_OSCILLATOR_Initialize
  3024 ;;		_PIN_MANAGER_Initialize
  3025 ;;		_PMD_Initialize
  3026 ;;		_PWM6_Initialize
  3027 ;;		_SPI1_Initialize
  3028 ;;		_TMR1_Initialize
  3029 ;;		_TMR2_Initialize
  3030 ;;		_TMR4_Initialize
  3031 ;;		_TMR5_Initialize
  3032 ;;		_TMR6_Initialize
  3033 ;;		_UART1_Initialize
  3034 ;; This function is called by:
  3035 ;;		_main
  3036 ;; This function uses a non-reentrant model
  3037 ;;
  3038                           
  3039                           	psect	text6
  3040  004980                     __ptext6:
  3041                           	callstack 0
  3042  004980                     _SYSTEM_Initialize:
  3043                           	callstack 24
  3044  004980                     
  3045                           ;mcc_generated_files/mcc.c: 52:     INTERRUPT_Initialize();
  3046  004980  EC9A  F026         	call	_INTERRUPT_Initialize	;wreg free
  3047  004984                     
  3048                           ;mcc_generated_files/mcc.c: 53:     PMD_Initialize();
  3049  004984  ECB4  F025         	call	_PMD_Initialize	;wreg free
  3050  004988                     
  3051                           ;mcc_generated_files/mcc.c: 54:     PIN_MANAGER_Initialize();
  3052  004988  EC02  F022         	call	_PIN_MANAGER_Initialize	;wreg free
  3053  00498C                     
  3054                           ;mcc_generated_files/mcc.c: 55:     OSCILLATOR_Initialize();
  3055  00498C  ECFB  F025         	call	_OSCILLATOR_Initialize	;wreg free
  3056  004990                     
  3057                           ;mcc_generated_files/mcc.c: 56:     ADCC_Initialize();
  3058  004990  ECC4  F023         	call	_ADCC_Initialize	;wreg free
  3059  004994                     
  3060                           ;mcc_generated_files/mcc.c: 57:     TMR4_Initialize();
  3061  004994  EC4A  F025         	call	_TMR4_Initialize	;wreg free
  3062  004998                     
  3063                           ;mcc_generated_files/mcc.c: 58:     TMR2_Initialize();
  3064  004998  ECC6  F025         	call	_TMR2_Initialize	;wreg free
  3065  00499C                     
  3066                           ;mcc_generated_files/mcc.c: 59:     PWM6_Initialize();
  3067  00499C  ECEF  F025         	call	_PWM6_Initialize	;wreg free
  3068  0049A0                     
  3069                           ;mcc_generated_files/mcc.c: 60:     TMR6_Initialize();
  3070  0049A0  EC31  F025         	call	_TMR6_Initialize	;wreg free
  3071  0049A4                     
  3072                           ;mcc_generated_files/mcc.c: 61:     TMR5_Initialize();
  3073  0049A4  EC72  F024         	call	_TMR5_Initialize	;wreg free
  3074  0049A8                     
  3075                           ;mcc_generated_files/mcc.c: 62:     TMR1_Initialize();
  3076  0049A8  EC99  F024         	call	_TMR1_Initialize	;wreg free
  3077  0049AC                     
  3078                           ;mcc_generated_files/mcc.c: 63:     CWG2_Initialize();
  3079  0049AC  EC8C  F025         	call	_CWG2_Initialize	;wreg free
  3080  0049B0                     
  3081                           ;mcc_generated_files/mcc.c: 64:     CWG3_Initialize();
  3082  0049B0  EC78  F025         	call	_CWG3_Initialize	;wreg free
  3083  0049B4                     
  3084                           ;mcc_generated_files/mcc.c: 65:     CWG1_Initialize();
  3085  0049B4  ECA0  F025         	call	_CWG1_Initialize	;wreg free
  3086  0049B8                     
  3087                           ;mcc_generated_files/mcc.c: 66:     UART1_Initialize();
  3088  0049B8  ECE8  F022         	call	_UART1_Initialize	;wreg free
  3089  0049BC                     
  3090                           ;mcc_generated_files/mcc.c: 67:     SPI1_Initialize();
  3091  0049BC  ECD5  F025         	call	_SPI1_Initialize	;wreg free
  3092  0049C0  0012               	return		;funcret
  3093  0049C2                     __end_of_SYSTEM_Initialize:
  3094                           	callstack 0
  3095                           
  3096 ;; *************** function _UART1_Initialize *****************
  3097 ;; Defined at:
  3098 ;;		line 95 in file "mcc_generated_files/uart1.c"
  3099 ;; Parameters:    Size  Location     Type
  3100 ;;		None
  3101 ;; Auto vars:     Size  Location     Type
  3102 ;;		None
  3103 ;; Return value:  Size  Location     Type
  3104 ;;                  1    wreg      void 
  3105 ;; Registers used:
  3106 ;;		wreg, status,2, status,0, cstack
  3107 ;; Tracked objects:
  3108 ;;		On entry : 0/0
  3109 ;;		On exit  : 0/0
  3110 ;;		Unchanged: 0/0
  3111 ;; Data sizes:     COMRAM   BANK0   BANK1   BANK2   BANK3   BANK4   BANK5   BANK6   BANK7   BANK8   BANK9  BANK10  BANK1
      +1  BANK12  BANK13  BANK14  BANK15  BANK16  BANK17  BANK18  BANK19  BANK20  BANK21  BANK22  BANK23  BANK24  BANK25  BANK2
      +6  BANK27  BANK28  BANK29  BANK30  BANK31
  3112 ;;      Params:         0       0       0       0       0       0       0       0       0       0       0       0       
      +0       0       0       0       0       0       0       0       0       0       0       0       0       0       0       
      +0       0       0       0       0       0
  3113 ;;      Locals:         0       0       0       0       0       0       0       0       0       0       0       0       
      +0       0       0       0       0       0       0       0       0       0       0       0       0       0       0       
      +0       0       0       0       0       0
  3114 ;;      Temps:          0       0       0       0       0       0       0       0       0       0       0       0       
      +0       0       0       0       0       0       0       0       0       0       0       0       0       0       0       
      +0       0       0       0       0       0
  3115 ;;      Totals:         0       0       0       0       0       0       0       0       0       0       0       0       
      +0       0       0       0       0       0       0       0       0       0       0       0       0       0       0       
      +0       0       0       0       0       0
  3116 ;;Total ram usage:        0 bytes
  3117 ;; Hardware stack levels used: 1
  3118 ;; Hardware stack levels required when called: 5
  3119 ;; This function calls:
  3120 ;;		_UART1_SetErrorHandler
  3121 ;;		_UART1_SetFramingErrorHandler
  3122 ;;		_UART1_SetOverrunErrorHandler
  3123 ;;		_UART1_SetRxInterruptHandler
  3124 ;;		_UART1_SetTxInterruptHandler
  3125 ;; This function is called by:
  3126 ;;		_SYSTEM_Initialize
  3127 ;; This function uses a non-reentrant model
  3128 ;;
  3129                           
  3130                           	psect	text7
  3131  0045D0                     __ptext7:
  3132                           	callstack 0
  3133  0045D0                     _UART1_Initialize:
  3134                           	callstack 24
  3135  0045D0                     
  3136                           ;mcc_generated_files/uart1.c: 97:     PIE3bits.U1RXIE = 0;
  3137  0045D0  0139               	movlb	57	; () banked
  3138  0045D2  9793               	bcf	147,3,b	;volatile
  3139  0045D4                     
  3140                           ; BSR set to: 57
  3141                           ;mcc_generated_files/uart1.c: 98:     UART1_SetRxInterruptHandler(UART1_Receive_ISR);
  3142  0045D4  0E00               	movlw	0
  3143  0045D6  0100               	movlb	0	; () banked
  3144  0045D8  6FA8               	movwf	UART1_SetRxInterruptHandler@InterruptHandler& (0+255),b
  3145  0045DA  0E00               	movlw	0
  3146  0045DC  6FA9               	movwf	(UART1_SetRxInterruptHandler@InterruptHandler+1)& (0+255),b
  3147  0045DE  0E00               	movlw	0
  3148  0045E0  6FAA               	movwf	(UART1_SetRxInterruptHandler@InterruptHandler+2)& (0+255),b
  3149  0045E2  EC16  F026         	call	_UART1_SetRxInterruptHandler	;wreg free
  3150  0045E6                     
  3151                           ;mcc_generated_files/uart1.c: 99:     PIE3bits.U1TXIE = 0;
  3152  0045E6  0139               	movlb	57	; () banked
  3153  0045E8  9993               	bcf	147,4,b	;volatile
  3154                           
  3155                           ;mcc_generated_files/uart1.c: 100:     UART1_SetTxInterruptHandler(UART1_Transmit_ISR);
  3156  0045EA  0E00               	movlw	0
  3157  0045EC  0100               	movlb	0	; () banked
  3158  0045EE  6FA8               	movwf	UART1_SetTxInterruptHandler@InterruptHandler& (0+255),b
  3159  0045F0  0E00               	movlw	0
  3160  0045F2  6FA9               	movwf	(UART1_SetTxInterruptHandler@InterruptHandler+1)& (0+255),b
  3161  0045F4  0E00               	movlw	0
  3162  0045F6  6FAA               	movwf	(UART1_SetTxInterruptHandler@InterruptHandler+2)& (0+255),b
  3163  0045F8  EC0F  F026         	call	_UART1_SetTxInterruptHandler	;wreg free
  3164  0045FC                     
  3165                           ;mcc_generated_files/uart1.c: 105:     U1P1L = 0x00;
  3166  0045FC  0E00               	movlw	0
  3167  0045FE  013D               	movlb	61	; () banked
  3168  004600  6FEC               	movwf	236,b	;volatile
  3169  004602                     
  3170                           ; BSR set to: 61
  3171                           ;mcc_generated_files/uart1.c: 108:     U1P1H = 0x00;
  3172  004602  0E00               	movlw	0
  3173  004604  6FED               	movwf	237,b	;volatile
  3174  004606                     
  3175                           ; BSR set to: 61
  3176                           ;mcc_generated_files/uart1.c: 111:     U1P2L = 0x00;
  3177  004606  0E00               	movlw	0
  3178  004608  6FEE               	movwf	238,b	;volatile
  3179  00460A                     
  3180                           ; BSR set to: 61
  3181                           ;mcc_generated_files/uart1.c: 114:     U1P2H = 0x00;
  3182  00460A  0E00               	movlw	0
  3183  00460C  6FEF               	movwf	239,b	;volatile
  3184  00460E                     
  3185                           ; BSR set to: 61
  3186                           ;mcc_generated_files/uart1.c: 117:     U1P3L = 0x00;
  3187  00460E  0E00               	movlw	0
  3188  004610  6FF0               	movwf	240,b	;volatile
  3189  004612                     
  3190                           ; BSR set to: 61
  3191                           ;mcc_generated_files/uart1.c: 120:     U1P3H = 0x00;
  3192  004612  0E00               	movlw	0
  3193  004614  6FF1               	movwf	241,b	;volatile
  3194  004616                     
  3195                           ; BSR set to: 61
  3196                           ;mcc_generated_files/uart1.c: 123:     U1CON0 = 0xB0;
  3197  004616  0EB0               	movlw	176
  3198  004618  6FF2               	movwf	242,b	;volatile
  3199  00461A                     
  3200                           ; BSR set to: 61
  3201                           ;mcc_generated_files/uart1.c: 126:     U1CON1 = 0x80;
  3202  00461A  0E80               	movlw	128
  3203  00461C  6FF3               	movwf	243,b	;volatile
  3204  00461E                     
  3205                           ; BSR set to: 61
  3206                           ;mcc_generated_files/uart1.c: 129:     U1CON2 = 0x00;
  3207  00461E  0E00               	movlw	0
  3208  004620  6FF4               	movwf	244,b	;volatile
  3209  004622                     
  3210                           ; BSR set to: 61
  3211                           ;mcc_generated_files/uart1.c: 132:     U1BRGL = 0x8A;
  3212  004622  0E8A               	movlw	138
  3213  004624  6FF5               	movwf	245,b	;volatile
  3214  004626                     
  3215                           ; BSR set to: 61
  3216                           ;mcc_generated_files/uart1.c: 135:     U1BRGH = 0x00;
  3217  004626  0E00               	movlw	0
  3218  004628  6FF6               	movwf	246,b	;volatile
  3219  00462A                     
  3220                           ; BSR set to: 61
  3221                           ;mcc_generated_files/uart1.c: 138:     U1FIFO = 0x00;
  3222  00462A  0E00               	movlw	0
  3223  00462C  6FF7               	movwf	247,b	;volatile
  3224  00462E                     
  3225                           ; BSR set to: 61
  3226                           ;mcc_generated_files/uart1.c: 141:     U1UIR = 0x00;
  3227  00462E  0E00               	movlw	0
  3228  004630  6FF8               	movwf	248,b	;volatile
  3229  004632                     
  3230                           ; BSR set to: 61
  3231                           ;mcc_generated_files/uart1.c: 144:     U1ERRIR = 0x00;
  3232  004632  0E00               	movlw	0
  3233  004634  6FF9               	movwf	249,b	;volatile
  3234  004636                     
  3235                           ; BSR set to: 61
  3236                           ;mcc_generated_files/uart1.c: 147:     U1ERRIE = 0x00;
  3237  004636  0E00               	movlw	0
  3238  004638  6FFA               	movwf	250,b	;volatile
  3239  00463A                     
  3240                           ; BSR set to: 61
  3241                           ;mcc_generated_files/uart1.c: 150:     UART1_SetFramingErrorHandler(UART1_DefaultFraming
      +                          ErrorHandler);
  3242  00463A  0E3C               	movlw	low _UART1_DefaultFramingErrorHandler
  3243  00463C  0100               	movlb	0	; () banked
  3244  00463E  6FA8               	movwf	UART1_SetFramingErrorHandler@interruptHandler& (0+255),b
  3245  004640  0E4D               	movlw	high _UART1_DefaultFramingErrorHandler
  3246  004642  6FA9               	movwf	(UART1_SetFramingErrorHandler@interruptHandler+1)& (0+255),b
  3247  004644  0E00               	movlw	low (_UART1_DefaultFramingErrorHandler shr (0+16))
  3248  004646  6FAA               	movwf	(UART1_SetFramingErrorHandler@interruptHandler+2)& (0+255),b
  3249  004648  EC24  F026         	call	_UART1_SetFramingErrorHandler	;wreg free
  3250  00464C                     
  3251                           ;mcc_generated_files/uart1.c: 151:     UART1_SetOverrunErrorHandler(UART1_DefaultOverrun
      +                          ErrorHandler);
  3252  00464C  0E3A               	movlw	low _UART1_DefaultOverrunErrorHandler
  3253  00464E  0100               	movlb	0	; () banked
  3254  004650  6FA8               	movwf	UART1_SetOverrunErrorHandler@interruptHandler& (0+255),b
  3255  004652  0E4D               	movlw	high _UART1_DefaultOverrunErrorHandler
  3256  004654  6FA9               	movwf	(UART1_SetOverrunErrorHandler@interruptHandler+1)& (0+255),b
  3257  004656  0E00               	movlw	low (_UART1_DefaultOverrunErrorHandler shr (0+16))
  3258  004658  6FAA               	movwf	(UART1_SetOverrunErrorHandler@interruptHandler+2)& (0+255),b
  3259  00465A  EC1D  F026         	call	_UART1_SetOverrunErrorHandler	;wreg free
  3260  00465E                     
  3261                           ;mcc_generated_files/uart1.c: 152:     UART1_SetErrorHandler(UART1_DefaultErrorHandler);
  3262  00465E  0E00               	movlw	0
  3263  004660  0100               	movlb	0	; () banked
  3264  004662  6FA8               	movwf	UART1_SetErrorHandler@interruptHandler& (0+255),b
  3265  004664  0E00               	movlw	0
  3266  004666  6FA9               	movwf	(UART1_SetErrorHandler@interruptHandler+1)& (0+255),b
  3267  004668  0E00               	movlw	0
  3268  00466A  6FAA               	movwf	(UART1_SetErrorHandler@interruptHandler+2)& (0+255),b
  3269  00466C  EC2B  F026         	call	_UART1_SetErrorHandler	;wreg free
  3270                           
  3271                           ;mcc_generated_files/uart1.c: 154:     uart1RxLastError.status = 0;
  3272  004670  0E00               	movlw	0
  3273  004672  0100               	movlb	0	; () banked
  3274  004674  6FA2               	movwf	_uart1RxLastError& (0+255),b	;volatile
  3275                           
  3276                           ;mcc_generated_files/uart1.c: 157:     uart1TxHead = 0;
  3277  004676  0E00               	movlw	0
  3278  004678  6FA4               	movwf	_uart1TxHead& (0+255),b	;volatile
  3279                           
  3280                           ;mcc_generated_files/uart1.c: 158:     uart1TxTail = 0;
  3281  00467A  0E00               	movlw	0
  3282  00467C  6FA3               	movwf	_uart1TxTail& (0+255),b	;volatile
  3283                           
  3284                           ;mcc_generated_files/uart1.c: 159:     uart1TxBufferRemaining = sizeof(uart1TxBuffer);
  3285  00467E  0E08               	movlw	8
  3286  004680  6FFB               	movwf	_uart1TxBufferRemaining& (0+255),b	;volatile
  3287                           
  3288                           ;mcc_generated_files/uart1.c: 160:     uart1RxHead = 0;
  3289  004682  0E00               	movlw	0
  3290  004684  6E4F               	movwf	_uart1RxHead^0,c	;volatile
  3291                           
  3292                           ;mcc_generated_files/uart1.c: 161:     uart1RxTail = 0;
  3293  004686  0E00               	movlw	0
  3294  004688  6E4E               	movwf	_uart1RxTail^0,c	;volatile
  3295                           
  3296                           ;mcc_generated_files/uart1.c: 162:     uart1RxCount = 0;
  3297  00468A  0E00               	movlw	0
  3298  00468C  6E4D               	movwf	_uart1RxCount^0,c	;volatile
  3299  00468E                     
  3300                           ; BSR set to: 0
  3301                           ;mcc_generated_files/uart1.c: 165:     PIE3bits.U1RXIE = 1;
  3302  00468E  0139               	movlb	57	; () banked
  3303  004690  8793               	bsf	147,3,b	;volatile
  3304  004692                     
  3305                           ; BSR set to: 57
  3306  004692  0012               	return		;funcret
  3307  004694                     __end_of_UART1_Initialize:
  3308                           	callstack 0
  3309                           
  3310 ;; *************** function _UART1_SetTxInterruptHandler *****************
  3311 ;; Defined at:
  3312 ;;		line 349 in file "mcc_generated_files/uart1.c"
  3313 ;; Parameters:    Size  Location     Type
  3314 ;;  InterruptHan    3    0[BANK0 ] PTR FTN()void 
  3315 ;;		 -> UART1_Transmit_ISR(1), 
  3316 ;; Auto vars:     Size  Location     Type
  3317 ;;		None
  3318 ;; Return value:  Size  Location     Type
  3319 ;;                  1    wreg      void 
  3320 ;; Registers used:
  3321 ;;		wreg, status,2, status,0
  3322 ;; Tracked objects:
  3323 ;;		On entry : 0/0
  3324 ;;		On exit  : 0/0
  3325 ;;		Unchanged: 0/0
  3326 ;; Data sizes:     COMRAM   BANK0   BANK1   BANK2   BANK3   BANK4   BANK5   BANK6   BANK7   BANK8   BANK9  BANK10  BANK1
      +1  BANK12  BANK13  BANK14  BANK15  BANK16  BANK17  BANK18  BANK19  BANK20  BANK21  BANK22  BANK23  BANK24  BANK25  BANK2
      +6  BANK27  BANK28  BANK29  BANK30  BANK31
  3327 ;;      Params:         0       3       0       0       0       0       0       0       0       0       0       0       
      +0       0       0       0       0       0       0       0       0       0       0       0       0       0       0       
      +0       0       0       0       0       0
  3328 ;;      Locals:         0       0       0       0       0       0       0       0       0       0       0       0       
      +0       0       0       0       0       0       0       0       0       0       0       0       0       0       0       
      +0       0       0       0       0       0
  3329 ;;      Temps:          0       0       0       0       0       0       0       0       0       0       0       0       
      +0       0       0       0       0       0       0       0       0       0       0       0       0       0       0       
      +0       0       0       0       0       0
  3330 ;;      Totals:         0       3       0       0       0       0       0       0       0       0       0       0       
      +0       0       0       0       0       0       0       0       0       0       0       0       0       0       0       
      +0       0       0       0       0       0
  3331 ;;Total ram usage:        3 bytes
  3332 ;; Hardware stack levels used: 1
  3333 ;; Hardware stack levels required when called: 4
  3334 ;; This function calls:
  3335 ;;		Nothing
  3336 ;; This function is called by:
  3337 ;;		_UART1_Initialize
  3338 ;; This function uses a non-reentrant model
  3339 ;;
  3340                           
  3341                           	psect	text8
  3342  004C1E                     __ptext8:
  3343                           	callstack 0
  3344  004C1E                     _UART1_SetTxInterruptHandler:
  3345                           	callstack 24
  3346  004C1E                     
  3347                           ;mcc_generated_files/uart1.c: 350:     UART1_TxInterruptHandler = InterruptHandler;
  3348  004C1E  C0A8  F147         	movff	UART1_SetTxInterruptHandler@InterruptHandler,_UART1_TxInterruptHandler
  3349  004C22  C0A9  F148         	movff	UART1_SetTxInterruptHandler@InterruptHandler+1,_UART1_TxInterruptHandler+1
  3350  004C26  C0AA  F149         	movff	UART1_SetTxInterruptHandler@InterruptHandler+2,_UART1_TxInterruptHandler+2
  3351  004C2A  0012               	return		;funcret
  3352  004C2C                     __end_of_UART1_SetTxInterruptHandler:
  3353                           	callstack 0
  3354                           
  3355 ;; *************** function _UART1_SetRxInterruptHandler *****************
  3356 ;; Defined at:
  3357 ;;		line 345 in file "mcc_generated_files/uart1.c"
  3358 ;; Parameters:    Size  Location     Type
  3359 ;;  InterruptHan    3    0[BANK0 ] PTR FTN()void 
  3360 ;;		 -> UART1_Receive_ISR(1), 
  3361 ;; Auto vars:     Size  Location     Type
  3362 ;;		None
  3363 ;; Return value:  Size  Location     Type
  3364 ;;                  1    wreg      void 
  3365 ;; Registers used:
  3366 ;;		wreg, status,2, status,0
  3367 ;; Tracked objects:
  3368 ;;		On entry : 0/0
  3369 ;;		On exit  : 0/0
  3370 ;;		Unchanged: 0/0
  3371 ;; Data sizes:     COMRAM   BANK0   BANK1   BANK2   BANK3   BANK4   BANK5   BANK6   BANK7   BANK8   BANK9  BANK10  BANK1
      +1  BANK12  BANK13  BANK14  BANK15  BANK16  BANK17  BANK18  BANK19  BANK20  BANK21  BANK22  BANK23  BANK24  BANK25  BANK2
      +6  BANK27  BANK28  BANK29  BANK30  BANK31
  3372 ;;      Params:         0       3       0       0       0       0       0       0       0       0       0       0       
      +0       0       0       0       0       0       0       0       0       0       0       0       0       0       0       
      +0       0       0       0       0       0
  3373 ;;      Locals:         0       0       0       0       0       0       0       0       0       0       0       0       
      +0       0       0       0       0       0       0       0       0       0       0       0       0       0       0       
      +0       0       0       0       0       0
  3374 ;;      Temps:          0       0       0       0       0       0       0       0       0       0       0       0       
      +0       0       0       0       0       0       0       0       0       0       0       0       0       0       0       
      +0       0       0       0       0       0
  3375 ;;      Totals:         0       3       0       0       0       0       0       0       0       0       0       0       
      +0       0       0       0       0       0       0       0       0       0       0       0       0       0       0       
      +0       0       0       0       0       0
  3376 ;;Total ram usage:        3 bytes
  3377 ;; Hardware stack levels used: 1
  3378 ;; Hardware stack levels required when called: 4
  3379 ;; This function calls:
  3380 ;;		Nothing
  3381 ;; This function is called by:
  3382 ;;		_UART1_Initialize
  3383 ;; This function uses a non-reentrant model
  3384 ;;
  3385                           
  3386                           	psect	text9
  3387  004C2C                     __ptext9:
  3388                           	callstack 0
  3389  004C2C                     _UART1_SetRxInterruptHandler:
  3390                           	callstack 24
  3391  004C2C                     
  3392                           ;mcc_generated_files/uart1.c: 346:     UART1_RxInterruptHandler = InterruptHandler;
  3393  004C2C  C0A8  F14A         	movff	UART1_SetRxInterruptHandler@InterruptHandler,_UART1_RxInterruptHandler
  3394  004C30  C0A9  F14B         	movff	UART1_SetRxInterruptHandler@InterruptHandler+1,_UART1_RxInterruptHandler+1
  3395  004C34  C0AA  F14C         	movff	UART1_SetRxInterruptHandler@InterruptHandler+2,_UART1_RxInterruptHandler+2
  3396  004C38  0012               	return		;funcret
  3397  004C3A                     __end_of_UART1_SetRxInterruptHandler:
  3398                           	callstack 0
  3399                           
  3400 ;; *************** function _UART1_SetOverrunErrorHandler *****************
  3401 ;; Defined at:
  3402 ;;		line 337 in file "mcc_generated_files/uart1.c"
  3403 ;; Parameters:    Size  Location     Type
  3404 ;;  interruptHan    3    0[BANK0 ] PTR FTN()void 
  3405 ;;		 -> UART1_DefaultOverrunErrorHandler(1), 
  3406 ;; Auto vars:     Size  Location     Type
  3407 ;;		None
  3408 ;; Return value:  Size  Location     Type
  3409 ;;                  1    wreg      void 
  3410 ;; Registers used:
  3411 ;;		wreg, status,2, status,0
  3412 ;; Tracked objects:
  3413 ;;		On entry : 0/0
  3414 ;;		On exit  : 0/0
  3415 ;;		Unchanged: 0/0
  3416 ;; Data sizes:     COMRAM   BANK0   BANK1   BANK2   BANK3   BANK4   BANK5   BANK6   BANK7   BANK8   BANK9  BANK10  BANK1
      +1  BANK12  BANK13  BANK14  BANK15  BANK16  BANK17  BANK18  BANK19  BANK20  BANK21  BANK22  BANK23  BANK24  BANK25  BANK2
      +6  BANK27  BANK28  BANK29  BANK30  BANK31
  3417 ;;      Params:         0       3       0       0       0       0       0       0       0       0       0       0       
      +0       0       0       0       0       0       0       0       0       0       0       0       0       0       0       
      +0       0       0       0       0       0
  3418 ;;      Locals:         0       0       0       0       0       0       0       0       0       0       0       0       
      +0       0       0       0       0       0       0       0       0       0       0       0       0       0       0       
      +0       0       0       0       0       0
  3419 ;;      Temps:          0       0       0       0       0       0       0       0       0       0       0       0       
      +0       0       0       0       0       0       0       0       0       0       0       0       0       0       0       
      +0       0       0       0       0       0
  3420 ;;      Totals:         0       3       0       0       0       0       0       0       0       0       0       0       
      +0       0       0       0       0       0       0       0       0       0       0       0       0       0       0       
      +0       0       0       0       0       0
  3421 ;;Total ram usage:        3 bytes
  3422 ;; Hardware stack levels used: 1
  3423 ;; Hardware stack levels required when called: 4
  3424 ;; This function calls:
  3425 ;;		Nothing
  3426 ;; This function is called by:
  3427 ;;		_UART1_Initialize
  3428 ;; This function uses a non-reentrant model
  3429 ;;
  3430                           
  3431                           	psect	text10
  3432  004C3A                     __ptext10:
  3433                           	callstack 0
  3434  004C3A                     _UART1_SetOverrunErrorHandler:
  3435                           	callstack 24
  3436  004C3A                     
  3437                           ;mcc_generated_files/uart1.c: 338:     UART1_OverrunErrorHandler = interruptHandler;
  3438  004C3A  C0A8  F0E3         	movff	UART1_SetOverrunErrorHandler@interruptHandler,_UART1_OverrunErrorHandler
  3439  004C3E  C0A9  F0E4         	movff	UART1_SetOverrunErrorHandler@interruptHandler+1,_UART1_OverrunErrorHandler+1
  3440  004C42  C0AA  F0E5         	movff	UART1_SetOverrunErrorHandler@interruptHandler+2,_UART1_OverrunErrorHandler+2
  3441  004C46  0012               	return		;funcret
  3442  004C48                     __end_of_UART1_SetOverrunErrorHandler:
  3443                           	callstack 0
  3444                           
  3445 ;; *************** function _UART1_SetFramingErrorHandler *****************
  3446 ;; Defined at:
  3447 ;;		line 333 in file "mcc_generated_files/uart1.c"
  3448 ;; Parameters:    Size  Location     Type
  3449 ;;  interruptHan    3    0[BANK0 ] PTR FTN()void 
  3450 ;;		 -> UART1_DefaultFramingErrorHandler(1), 
  3451 ;; Auto vars:     Size  Location     Type
  3452 ;;		None
  3453 ;; Return value:  Size  Location     Type
  3454 ;;                  1    wreg      void 
  3455 ;; Registers used:
  3456 ;;		wreg, status,2, status,0
  3457 ;; Tracked objects:
  3458 ;;		On entry : 0/0
  3459 ;;		On exit  : 0/0
  3460 ;;		Unchanged: 0/0
  3461 ;; Data sizes:     COMRAM   BANK0   BANK1   BANK2   BANK3   BANK4   BANK5   BANK6   BANK7   BANK8   BANK9  BANK10  BANK1
      +1  BANK12  BANK13  BANK14  BANK15  BANK16  BANK17  BANK18  BANK19  BANK20  BANK21  BANK22  BANK23  BANK24  BANK25  BANK2
      +6  BANK27  BANK28  BANK29  BANK30  BANK31
  3462 ;;      Params:         0       3       0       0       0       0       0       0       0       0       0       0       
      +0       0       0       0       0       0       0       0       0       0       0       0       0       0       0       
      +0       0       0       0       0       0
  3463 ;;      Locals:         0       0       0       0       0       0       0       0       0       0       0       0       
      +0       0       0       0       0       0       0       0       0       0       0       0       0       0       0       
      +0       0       0       0       0       0
  3464 ;;      Temps:          0       0       0       0       0       0       0       0       0       0       0       0       
      +0       0       0       0       0       0       0       0       0       0       0       0       0       0       0       
      +0       0       0       0       0       0
  3465 ;;      Totals:         0       3       0       0       0       0       0       0       0       0       0       0       
      +0       0       0       0       0       0       0       0       0       0       0       0       0       0       0       
      +0       0       0       0       0       0
  3466 ;;Total ram usage:        3 bytes
  3467 ;; Hardware stack levels used: 1
  3468 ;; Hardware stack levels required when called: 4
  3469 ;; This function calls:
  3470 ;;		Nothing
  3471 ;; This function is called by:
  3472 ;;		_UART1_Initialize
  3473 ;; This function uses a non-reentrant model
  3474 ;;
  3475                           
  3476                           	psect	text11
  3477  004C48                     __ptext11:
  3478                           	callstack 0
  3479  004C48                     _UART1_SetFramingErrorHandler:
  3480                           	callstack 24
  3481  004C48                     
  3482                           ;mcc_generated_files/uart1.c: 334:     UART1_FramingErrorHandler = interruptHandler;
  3483  004C48  C0A8  F0E6         	movff	UART1_SetFramingErrorHandler@interruptHandler,_UART1_FramingErrorHandler
  3484  004C4C  C0A9  F0E7         	movff	UART1_SetFramingErrorHandler@interruptHandler+1,_UART1_FramingErrorHandler+1
  3485  004C50  C0AA  F0E8         	movff	UART1_SetFramingErrorHandler@interruptHandler+2,_UART1_FramingErrorHandler+2
  3486  004C54  0012               	return		;funcret
  3487  004C56                     __end_of_UART1_SetFramingErrorHandler:
  3488                           	callstack 0
  3489                           
  3490 ;; *************** function _UART1_SetErrorHandler *****************
  3491 ;; Defined at:
  3492 ;;		line 341 in file "mcc_generated_files/uart1.c"
  3493 ;; Parameters:    Size  Location     Type
  3494 ;;  interruptHan    3    0[BANK0 ] PTR FTN()void 
  3495 ;;		 -> UART1_DefaultErrorHandler(1), 
  3496 ;; Auto vars:     Size  Location     Type
  3497 ;;		None
  3498 ;; Return value:  Size  Location     Type
  3499 ;;                  1    wreg      void 
  3500 ;; Registers used:
  3501 ;;		wreg, status,2, status,0
  3502 ;; Tracked objects:
  3503 ;;		On entry : 0/0
  3504 ;;		On exit  : 0/0
  3505 ;;		Unchanged: 0/0
  3506 ;; Data sizes:     COMRAM   BANK0   BANK1   BANK2   BANK3   BANK4   BANK5   BANK6   BANK7   BANK8   BANK9  BANK10  BANK1
      +1  BANK12  BANK13  BANK14  BANK15  BANK16  BANK17  BANK18  BANK19  BANK20  BANK21  BANK22  BANK23  BANK24  BANK25  BANK2
      +6  BANK27  BANK28  BANK29  BANK30  BANK31
  3507 ;;      Params:         0       3       0       0       0       0       0       0       0       0       0       0       
      +0       0       0       0       0       0       0       0       0       0       0       0       0       0       0       
      +0       0       0       0       0       0
  3508 ;;      Locals:         0       0       0       0       0       0       0       0       0       0       0       0       
      +0       0       0       0       0       0       0       0       0       0       0       0       0       0       0       
      +0       0       0       0       0       0
  3509 ;;      Temps:          0       0       0       0       0       0       0       0       0       0       0       0       
      +0       0       0       0       0       0       0       0       0       0       0       0       0       0       0       
      +0       0       0       0       0       0
  3510 ;;      Totals:         0       3       0       0       0       0       0       0       0       0       0       0       
      +0       0       0       0       0       0       0       0       0       0       0       0       0       0       0       
      +0       0       0       0       0       0
  3511 ;;Total ram usage:        3 bytes
  3512 ;; Hardware stack levels used: 1
  3513 ;; Hardware stack levels required when called: 4
  3514 ;; This function calls:
  3515 ;;		Nothing
  3516 ;; This function is called by:
  3517 ;;		_UART1_Initialize
  3518 ;; This function uses a non-reentrant model
  3519 ;;
  3520                           
  3521                           	psect	text12
  3522  004C56                     __ptext12:
  3523                           	callstack 0
  3524  004C56                     _UART1_SetErrorHandler:
  3525                           	callstack 24
  3526  004C56                     
  3527                           ;mcc_generated_files/uart1.c: 342:     UART1_ErrorHandler = interruptHandler;
  3528  004C56  C0A8  F144         	movff	UART1_SetErrorHandler@interruptHandler,_UART1_ErrorHandler
  3529  004C5A  C0A9  F145         	movff	UART1_SetErrorHandler@interruptHandler+1,_UART1_ErrorHandler+1
  3530  004C5E  C0AA  F146         	movff	UART1_SetErrorHandler@interruptHandler+2,_UART1_ErrorHandler+2
  3531  004C62  0012               	return		;funcret
  3532  004C64                     __end_of_UART1_SetErrorHandler:
  3533                           	callstack 0
  3534                           
  3535 ;; *************** function _TMR6_Initialize *****************
  3536 ;; Defined at:
  3537 ;;		line 64 in file "mcc_generated_files/tmr6.c"
  3538 ;; Parameters:    Size  Location     Type
  3539 ;;		None
  3540 ;; Auto vars:     Size  Location     Type
  3541 ;;		None
  3542 ;; Return value:  Size  Location     Type
  3543 ;;                  1    wreg      void 
  3544 ;; Registers used:
  3545 ;;		wreg, status,2, status,0, cstack
  3546 ;; Tracked objects:
  3547 ;;		On entry : 0/0
  3548 ;;		On exit  : 0/0
  3549 ;;		Unchanged: 0/0
  3550 ;; Data sizes:     COMRAM   BANK0   BANK1   BANK2   BANK3   BANK4   BANK5   BANK6   BANK7   BANK8   BANK9  BANK10  BANK1
      +1  BANK12  BANK13  BANK14  BANK15  BANK16  BANK17  BANK18  BANK19  BANK20  BANK21  BANK22  BANK23  BANK24  BANK25  BANK2
      +6  BANK27  BANK28  BANK29  BANK30  BANK31
  3551 ;;      Params:         0       0       0       0       0       0       0       0       0       0       0       0       
      +0       0       0       0       0       0       0       0       0       0       0       0       0       0       0       
      +0       0       0       0       0       0
  3552 ;;      Locals:         0       0       0       0       0       0       0       0       0       0       0       0       
      +0       0       0       0       0       0       0       0       0       0       0       0       0       0       0       
      +0       0       0       0       0       0
  3553 ;;      Temps:          0       0       0       0       0       0       0       0       0       0       0       0       
      +0       0       0       0       0       0       0       0       0       0       0       0       0       0       0       
      +0       0       0       0       0       0
  3554 ;;      Totals:         0       0       0       0       0       0       0       0       0       0       0       0       
      +0       0       0       0       0       0       0       0       0       0       0       0       0       0       0       
      +0       0       0       0       0       0
  3555 ;;Total ram usage:        0 bytes
  3556 ;; Hardware stack levels used: 1
  3557 ;; Hardware stack levels required when called: 5
  3558 ;; This function calls:
  3559 ;;		_TMR6_SetInterruptHandler
  3560 ;; This function is called by:
  3561 ;;		_SYSTEM_Initialize
  3562 ;; This function uses a non-reentrant model
  3563 ;;
  3564                           
  3565                           	psect	text13
  3566  004A62                     __ptext13:
  3567                           	callstack 0
  3568  004A62                     _TMR6_Initialize:
  3569                           	callstack 24
  3570  004A62                     
  3571                           ;mcc_generated_files/tmr6.c: 69:     T6CLKCON = 0x03;
  3572  004A62  0E03               	movlw	3
  3573  004A64  6E96               	movwf	150,c	;volatile
  3574                           
  3575                           ;mcc_generated_files/tmr6.c: 72:     T6HLT = 0x00;
  3576  004A66  0E00               	movlw	0
  3577  004A68  6E95               	movwf	149,c	;volatile
  3578                           
  3579                           ;mcc_generated_files/tmr6.c: 75:     T6RST = 0x00;
  3580  004A6A  0E00               	movlw	0
  3581  004A6C  6E97               	movwf	151,c	;volatile
  3582                           
  3583                           ;mcc_generated_files/tmr6.c: 78:     T6PR = 0x1B;
  3584  004A6E  0E1B               	movlw	27
  3585  004A70  6E93               	movwf	147,c	;volatile
  3586                           
  3587                           ;mcc_generated_files/tmr6.c: 81:     T6TMR = 0x00;
  3588  004A72  0E00               	movlw	0
  3589  004A74  6E92               	movwf	146,c	;volatile
  3590  004A76                     
  3591                           ;mcc_generated_files/tmr6.c: 84:     PIR9bits.TMR6IF = 0;
  3592  004A76  0139               	movlb	57	; () banked
  3593  004A78  91A9               	bcf	169,0,b	;volatile
  3594  004A7A                     
  3595                           ; BSR set to: 57
  3596                           ;mcc_generated_files/tmr6.c: 87:     PIE9bits.TMR6IE = 1;
  3597  004A7A  8199               	bsf	153,0,b	;volatile
  3598  004A7C                     
  3599                           ; BSR set to: 57
  3600                           ;mcc_generated_files/tmr6.c: 90:     TMR6_SetInterruptHandler(TMR6_DefaultInterruptHandl
      +                          er);
  3601  004A7C  0E00               	movlw	0
  3602  004A7E  0100               	movlb	0	; () banked
  3603  004A80  6FA8               	movwf	TMR6_SetInterruptHandler@InterruptHandler& (0+255),b
  3604  004A82  0E00               	movlw	0
  3605  004A84  6FA9               	movwf	(TMR6_SetInterruptHandler@InterruptHandler+1)& (0+255),b
  3606  004A86  0E00               	movlw	0
  3607  004A88  6FAA               	movwf	(TMR6_SetInterruptHandler@InterruptHandler+2)& (0+255),b
  3608  004A8A  EC32  F026         	call	_TMR6_SetInterruptHandler	;wreg free
  3609  004A8E                     
  3610                           ;mcc_generated_files/tmr6.c: 93:     T6CON = 0xCF;
  3611  004A8E  0ECF               	movlw	207
  3612  004A90  6E94               	movwf	148,c	;volatile
  3613  004A92  0012               	return		;funcret
  3614  004A94                     __end_of_TMR6_Initialize:
  3615                           	callstack 0
  3616                           
  3617 ;; *************** function _TMR6_SetInterruptHandler *****************
  3618 ;; Defined at:
  3619 ;;		line 178 in file "mcc_generated_files/tmr6.c"
  3620 ;; Parameters:    Size  Location     Type
  3621 ;;  InterruptHan    3    0[BANK0 ] PTR FTN()void 
  3622 ;;		 -> TMR6_DefaultInterruptHandler(1), 
  3623 ;; Auto vars:     Size  Location     Type
  3624 ;;		None
  3625 ;; Return value:  Size  Location     Type
  3626 ;;                  1    wreg      void 
  3627 ;; Registers used:
  3628 ;;		wreg, status,2, status,0
  3629 ;; Tracked objects:
  3630 ;;		On entry : 0/0
  3631 ;;		On exit  : 0/0
  3632 ;;		Unchanged: 0/0
  3633 ;; Data sizes:     COMRAM   BANK0   BANK1   BANK2   BANK3   BANK4   BANK5   BANK6   BANK7   BANK8   BANK9  BANK10  BANK1
      +1  BANK12  BANK13  BANK14  BANK15  BANK16  BANK17  BANK18  BANK19  BANK20  BANK21  BANK22  BANK23  BANK24  BANK25  BANK2
      +6  BANK27  BANK28  BANK29  BANK30  BANK31
  3634 ;;      Params:         0       3       0       0       0       0       0       0       0       0       0       0       
      +0       0       0       0       0       0       0       0       0       0       0       0       0       0       0       
      +0       0       0       0       0       0
  3635 ;;      Locals:         0       0       0       0       0       0       0       0       0       0       0       0       
      +0       0       0       0       0       0       0       0       0       0       0       0       0       0       0       
      +0       0       0       0       0       0
  3636 ;;      Temps:          0       0       0       0       0       0       0       0       0       0       0       0       
      +0       0       0       0       0       0       0       0       0       0       0       0       0       0       0       
      +0       0       0       0       0       0
  3637 ;;      Totals:         0       3       0       0       0       0       0       0       0       0       0       0       
      +0       0       0       0       0       0       0       0       0       0       0       0       0       0       0       
      +0       0       0       0       0       0
  3638 ;;Total ram usage:        3 bytes
  3639 ;; Hardware stack levels used: 1
  3640 ;; Hardware stack levels required when called: 4
  3641 ;; This function calls:
  3642 ;;		Nothing
  3643 ;; This function is called by:
  3644 ;;		_TMR6_Initialize
  3645 ;; This function uses a non-reentrant model
  3646 ;;
  3647                           
  3648                           	psect	text14
  3649  004C64                     __ptext14:
  3650                           	callstack 0
  3651  004C64                     _TMR6_SetInterruptHandler:
  3652                           	callstack 24
  3653  004C64                     
  3654                           ;mcc_generated_files/tmr6.c: 179:     TMR6_InterruptHandler = InterruptHandler;
  3655  004C64  C0A8  F0E9         	movff	TMR6_SetInterruptHandler@InterruptHandler,_TMR6_InterruptHandler
  3656  004C68  C0A9  F0EA         	movff	TMR6_SetInterruptHandler@InterruptHandler+1,_TMR6_InterruptHandler+1
  3657  004C6C  C0AA  F0EB         	movff	TMR6_SetInterruptHandler@InterruptHandler+2,_TMR6_InterruptHandler+2
  3658  004C70  0012               	return		;funcret
  3659  004C72                     __end_of_TMR6_SetInterruptHandler:
  3660                           	callstack 0
  3661                           
  3662 ;; *************** function _TMR5_Initialize *****************
  3663 ;; Defined at:
  3664 ;;		line 64 in file "mcc_generated_files/tmr5.c"
  3665 ;; Parameters:    Size  Location     Type
  3666 ;;		None
  3667 ;; Auto vars:     Size  Location     Type
  3668 ;;		None
  3669 ;; Return value:  Size  Location     Type
  3670 ;;                  1    wreg      void 
  3671 ;; Registers used:
  3672 ;;		wreg, status,2, status,0, cstack
  3673 ;; Tracked objects:
  3674 ;;		On entry : 0/0
  3675 ;;		On exit  : 0/0
  3676 ;;		Unchanged: 0/0
  3677 ;; Data sizes:     COMRAM   BANK0   BANK1   BANK2   BANK3   BANK4   BANK5   BANK6   BANK7   BANK8   BANK9  BANK10  BANK1
      +1  BANK12  BANK13  BANK14  BANK15  BANK16  BANK17  BANK18  BANK19  BANK20  BANK21  BANK22  BANK23  BANK24  BANK25  BANK2
      +6  BANK27  BANK28  BANK29  BANK30  BANK31
  3678 ;;      Params:         0       0       0       0       0       0       0       0       0       0       0       0       
      +0       0       0       0       0       0       0       0       0       0       0       0       0       0       0       
      +0       0       0       0       0       0
  3679 ;;      Locals:         0       0       0       0       0       0       0       0       0       0       0       0       
      +0       0       0       0       0       0       0       0       0       0       0       0       0       0       0       
      +0       0       0       0       0       0
  3680 ;;      Temps:          0       2       0       0       0       0       0       0       0       0       0       0       
      +0       0       0       0       0       0       0       0       0       0       0       0       0       0       0       
      +0       0       0       0       0       0
  3681 ;;      Totals:         0       2       0       0       0       0       0       0       0       0       0       0       
      +0       0       0       0       0       0       0       0       0       0       0       0       0       0       0       
      +0       0       0       0       0       0
  3682 ;;Total ram usage:        2 bytes
  3683 ;; Hardware stack levels used: 1
  3684 ;; Hardware stack levels required when called: 5
  3685 ;; This function calls:
  3686 ;;		_TMR5_SetInterruptHandler
  3687 ;; This function is called by:
  3688 ;;		_SYSTEM_Initialize
  3689 ;; This function uses a non-reentrant model
  3690 ;;
  3691                           
  3692                           	psect	text15
  3693  0048E4                     __ptext15:
  3694                           	callstack 0
  3695  0048E4                     _TMR5_Initialize:
  3696                           	callstack 24
  3697  0048E4                     
  3698                           ;mcc_generated_files/tmr5.c: 69:     T5GCON = 0x00;
  3699  0048E4  0E00               	movlw	0
  3700  0048E6  6E9B               	movwf	155,c	;volatile
  3701                           
  3702                           ;mcc_generated_files/tmr5.c: 72:     T5GATE = 0x00;
  3703  0048E8  0E00               	movlw	0
  3704  0048EA  6E9C               	movwf	156,c	;volatile
  3705                           
  3706                           ;mcc_generated_files/tmr5.c: 75:     T5CLK = 0x05;
  3707  0048EC  0E05               	movlw	5
  3708  0048EE  6E9D               	movwf	157,c	;volatile
  3709                           
  3710                           ;mcc_generated_files/tmr5.c: 78:     TMR5H = 0xE7;
  3711  0048F0  0EE7               	movlw	231
  3712  0048F2  6E99               	movwf	153,c	;volatile
  3713                           
  3714                           ;mcc_generated_files/tmr5.c: 81:     TMR5L = 0x96;
  3715  0048F4  0E96               	movlw	150
  3716  0048F6  6E98               	movwf	152,c	;volatile
  3717  0048F8                     
  3718                           ;mcc_generated_files/tmr5.c: 84:     PIR8bits.TMR5IF = 0;
  3719  0048F8  0139               	movlb	57	; () banked
  3720  0048FA  9DA8               	bcf	168,6,b	;volatile
  3721  0048FC                     
  3722                           ; BSR set to: 57
  3723                           ;mcc_generated_files/tmr5.c: 87:     timer5ReloadVal=(uint16_t)((TMR5H << 8) | TMR5L);
  3724  0048FC  5098               	movf	152,w,c	;volatile
  3725  0048FE  006F FE64  F0AB    	movff	16281,??_TMR5_Initialize	;volatile
  3726  004904  0100               	movlb	0	; () banked
  3727  004906  6BAC               	clrf	(??_TMR5_Initialize+1)& (0+255),b
  3728  004908  C0AB  F0AC         	movff	??_TMR5_Initialize,??_TMR5_Initialize+1
  3729  00490C  6BAB               	clrf	??_TMR5_Initialize& (0+255),b
  3730  00490E  11AB               	iorwf	??_TMR5_Initialize& (0+255),w,b
  3731  004910  6FF6               	movwf	_timer5ReloadVal& (0+255),b	;volatile
  3732  004912  51AC               	movf	(??_TMR5_Initialize+1)& (0+255),w,b
  3733  004914  6FF7               	movwf	(_timer5ReloadVal+1)& (0+255),b	;volatile
  3734  004916                     
  3735                           ; BSR set to: 0
  3736                           ;mcc_generated_files/tmr5.c: 90:     PIE8bits.TMR5IE = 1;
  3737  004916  0139               	movlb	57	; () banked
  3738  004918  8D98               	bsf	152,6,b	;volatile
  3739  00491A                     
  3740                           ; BSR set to: 57
  3741                           ;mcc_generated_files/tmr5.c: 93:     TMR5_SetInterruptHandler(TMR5_DefaultInterruptHandl
      +                          er);
  3742  00491A  0E00               	movlw	0
  3743  00491C  0100               	movlb	0	; () banked
  3744  00491E  6FA8               	movwf	TMR5_SetInterruptHandler@InterruptHandler& (0+255),b
  3745  004920  0E00               	movlw	0
  3746  004922  6FA9               	movwf	(TMR5_SetInterruptHandler@InterruptHandler+1)& (0+255),b
  3747  004924  0E00               	movlw	0
  3748  004926  6FAA               	movwf	(TMR5_SetInterruptHandler@InterruptHandler+2)& (0+255),b
  3749  004928  EC39  F026         	call	_TMR5_SetInterruptHandler	;wreg free
  3750  00492C                     
  3751                           ;mcc_generated_files/tmr5.c: 96:     T5CON = 0x33;
  3752  00492C  0E33               	movlw	51
  3753  00492E  6E9A               	movwf	154,c	;volatile
  3754  004930  0012               	return		;funcret
  3755  004932                     __end_of_TMR5_Initialize:
  3756                           	callstack 0
  3757                           
  3758 ;; *************** function _TMR5_SetInterruptHandler *****************
  3759 ;; Defined at:
  3760 ;;		line 178 in file "mcc_generated_files/tmr5.c"
  3761 ;; Parameters:    Size  Location     Type
  3762 ;;  InterruptHan    3    0[BANK0 ] PTR FTN()void 
  3763 ;;		 -> TMR5_DefaultInterruptHandler(1), 
  3764 ;; Auto vars:     Size  Location     Type
  3765 ;;		None
  3766 ;; Return value:  Size  Location     Type
  3767 ;;                  1    wreg      void 
  3768 ;; Registers used:
  3769 ;;		wreg, status,2, status,0
  3770 ;; Tracked objects:
  3771 ;;		On entry : 0/0
  3772 ;;		On exit  : 0/0
  3773 ;;		Unchanged: 0/0
  3774 ;; Data sizes:     COMRAM   BANK0   BANK1   BANK2   BANK3   BANK4   BANK5   BANK6   BANK7   BANK8   BANK9  BANK10  BANK1
      +1  BANK12  BANK13  BANK14  BANK15  BANK16  BANK17  BANK18  BANK19  BANK20  BANK21  BANK22  BANK23  BANK24  BANK25  BANK2
      +6  BANK27  BANK28  BANK29  BANK30  BANK31
  3775 ;;      Params:         0       3       0       0       0       0       0       0       0       0       0       0       
      +0       0       0       0       0       0       0       0       0       0       0       0       0       0       0       
      +0       0       0       0       0       0
  3776 ;;      Locals:         0       0       0       0       0       0       0       0       0       0       0       0       
      +0       0       0       0       0       0       0       0       0       0       0       0       0       0       0       
      +0       0       0       0       0       0
  3777 ;;      Temps:          0       0       0       0       0       0       0       0       0       0       0       0       
      +0       0       0       0       0       0       0       0       0       0       0       0       0       0       0       
      +0       0       0       0       0       0
  3778 ;;      Totals:         0       3       0       0       0       0       0       0       0       0       0       0       
      +0       0       0       0       0       0       0       0       0       0       0       0       0       0       0       
      +0       0       0       0       0       0
  3779 ;;Total ram usage:        3 bytes
  3780 ;; Hardware stack levels used: 1
  3781 ;; Hardware stack levels required when called: 4
  3782 ;; This function calls:
  3783 ;;		Nothing
  3784 ;; This function is called by:
  3785 ;;		_TMR5_Initialize
  3786 ;; This function uses a non-reentrant model
  3787 ;;
  3788                           
  3789                           	psect	text16
  3790  004C72                     __ptext16:
  3791                           	callstack 0
  3792  004C72                     _TMR5_SetInterruptHandler:
  3793                           	callstack 24
  3794  004C72                     
  3795                           ;mcc_generated_files/tmr5.c: 179:     TMR5_InterruptHandler = InterruptHandler;
  3796  004C72  C0A8  F0DD         	movff	TMR5_SetInterruptHandler@InterruptHandler,_TMR5_InterruptHandler
  3797  004C76  C0A9  F0DE         	movff	TMR5_SetInterruptHandler@InterruptHandler+1,_TMR5_InterruptHandler+1
  3798  004C7A  C0AA  F0DF         	movff	TMR5_SetInterruptHandler@InterruptHandler+2,_TMR5_InterruptHandler+2
  3799  004C7E  0012               	return		;funcret
  3800  004C80                     __end_of_TMR5_SetInterruptHandler:
  3801                           	callstack 0
  3802                           
  3803 ;; *************** function _TMR4_Initialize *****************
  3804 ;; Defined at:
  3805 ;;		line 64 in file "mcc_generated_files/tmr4.c"
  3806 ;; Parameters:    Size  Location     Type
  3807 ;;		None
  3808 ;; Auto vars:     Size  Location     Type
  3809 ;;		None
  3810 ;; Return value:  Size  Location     Type
  3811 ;;                  1    wreg      void 
  3812 ;; Registers used:
  3813 ;;		wreg, status,2, status,0, cstack
  3814 ;; Tracked objects:
  3815 ;;		On entry : 0/0
  3816 ;;		On exit  : 0/0
  3817 ;;		Unchanged: 0/0
  3818 ;; Data sizes:     COMRAM   BANK0   BANK1   BANK2   BANK3   BANK4   BANK5   BANK6   BANK7   BANK8   BANK9  BANK10  BANK1
      +1  BANK12  BANK13  BANK14  BANK15  BANK16  BANK17  BANK18  BANK19  BANK20  BANK21  BANK22  BANK23  BANK24  BANK25  BANK2
      +6  BANK27  BANK28  BANK29  BANK30  BANK31
  3819 ;;      Params:         0       0       0       0       0       0       0       0       0       0       0       0       
      +0       0       0       0       0       0       0       0       0       0       0       0       0       0       0       
      +0       0       0       0       0       0
  3820 ;;      Locals:         0       0       0       0       0       0       0       0       0       0       0       0       
      +0       0       0       0       0       0       0       0       0       0       0       0       0       0       0       
      +0       0       0       0       0       0
  3821 ;;      Temps:          0       0       0       0       0       0       0       0       0       0       0       0       
      +0       0       0       0       0       0       0       0       0       0       0       0       0       0       0       
      +0       0       0       0       0       0
  3822 ;;      Totals:         0       0       0       0       0       0       0       0       0       0       0       0       
      +0       0       0       0       0       0       0       0       0       0       0       0       0       0       0       
      +0       0       0       0       0       0
  3823 ;;Total ram usage:        0 bytes
  3824 ;; Hardware stack levels used: 1
  3825 ;; Hardware stack levels required when called: 5
  3826 ;; This function calls:
  3827 ;;		_TMR4_SetInterruptHandler
  3828 ;; This function is called by:
  3829 ;;		_SYSTEM_Initialize
  3830 ;; This function uses a non-reentrant model
  3831 ;;
  3832                           
  3833                           	psect	text17
  3834  004A94                     __ptext17:
  3835                           	callstack 0
  3836  004A94                     _TMR4_Initialize:
  3837                           	callstack 24
  3838  004A94                     
  3839                           ;mcc_generated_files/tmr4.c: 69:     T4CLKCON = 0x03;
  3840  004A94  0E03               	movlw	3
  3841  004A96  6EA2               	movwf	162,c	;volatile
  3842                           
  3843                           ;mcc_generated_files/tmr4.c: 72:     T4HLT = 0x00;
  3844  004A98  0E00               	movlw	0
  3845  004A9A  6EA1               	movwf	161,c	;volatile
  3846                           
  3847                           ;mcc_generated_files/tmr4.c: 75:     T4RST = 0x00;
  3848  004A9C  0E00               	movlw	0
  3849  004A9E  6EA3               	movwf	163,c	;volatile
  3850                           
  3851                           ;mcc_generated_files/tmr4.c: 78:     T4PR = 0xA7;
  3852  004AA0  0EA7               	movlw	167
  3853  004AA2  6E9F               	movwf	159,c	;volatile
  3854                           
  3855                           ;mcc_generated_files/tmr4.c: 81:     T4TMR = 0x00;
  3856  004AA4  0E00               	movlw	0
  3857  004AA6  6E9E               	movwf	158,c	;volatile
  3858  004AA8                     
  3859                           ;mcc_generated_files/tmr4.c: 84:     PIR7bits.TMR4IF = 0;
  3860  004AA8  0139               	movlb	57	; () banked
  3861  004AAA  91A7               	bcf	167,0,b	;volatile
  3862  004AAC                     
  3863                           ; BSR set to: 57
  3864                           ;mcc_generated_files/tmr4.c: 87:     PIE7bits.TMR4IE = 1;
  3865  004AAC  8197               	bsf	151,0,b	;volatile
  3866  004AAE                     
  3867                           ; BSR set to: 57
  3868                           ;mcc_generated_files/tmr4.c: 90:     TMR4_SetInterruptHandler(TMR4_DefaultInterruptHandl
      +                          er);
  3869  004AAE  0E00               	movlw	0
  3870  004AB0  0100               	movlb	0	; () banked
  3871  004AB2  6FA8               	movwf	TMR4_SetInterruptHandler@InterruptHandler& (0+255),b
  3872  004AB4  0E00               	movlw	0
  3873  004AB6  6FA9               	movwf	(TMR4_SetInterruptHandler@InterruptHandler+1)& (0+255),b
  3874  004AB8  0E00               	movlw	0
  3875  004ABA  6FAA               	movwf	(TMR4_SetInterruptHandler@InterruptHandler+2)& (0+255),b
  3876  004ABC  EC40  F026         	call	_TMR4_SetInterruptHandler	;wreg free
  3877  004AC0                     
  3878                           ;mcc_generated_files/tmr4.c: 93:     T4CON = 0x97;
  3879  004AC0  0E97               	movlw	151
  3880  004AC2  6EA0               	movwf	160,c	;volatile
  3881  004AC4  0012               	return		;funcret
  3882  004AC6                     __end_of_TMR4_Initialize:
  3883                           	callstack 0
  3884                           
  3885 ;; *************** function _TMR4_SetInterruptHandler *****************
  3886 ;; Defined at:
  3887 ;;		line 178 in file "mcc_generated_files/tmr4.c"
  3888 ;; Parameters:    Size  Location     Type
  3889 ;;  InterruptHan    3    0[BANK0 ] PTR FTN()void 
  3890 ;;		 -> TMR4_DefaultInterruptHandler(1), 
  3891 ;; Auto vars:     Size  Location     Type
  3892 ;;		None
  3893 ;; Return value:  Size  Location     Type
  3894 ;;                  1    wreg      void 
  3895 ;; Registers used:
  3896 ;;		wreg, status,2, status,0
  3897 ;; Tracked objects:
  3898 ;;		On entry : 0/0
  3899 ;;		On exit  : 0/0
  3900 ;;		Unchanged: 0/0
  3901 ;; Data sizes:     COMRAM   BANK0   BANK1   BANK2   BANK3   BANK4   BANK5   BANK6   BANK7   BANK8   BANK9  BANK10  BANK1
      +1  BANK12  BANK13  BANK14  BANK15  BANK16  BANK17  BANK18  BANK19  BANK20  BANK21  BANK22  BANK23  BANK24  BANK25  BANK2
      +6  BANK27  BANK28  BANK29  BANK30  BANK31
  3902 ;;      Params:         0       3       0       0       0       0       0       0       0       0       0       0       
      +0       0       0       0       0       0       0       0       0       0       0       0       0       0       0       
      +0       0       0       0       0       0
  3903 ;;      Locals:         0       0       0       0       0       0       0       0       0       0       0       0       
      +0       0       0       0       0       0       0       0       0       0       0       0       0       0       0       
      +0       0       0       0       0       0
  3904 ;;      Temps:          0       0       0       0       0       0       0       0       0       0       0       0       
      +0       0       0       0       0       0       0       0       0       0       0       0       0       0       0       
      +0       0       0       0       0       0
  3905 ;;      Totals:         0       3       0       0       0       0       0       0       0       0       0       0       
      +0       0       0       0       0       0       0       0       0       0       0       0       0       0       0       
      +0       0       0       0       0       0
  3906 ;;Total ram usage:        3 bytes
  3907 ;; Hardware stack levels used: 1
  3908 ;; Hardware stack levels required when called: 4
  3909 ;; This function calls:
  3910 ;;		Nothing
  3911 ;; This function is called by:
  3912 ;;		_TMR4_Initialize
  3913 ;; This function uses a non-reentrant model
  3914 ;;
  3915                           
  3916                           	psect	text18
  3917  004C80                     __ptext18:
  3918                           	callstack 0
  3919  004C80                     _TMR4_SetInterruptHandler:
  3920                           	callstack 24
  3921  004C80                     
  3922                           ;mcc_generated_files/tmr4.c: 179:     TMR4_InterruptHandler = InterruptHandler;
  3923  004C80  C0A8  F0EC         	movff	TMR4_SetInterruptHandler@InterruptHandler,_TMR4_InterruptHandler
  3924  004C84  C0A9  F0ED         	movff	TMR4_SetInterruptHandler@InterruptHandler+1,_TMR4_InterruptHandler+1
  3925  004C88  C0AA  F0EE         	movff	TMR4_SetInterruptHandler@InterruptHandler+2,_TMR4_InterruptHandler+2
  3926  004C8C  0012               	return		;funcret
  3927  004C8E                     __end_of_TMR4_SetInterruptHandler:
  3928                           	callstack 0
  3929                           
  3930 ;; *************** function _TMR2_Initialize *****************
  3931 ;; Defined at:
  3932 ;;		line 62 in file "mcc_generated_files/tmr2.c"
  3933 ;; Parameters:    Size  Location     Type
  3934 ;;		None
  3935 ;; Auto vars:     Size  Location     Type
  3936 ;;		None
  3937 ;; Return value:  Size  Location     Type
  3938 ;;                  1    wreg      void 
  3939 ;; Registers used:
  3940 ;;		wreg, status,2
  3941 ;; Tracked objects:
  3942 ;;		On entry : 0/0
  3943 ;;		On exit  : 0/0
  3944 ;;		Unchanged: 0/0
  3945 ;; Data sizes:     COMRAM   BANK0   BANK1   BANK2   BANK3   BANK4   BANK5   BANK6   BANK7   BANK8   BANK9  BANK10  BANK1
      +1  BANK12  BANK13  BANK14  BANK15  BANK16  BANK17  BANK18  BANK19  BANK20  BANK21  BANK22  BANK23  BANK24  BANK25  BANK2
      +6  BANK27  BANK28  BANK29  BANK30  BANK31
  3946 ;;      Params:         0       0       0       0       0       0       0       0       0       0       0       0       
      +0       0       0       0       0       0       0       0       0       0       0       0       0       0       0       
      +0       0       0       0       0       0
  3947 ;;      Locals:         0       0       0       0       0       0       0       0       0       0       0       0       
      +0       0       0       0       0       0       0       0       0       0       0       0       0       0       0       
      +0       0       0       0       0       0
  3948 ;;      Temps:          0       0       0       0       0       0       0       0       0       0       0       0       
      +0       0       0       0       0       0       0       0       0       0       0       0       0       0       0       
      +0       0       0       0       0       0
  3949 ;;      Totals:         0       0       0       0       0       0       0       0       0       0       0       0       
      +0       0       0       0       0       0       0       0       0       0       0       0       0       0       0       
      +0       0       0       0       0       0
  3950 ;;Total ram usage:        0 bytes
  3951 ;; Hardware stack levels used: 1
  3952 ;; Hardware stack levels required when called: 4
  3953 ;; This function calls:
  3954 ;;		Nothing
  3955 ;; This function is called by:
  3956 ;;		_SYSTEM_Initialize
  3957 ;; This function uses a non-reentrant model
  3958 ;;
  3959                           
  3960                           	psect	text19
  3961  004B8C                     __ptext19:
  3962                           	callstack 0
  3963  004B8C                     _TMR2_Initialize:
  3964                           	callstack 25
  3965  004B8C                     
  3966                           ;mcc_generated_files/tmr2.c: 67:     T2CLKCON = 0x01;
  3967  004B8C  0E01               	movlw	1
  3968  004B8E  6EAE               	movwf	174,c	;volatile
  3969                           
  3970                           ;mcc_generated_files/tmr2.c: 70:     T2HLT = 0x00;
  3971  004B90  0E00               	movlw	0
  3972  004B92  6EAD               	movwf	173,c	;volatile
  3973                           
  3974                           ;mcc_generated_files/tmr2.c: 73:     T2RST = 0x00;
  3975  004B94  0E00               	movlw	0
  3976  004B96  6EAF               	movwf	175,c	;volatile
  3977                           
  3978                           ;mcc_generated_files/tmr2.c: 76:     T2PR = 0x95;
  3979  004B98  0E95               	movlw	149
  3980  004B9A  6EAB               	movwf	171,c	;volatile
  3981                           
  3982                           ;mcc_generated_files/tmr2.c: 79:     T2TMR = 0x00;
  3983  004B9C  0E00               	movlw	0
  3984  004B9E  6EAA               	movwf	170,c	;volatile
  3985  004BA0                     
  3986                           ;mcc_generated_files/tmr2.c: 82:     PIR4bits.TMR2IF = 0;
  3987  004BA0  0139               	movlb	57	; () banked
  3988  004BA2  95A4               	bcf	164,2,b	;volatile
  3989                           
  3990                           ;mcc_generated_files/tmr2.c: 85:     T2CON = 0xA9;
  3991  004BA4  0EA9               	movlw	169
  3992  004BA6  6EAC               	movwf	172,c	;volatile
  3993  004BA8                     
  3994                           ; BSR set to: 57
  3995  004BA8  0012               	return		;funcret
  3996  004BAA                     __end_of_TMR2_Initialize:
  3997                           	callstack 0
  3998                           
  3999 ;; *************** function _TMR1_Initialize *****************
  4000 ;; Defined at:
  4001 ;;		line 64 in file "mcc_generated_files/tmr1.c"
  4002 ;; Parameters:    Size  Location     Type
  4003 ;;		None
  4004 ;; Auto vars:     Size  Location     Type
  4005 ;;		None
  4006 ;; Return value:  Size  Location     Type
  4007 ;;                  1    wreg      void 
  4008 ;; Registers used:
  4009 ;;		wreg, status,2, status,0, cstack
  4010 ;; Tracked objects:
  4011 ;;		On entry : 0/0
  4012 ;;		On exit  : 0/0
  4013 ;;		Unchanged: 0/0
  4014 ;; Data sizes:     COMRAM   BANK0   BANK1   BANK2   BANK3   BANK4   BANK5   BANK6   BANK7   BANK8   BANK9  BANK10  BANK1
      +1  BANK12  BANK13  BANK14  BANK15  BANK16  BANK17  BANK18  BANK19  BANK20  BANK21  BANK22  BANK23  BANK24  BANK25  BANK2
      +6  BANK27  BANK28  BANK29  BANK30  BANK31
  4015 ;;      Params:         0       0       0       0       0       0       0       0       0       0       0       0       
      +0       0       0       0       0       0       0       0       0       0       0       0       0       0       0       
      +0       0       0       0       0       0
  4016 ;;      Locals:         0       0       0       0       0       0       0       0       0       0       0       0       
      +0       0       0       0       0       0       0       0       0       0       0       0       0       0       0       
      +0       0       0       0       0       0
  4017 ;;      Temps:          0       2       0       0       0       0       0       0       0       0       0       0       
      +0       0       0       0       0       0       0       0       0       0       0       0       0       0       0       
      +0       0       0       0       0       0
  4018 ;;      Totals:         0       2       0       0       0       0       0       0       0       0       0       0       
      +0       0       0       0       0       0       0       0       0       0       0       0       0       0       0       
      +0       0       0       0       0       0
  4019 ;;Total ram usage:        2 bytes
  4020 ;; Hardware stack levels used: 1
  4021 ;; Hardware stack levels required when called: 5
  4022 ;; This function calls:
  4023 ;;		_TMR1_SetInterruptHandler
  4024 ;; This function is called by:
  4025 ;;		_SYSTEM_Initialize
  4026 ;; This function uses a non-reentrant model
  4027 ;;
  4028                           
  4029                           	psect	text20
  4030  004932                     __ptext20:
  4031                           	callstack 0
  4032  004932                     _TMR1_Initialize:
  4033                           	callstack 24
  4034  004932                     
  4035                           ;mcc_generated_files/tmr1.c: 69:     T1GCON = 0x00;
  4036  004932  0E00               	movlw	0
  4037  004934  6EB3               	movwf	179,c	;volatile
  4038                           
  4039                           ;mcc_generated_files/tmr1.c: 72:     T1GATE = 0x00;
  4040  004936  0E00               	movlw	0
  4041  004938  6EB4               	movwf	180,c	;volatile
  4042                           
  4043                           ;mcc_generated_files/tmr1.c: 75:     T1CLK = 0x05;
  4044  00493A  0E05               	movlw	5
  4045  00493C  6EB5               	movwf	181,c	;volatile
  4046                           
  4047                           ;mcc_generated_files/tmr1.c: 78:     TMR1H = 0x0B;
  4048  00493E  0E0B               	movlw	11
  4049  004940  6EB1               	movwf	177,c	;volatile
  4050                           
  4051                           ;mcc_generated_files/tmr1.c: 81:     TMR1L = 0xDC;
  4052  004942  0EDC               	movlw	220
  4053  004944  6EB0               	movwf	176,c	;volatile
  4054  004946                     
  4055                           ;mcc_generated_files/tmr1.c: 84:     PIR4bits.TMR1IF = 0;
  4056  004946  0139               	movlb	57	; () banked
  4057  004948  91A4               	bcf	164,0,b	;volatile
  4058  00494A                     
  4059                           ; BSR set to: 57
  4060                           ;mcc_generated_files/tmr1.c: 87:     timer1ReloadVal=(uint16_t)((TMR1H << 8) | TMR1L);
  4061  00494A  50B0               	movf	176,w,c	;volatile
  4062  00494C  006F FEC4  F0AB    	movff	16305,??_TMR1_Initialize	;volatile
  4063  004952  0100               	movlb	0	; () banked
  4064  004954  6BAC               	clrf	(??_TMR1_Initialize+1)& (0+255),b
  4065  004956  C0AB  F0AC         	movff	??_TMR1_Initialize,??_TMR1_Initialize+1
  4066  00495A  6BAB               	clrf	??_TMR1_Initialize& (0+255),b
  4067  00495C  11AB               	iorwf	??_TMR1_Initialize& (0+255),w,b
  4068  00495E  6FF8               	movwf	_timer1ReloadVal& (0+255),b	;volatile
  4069  004960  51AC               	movf	(??_TMR1_Initialize+1)& (0+255),w,b
  4070  004962  6FF9               	movwf	(_timer1ReloadVal+1)& (0+255),b	;volatile
  4071  004964                     
  4072                           ; BSR set to: 0
  4073                           ;mcc_generated_files/tmr1.c: 90:     PIE4bits.TMR1IE = 1;
  4074  004964  0139               	movlb	57	; () banked
  4075  004966  8194               	bsf	148,0,b	;volatile
  4076  004968                     
  4077                           ; BSR set to: 57
  4078                           ;mcc_generated_files/tmr1.c: 93:     TMR1_SetInterruptHandler(TMR1_DefaultInterruptHandl
      +                          er);
  4079  004968  0E00               	movlw	0
  4080  00496A  0100               	movlb	0	; () banked
  4081  00496C  6FA8               	movwf	TMR1_SetInterruptHandler@InterruptHandler& (0+255),b
  4082  00496E  0E00               	movlw	0
  4083  004970  6FA9               	movwf	(TMR1_SetInterruptHandler@InterruptHandler+1)& (0+255),b
  4084  004972  0E00               	movlw	0
  4085  004974  6FAA               	movwf	(TMR1_SetInterruptHandler@InterruptHandler+2)& (0+255),b
  4086  004976  EC47  F026         	call	_TMR1_SetInterruptHandler	;wreg free
  4087  00497A                     
  4088                           ;mcc_generated_files/tmr1.c: 96:     T1CON = 0x33;
  4089  00497A  0E33               	movlw	51
  4090  00497C  6EB2               	movwf	178,c	;volatile
  4091  00497E  0012               	return		;funcret
  4092  004980                     __end_of_TMR1_Initialize:
  4093                           	callstack 0
  4094                           
  4095 ;; *************** function _TMR1_SetInterruptHandler *****************
  4096 ;; Defined at:
  4097 ;;		line 178 in file "mcc_generated_files/tmr1.c"
  4098 ;; Parameters:    Size  Location     Type
  4099 ;;  InterruptHan    3    0[BANK0 ] PTR FTN()void 
  4100 ;;		 -> TMR1_DefaultInterruptHandler(1), 
  4101 ;; Auto vars:     Size  Location     Type
  4102 ;;		None
  4103 ;; Return value:  Size  Location     Type
  4104 ;;                  1    wreg      void 
  4105 ;; Registers used:
  4106 ;;		wreg, status,2, status,0
  4107 ;; Tracked objects:
  4108 ;;		On entry : 0/0
  4109 ;;		On exit  : 0/0
  4110 ;;		Unchanged: 0/0
  4111 ;; Data sizes:     COMRAM   BANK0   BANK1   BANK2   BANK3   BANK4   BANK5   BANK6   BANK7   BANK8   BANK9  BANK10  BANK1
      +1  BANK12  BANK13  BANK14  BANK15  BANK16  BANK17  BANK18  BANK19  BANK20  BANK21  BANK22  BANK23  BANK24  BANK25  BANK2
      +6  BANK27  BANK28  BANK29  BANK30  BANK31
  4112 ;;      Params:         0       3       0       0       0       0       0       0       0       0       0       0       
      +0       0       0       0       0       0       0       0       0       0       0       0       0       0       0       
      +0       0       0       0       0       0
  4113 ;;      Locals:         0       0       0       0       0       0       0       0       0       0       0       0       
      +0       0       0       0       0       0       0       0       0       0       0       0       0       0       0       
      +0       0       0       0       0       0
  4114 ;;      Temps:          0       0       0       0       0       0       0       0       0       0       0       0       
      +0       0       0       0       0       0       0       0       0       0       0       0       0       0       0       
      +0       0       0       0       0       0
  4115 ;;      Totals:         0       3       0       0       0       0       0       0       0       0       0       0       
      +0       0       0       0       0       0       0       0       0       0       0       0       0       0       0       
      +0       0       0       0       0       0
  4116 ;;Total ram usage:        3 bytes
  4117 ;; Hardware stack levels used: 1
  4118 ;; Hardware stack levels required when called: 4
  4119 ;; This function calls:
  4120 ;;		Nothing
  4121 ;; This function is called by:
  4122 ;;		_TMR1_Initialize
  4123 ;; This function uses a non-reentrant model
  4124 ;;
  4125                           
  4126                           	psect	text21
  4127  004C8E                     __ptext21:
  4128                           	callstack 0
  4129  004C8E                     _TMR1_SetInterruptHandler:
  4130                           	callstack 24
  4131  004C8E                     
  4132                           ;mcc_generated_files/tmr1.c: 179:     TMR1_InterruptHandler = InterruptHandler;
  4133  004C8E  C0A8  F0E0         	movff	TMR1_SetInterruptHandler@InterruptHandler,_TMR1_InterruptHandler
  4134  004C92  C0A9  F0E1         	movff	TMR1_SetInterruptHandler@InterruptHandler+1,_TMR1_InterruptHandler+1
  4135  004C96  C0AA  F0E2         	movff	TMR1_SetInterruptHandler@InterruptHandler+2,_TMR1_InterruptHandler+2
  4136  004C9A  0012               	return		;funcret
  4137  004C9C                     __end_of_TMR1_SetInterruptHandler:
  4138                           	callstack 0
  4139                           
  4140 ;; *************** function _SPI1_Initialize *****************
  4141 ;; Defined at:
  4142 ;;		line 64 in file "mcc_generated_files/spi1.c"
  4143 ;; Parameters:    Size  Location     Type
  4144 ;;		None
  4145 ;; Auto vars:     Size  Location     Type
  4146 ;;		None
  4147 ;; Return value:  Size  Location     Type
  4148 ;;                  1    wreg      void 
  4149 ;; Registers used:
  4150 ;;		wreg, status,2
  4151 ;; Tracked objects:
  4152 ;;		On entry : 0/0
  4153 ;;		On exit  : 0/0
  4154 ;;		Unchanged: 0/0
  4155 ;; Data sizes:     COMRAM   BANK0   BANK1   BANK2   BANK3   BANK4   BANK5   BANK6   BANK7   BANK8   BANK9  BANK10  BANK1
      +1  BANK12  BANK13  BANK14  BANK15  BANK16  BANK17  BANK18  BANK19  BANK20  BANK21  BANK22  BANK23  BANK24  BANK25  BANK2
      +6  BANK27  BANK28  BANK29  BANK30  BANK31
  4156 ;;      Params:         0       0       0       0       0       0       0       0       0       0       0       0       
      +0       0       0       0       0       0       0       0       0       0       0       0       0       0       0       
      +0       0       0       0       0       0
  4157 ;;      Locals:         0       0       0       0       0       0       0       0       0       0       0       0       
      +0       0       0       0       0       0       0       0       0       0       0       0       0       0       0       
      +0       0       0       0       0       0
  4158 ;;      Temps:          0       0       0       0       0       0       0       0       0       0       0       0       
      +0       0       0       0       0       0       0       0       0       0       0       0       0       0       0       
      +0       0       0       0       0       0
  4159 ;;      Totals:         0       0       0       0       0       0       0       0       0       0       0       0       
      +0       0       0       0       0       0       0       0       0       0       0       0       0       0       0       
      +0       0       0       0       0       0
  4160 ;;Total ram usage:        0 bytes
  4161 ;; Hardware stack levels used: 1
  4162 ;; Hardware stack levels required when called: 4
  4163 ;; This function calls:
  4164 ;;		Nothing
  4165 ;; This function is called by:
  4166 ;;		_SYSTEM_Initialize
  4167 ;; This function uses a non-reentrant model
  4168 ;;
  4169                           
  4170                           	psect	text22
  4171  004BAA                     __ptext22:
  4172                           	callstack 0
  4173  004BAA                     _SPI1_Initialize:
  4174                           	callstack 25
  4175  004BAA                     
  4176                           ;mcc_generated_files/spi1.c: 67:     SPI1CON0 = 0x02;
  4177  004BAA  0E02               	movlw	2
  4178  004BAC  013D               	movlb	61	; () banked
  4179  004BAE  6F14               	movwf	20,b	;volatile
  4180                           
  4181                           ;mcc_generated_files/spi1.c: 69:     SPI1CON1 = 0x40;
  4182  004BB0  0E40               	movlw	64
  4183  004BB2  6F15               	movwf	21,b	;volatile
  4184                           
  4185                           ;mcc_generated_files/spi1.c: 71:     SPI1CON2 = 0x00;
  4186  004BB4  0E00               	movlw	0
  4187  004BB6  6F16               	movwf	22,b	;volatile
  4188                           
  4189                           ;mcc_generated_files/spi1.c: 73:     SPI1CLK = 0x00;
  4190  004BB8  0E00               	movlw	0
  4191  004BBA  6F1C               	movwf	28,b	;volatile
  4192                           
  4193                           ;mcc_generated_files/spi1.c: 75:     SPI1BAUD = 0x00;
  4194  004BBC  0E00               	movlw	0
  4195  004BBE  6F19               	movwf	25,b	;volatile
  4196  004BC0                     
  4197                           ; BSR set to: 61
  4198                           ;mcc_generated_files/spi1.c: 76:     TRISBbits.TRISB2 = 0;
  4199  004BC0  94C3               	bcf	195,2,c	;volatile
  4200  004BC2                     
  4201                           ; BSR set to: 61
  4202  004BC2  0012               	return		;funcret
  4203  004BC4                     __end_of_SPI1_Initialize:
  4204                           	callstack 0
  4205                           
  4206 ;; *************** function _PWM6_Initialize *****************
  4207 ;; Defined at:
  4208 ;;		line 58 in file "mcc_generated_files/pwm6.c"
  4209 ;; Parameters:    Size  Location     Type
  4210 ;;		None
  4211 ;; Auto vars:     Size  Location     Type
  4212 ;;		None
  4213 ;; Return value:  Size  Location     Type
  4214 ;;                  1    wreg      void 
  4215 ;; Registers used:
  4216 ;;		wreg, status,2
  4217 ;; Tracked objects:
  4218 ;;		On entry : 0/0
  4219 ;;		On exit  : 0/0
  4220 ;;		Unchanged: 0/0
  4221 ;; Data sizes:     COMRAM   BANK0   BANK1   BANK2   BANK3   BANK4   BANK5   BANK6   BANK7   BANK8   BANK9  BANK10  BANK1
      +1  BANK12  BANK13  BANK14  BANK15  BANK16  BANK17  BANK18  BANK19  BANK20  BANK21  BANK22  BANK23  BANK24  BANK25  BANK2
      +6  BANK27  BANK28  BANK29  BANK30  BANK31
  4222 ;;      Params:         0       0       0       0       0       0       0       0       0       0       0       0       
      +0       0       0       0       0       0       0       0       0       0       0       0       0       0       0       
      +0       0       0       0       0       0
  4223 ;;      Locals:         0       0       0       0       0       0       0       0       0       0       0       0       
      +0       0       0       0       0       0       0       0       0       0       0       0       0       0       0       
      +0       0       0       0       0       0
  4224 ;;      Temps:          0       0       0       0       0       0       0       0       0       0       0       0       
      +0       0       0       0       0       0       0       0       0       0       0       0       0       0       0       
      +0       0       0       0       0       0
  4225 ;;      Totals:         0       0       0       0       0       0       0       0       0       0       0       0       
      +0       0       0       0       0       0       0       0       0       0       0       0       0       0       0       
      +0       0       0       0       0       0
  4226 ;;Total ram usage:        0 bytes
  4227 ;; Hardware stack levels used: 1
  4228 ;; Hardware stack levels required when called: 4
  4229 ;; This function calls:
  4230 ;;		Nothing
  4231 ;; This function is called by:
  4232 ;;		_SYSTEM_Initialize
  4233 ;; This function uses a non-reentrant model
  4234 ;;
  4235                           
  4236                           	psect	text23
  4237  004BDE                     __ptext23:
  4238                           	callstack 0
  4239  004BDE                     _PWM6_Initialize:
  4240                           	callstack 25
  4241  004BDE                     
  4242                           ;mcc_generated_files/pwm6.c: 62:     PWM6CON = 0x80;
  4243  004BDE  0E80               	movlw	128
  4244  004BE0  6E6A               	movwf	106,c	;volatile
  4245                           
  4246                           ;mcc_generated_files/pwm6.c: 65:     PWM6DCH = 0x1A;
  4247  004BE2  0E1A               	movlw	26
  4248  004BE4  6E69               	movwf	105,c	;volatile
  4249                           
  4250                           ;mcc_generated_files/pwm6.c: 68:     PWM6DCL = 0xC0;
  4251  004BE6  0EC0               	movlw	192
  4252  004BE8  6E68               	movwf	104,c	;volatile
  4253                           
  4254                           ;mcc_generated_files/pwm6.c: 71:     CCPTMRS1bits.P6TSEL = 1;
  4255  004BEA  013F               	movlb	63	; () banked
  4256  004BEC  515F               	movf	95,w,b	;volatile
  4257  004BEE  0BF3               	andlw	-13
  4258  004BF0  0904               	iorlw	4
  4259  004BF2  6F5F               	movwf	95,b	;volatile
  4260  004BF4                     
  4261                           ; BSR set to: 63
  4262  004BF4  0012               	return		;funcret
  4263  004BF6                     __end_of_PWM6_Initialize:
  4264                           	callstack 0
  4265                           
  4266 ;; *************** function _PMD_Initialize *****************
  4267 ;; Defined at:
  4268 ;;		line 84 in file "mcc_generated_files/mcc.c"
  4269 ;; Parameters:    Size  Location     Type
  4270 ;;		None
  4271 ;; Auto vars:     Size  Location     Type
  4272 ;;		None
  4273 ;; Return value:  Size  Location     Type
  4274 ;;                  1    wreg      void 
  4275 ;; Registers used:
  4276 ;;		wreg, status,2
  4277 ;; Tracked objects:
  4278 ;;		On entry : 0/0
  4279 ;;		On exit  : 0/0
  4280 ;;		Unchanged: 0/0
  4281 ;; Data sizes:     COMRAM   BANK0   BANK1   BANK2   BANK3   BANK4   BANK5   BANK6   BANK7   BANK8   BANK9  BANK10  BANK1
      +1  BANK12  BANK13  BANK14  BANK15  BANK16  BANK17  BANK18  BANK19  BANK20  BANK21  BANK22  BANK23  BANK24  BANK25  BANK2
      +6  BANK27  BANK28  BANK29  BANK30  BANK31
  4282 ;;      Params:         0       0       0       0       0       0       0       0       0       0       0       0       
      +0       0       0       0       0       0       0       0       0       0       0       0       0       0       0       
      +0       0       0       0       0       0
  4283 ;;      Locals:         0       0       0       0       0       0       0       0       0       0       0       0       
      +0       0       0       0       0       0       0       0       0       0       0       0       0       0       0       
      +0       0       0       0       0       0
  4284 ;;      Temps:          0       0       0       0       0       0       0       0       0       0       0       0       
      +0       0       0       0       0       0       0       0       0       0       0       0       0       0       0       
      +0       0       0       0       0       0
  4285 ;;      Totals:         0       0       0       0       0       0       0       0       0       0       0       0       
      +0       0       0       0       0       0       0       0       0       0       0       0       0       0       0       
      +0       0       0       0       0       0
  4286 ;;Total ram usage:        0 bytes
  4287 ;; Hardware stack levels used: 1
  4288 ;; Hardware stack levels required when called: 4
  4289 ;; This function calls:
  4290 ;;		Nothing
  4291 ;; This function is called by:
  4292 ;;		_SYSTEM_Initialize
  4293 ;; This function uses a non-reentrant model
  4294 ;;
  4295                           
  4296                           	psect	text24
  4297  004B68                     __ptext24:
  4298                           	callstack 0
  4299  004B68                     _PMD_Initialize:
  4300                           	callstack 25
  4301  004B68                     
  4302                           ;mcc_generated_files/mcc.c: 87:     PMD0 = 0x00;
  4303  004B68  0E00               	movlw	0
  4304  004B6A  0139               	movlb	57	; () banked
  4305  004B6C  6FC0               	movwf	192,b	;volatile
  4306                           
  4307                           ;mcc_generated_files/mcc.c: 89:     PMD1 = 0x00;
  4308  004B6E  0E00               	movlw	0
  4309  004B70  6FC1               	movwf	193,b	;volatile
  4310                           
  4311                           ;mcc_generated_files/mcc.c: 91:     PMD2 = 0x00;
  4312  004B72  0E00               	movlw	0
  4313  004B74  6FC2               	movwf	194,b	;volatile
  4314                           
  4315                           ;mcc_generated_files/mcc.c: 93:     PMD3 = 0x00;
  4316  004B76  0E00               	movlw	0
  4317  004B78  6FC3               	movwf	195,b	;volatile
  4318                           
  4319                           ;mcc_generated_files/mcc.c: 95:     PMD4 = 0x00;
  4320  004B7A  0E00               	movlw	0
  4321  004B7C  6FC4               	movwf	196,b	;volatile
  4322                           
  4323                           ;mcc_generated_files/mcc.c: 97:     PMD5 = 0x00;
  4324  004B7E  0E00               	movlw	0
  4325  004B80  6FC5               	movwf	197,b	;volatile
  4326                           
  4327                           ;mcc_generated_files/mcc.c: 99:     PMD6 = 0x00;
  4328  004B82  0E00               	movlw	0
  4329  004B84  6FC6               	movwf	198,b	;volatile
  4330                           
  4331                           ;mcc_generated_files/mcc.c: 101:     PMD7 = 0x00;
  4332  004B86  0E00               	movlw	0
  4333  004B88  6FC7               	movwf	199,b	;volatile
  4334  004B8A                     
  4335                           ; BSR set to: 57
  4336  004B8A  0012               	return		;funcret
  4337  004B8C                     __end_of_PMD_Initialize:
  4338                           	callstack 0
  4339                           
  4340 ;; *************** function _PIN_MANAGER_Initialize *****************
  4341 ;; Defined at:
  4342 ;;		line 57 in file "mcc_generated_files/pin_manager.c"
  4343 ;; Parameters:    Size  Location     Type
  4344 ;;		None
  4345 ;; Auto vars:     Size  Location     Type
  4346 ;;		None
  4347 ;; Return value:  Size  Location     Type
  4348 ;;                  1    wreg      void 
  4349 ;; Registers used:
  4350 ;;		wreg, status,2, status,0, cstack
  4351 ;; Tracked objects:
  4352 ;;		On entry : 0/0
  4353 ;;		On exit  : 0/0
  4354 ;;		Unchanged: 0/0
  4355 ;; Data sizes:     COMRAM   BANK0   BANK1   BANK2   BANK3   BANK4   BANK5   BANK6   BANK7   BANK8   BANK9  BANK10  BANK1
      +1  BANK12  BANK13  BANK14  BANK15  BANK16  BANK17  BANK18  BANK19  BANK20  BANK21  BANK22  BANK23  BANK24  BANK25  BANK2
      +6  BANK27  BANK28  BANK29  BANK30  BANK31
  4356 ;;      Params:         0       0       0       0       0       0       0       0       0       0       0       0       
      +0       0       0       0       0       0       0       0       0       0       0       0       0       0       0       
      +0       0       0       0       0       0
  4357 ;;      Locals:         0       0       0       0       0       0       0       0       0       0       0       0       
      +0       0       0       0       0       0       0       0       0       0       0       0       0       0       0       
      +0       0       0       0       0       0
  4358 ;;      Temps:          0       0       0       0       0       0       0       0       0       0       0       0       
      +0       0       0       0       0       0       0       0       0       0       0       0       0       0       0       
      +0       0       0       0       0       0
  4359 ;;      Totals:         0       0       0       0       0       0       0       0       0       0       0       0       
      +0       0       0       0       0       0       0       0       0       0       0       0       0       0       0       
      +0       0       0       0       0       0
  4360 ;;Total ram usage:        0 bytes
  4361 ;; Hardware stack levels used: 1
  4362 ;; Hardware stack levels required when called: 5
  4363 ;; This function calls:
  4364 ;;		_IOCBF0_SetInterruptHandler
  4365 ;; This function is called by:
  4366 ;;		_SYSTEM_Initialize
  4367 ;; This function uses a non-reentrant model
  4368 ;;
  4369                           
  4370                           	psect	text25
  4371  004404                     __ptext25:
  4372                           	callstack 0
  4373  004404                     _PIN_MANAGER_Initialize:
  4374                           	callstack 24
  4375  004404                     
  4376                           ;mcc_generated_files/pin_manager.c: 62:     LATE = 0x00;
  4377  004404  0E00               	movlw	0
  4378  004406  6EBE               	movwf	190,c	;volatile
  4379                           
  4380                           ;mcc_generated_files/pin_manager.c: 63:     LATD = 0x00;
  4381  004408  0E00               	movlw	0
  4382  00440A  6EBD               	movwf	189,c	;volatile
  4383                           
  4384                           ;mcc_generated_files/pin_manager.c: 64:     LATA = 0x00;
  4385  00440C  0E00               	movlw	0
  4386  00440E  6EBA               	movwf	186,c	;volatile
  4387                           
  4388                           ;mcc_generated_files/pin_manager.c: 65:     LATB = 0x00;
  4389  004410  0E00               	movlw	0
  4390  004412  6EBB               	movwf	187,c	;volatile
  4391                           
  4392                           ;mcc_generated_files/pin_manager.c: 66:     LATC = 0x00;
  4393  004414  0E00               	movlw	0
  4394  004416  6EBC               	movwf	188,c	;volatile
  4395                           
  4396                           ;mcc_generated_files/pin_manager.c: 71:     TRISE = 0x06;
  4397  004418  0E06               	movlw	6
  4398  00441A  6EC6               	movwf	198,c	;volatile
  4399                           
  4400                           ;mcc_generated_files/pin_manager.c: 72:     TRISA = 0xCC;
  4401  00441C  0ECC               	movlw	204
  4402  00441E  6EC2               	movwf	194,c	;volatile
  4403                           
  4404                           ;mcc_generated_files/pin_manager.c: 73:     TRISB = 0xD3;
  4405  004420  0ED3               	movlw	211
  4406  004422  6EC3               	movwf	195,c	;volatile
  4407                           
  4408                           ;mcc_generated_files/pin_manager.c: 74:     TRISC = 0x87;
  4409  004424  0E87               	movlw	135
  4410  004426  6EC4               	movwf	196,c	;volatile
  4411                           
  4412                           ;mcc_generated_files/pin_manager.c: 75:     TRISD = 0xF4;
  4413  004428  0EF4               	movlw	244
  4414  00442A  6EC5               	movwf	197,c	;volatile
  4415                           
  4416                           ;mcc_generated_files/pin_manager.c: 80:     ANSELD = 0x84;
  4417  00442C  0E84               	movlw	132
  4418  00442E  013A               	movlb	58	; () banked
  4419  004430  6F70               	movwf	112,b	;volatile
  4420                           
  4421                           ;mcc_generated_files/pin_manager.c: 81:     ANSELC = 0x87;
  4422  004432  0E87               	movlw	135
  4423  004434  6F60               	movwf	96,b	;volatile
  4424                           
  4425                           ;mcc_generated_files/pin_manager.c: 82:     ANSELB = 0xE8;
  4426  004436  0EE8               	movlw	232
  4427  004438  6F50               	movwf	80,b	;volatile
  4428                           
  4429                           ;mcc_generated_files/pin_manager.c: 83:     ANSELE = 0x06;
  4430  00443A  0E06               	movlw	6
  4431  00443C  6F80               	movwf	128,b	;volatile
  4432                           
  4433                           ;mcc_generated_files/pin_manager.c: 84:     ANSELA = 0xCC;
  4434  00443E  0ECC               	movlw	204
  4435  004440  6F40               	movwf	64,b	;volatile
  4436                           
  4437                           ;mcc_generated_files/pin_manager.c: 89:     WPUD = 0x00;
  4438  004442  0E00               	movlw	0
  4439  004444  6F71               	movwf	113,b	;volatile
  4440                           
  4441                           ;mcc_generated_files/pin_manager.c: 90:     WPUE = 0x00;
  4442  004446  0E00               	movlw	0
  4443  004448  6F81               	movwf	129,b	;volatile
  4444                           
  4445                           ;mcc_generated_files/pin_manager.c: 91:     WPUB = 0x00;
  4446  00444A  0E00               	movlw	0
  4447  00444C  6F51               	movwf	81,b	;volatile
  4448                           
  4449                           ;mcc_generated_files/pin_manager.c: 92:     WPUA = 0x00;
  4450  00444E  0E00               	movlw	0
  4451  004450  6F41               	movwf	65,b	;volatile
  4452                           
  4453                           ;mcc_generated_files/pin_manager.c: 93:     WPUC = 0x00;
  4454  004452  0E00               	movlw	0
  4455  004454  6F61               	movwf	97,b	;volatile
  4456                           
  4457                           ;mcc_generated_files/pin_manager.c: 98:     RB1I2C = 0x00;
  4458  004456  0E00               	movlw	0
  4459  004458  6F5A               	movwf	90,b	;volatile
  4460                           
  4461                           ;mcc_generated_files/pin_manager.c: 99:     RB2I2C = 0x00;
  4462  00445A  0E00               	movlw	0
  4463  00445C  6F5B               	movwf	91,b	;volatile
  4464                           
  4465                           ;mcc_generated_files/pin_manager.c: 100:     RC3I2C = 0x00;
  4466  00445E  0E00               	movlw	0
  4467  004460  6F6A               	movwf	106,b	;volatile
  4468                           
  4469                           ;mcc_generated_files/pin_manager.c: 101:     RC4I2C = 0x00;
  4470  004462  0E00               	movlw	0
  4471  004464  6F6B               	movwf	107,b	;volatile
  4472                           
  4473                           ;mcc_generated_files/pin_manager.c: 102:     RD0I2C = 0x00;
  4474  004466  0E00               	movlw	0
  4475  004468  6F7A               	movwf	122,b	;volatile
  4476                           
  4477                           ;mcc_generated_files/pin_manager.c: 103:     RD1I2C = 0x00;
  4478  00446A  0E00               	movlw	0
  4479  00446C  6F7B               	movwf	123,b	;volatile
  4480                           
  4481                           ;mcc_generated_files/pin_manager.c: 108:     ODCONE = 0x00;
  4482  00446E  0E00               	movlw	0
  4483  004470  6F82               	movwf	130,b	;volatile
  4484                           
  4485                           ;mcc_generated_files/pin_manager.c: 109:     ODCONA = 0x00;
  4486  004472  0E00               	movlw	0
  4487  004474  6F42               	movwf	66,b	;volatile
  4488                           
  4489                           ;mcc_generated_files/pin_manager.c: 110:     ODCONB = 0x00;
  4490  004476  0E00               	movlw	0
  4491  004478  6F52               	movwf	82,b	;volatile
  4492                           
  4493                           ;mcc_generated_files/pin_manager.c: 111:     ODCONC = 0x00;
  4494  00447A  0E00               	movlw	0
  4495  00447C  6F62               	movwf	98,b	;volatile
  4496                           
  4497                           ;mcc_generated_files/pin_manager.c: 112:     ODCOND = 0x00;
  4498  00447E  0E00               	movlw	0
  4499  004480  6F72               	movwf	114,b	;volatile
  4500  004482                     
  4501                           ; BSR set to: 58
  4502                           ;mcc_generated_files/pin_manager.c: 117:     SLRCONA = 0xFF;
  4503  004482  6943               	setf	67,b	;volatile
  4504  004484                     
  4505                           ; BSR set to: 58
  4506                           ;mcc_generated_files/pin_manager.c: 118:     SLRCONB = 0xFF;
  4507  004484  6953               	setf	83,b	;volatile
  4508  004486                     
  4509                           ; BSR set to: 58
  4510                           ;mcc_generated_files/pin_manager.c: 119:     SLRCONC = 0xFF;
  4511  004486  6963               	setf	99,b	;volatile
  4512  004488                     
  4513                           ; BSR set to: 58
  4514                           ;mcc_generated_files/pin_manager.c: 120:     SLRCOND = 0xFF;
  4515  004488  6973               	setf	115,b	;volatile
  4516                           
  4517                           ;mcc_generated_files/pin_manager.c: 121:     SLRCONE = 0x07;
  4518  00448A  0E07               	movlw	7
  4519  00448C  6F83               	movwf	131,b	;volatile
  4520  00448E                     
  4521                           ; BSR set to: 58
  4522                           ;mcc_generated_files/pin_manager.c: 126:     INLVLA = 0xFF;
  4523  00448E  6944               	setf	68,b	;volatile
  4524  004490                     
  4525                           ; BSR set to: 58
  4526                           ;mcc_generated_files/pin_manager.c: 127:     INLVLB = 0xFF;
  4527  004490  6954               	setf	84,b	;volatile
  4528  004492                     
  4529                           ; BSR set to: 58
  4530                           ;mcc_generated_files/pin_manager.c: 128:     INLVLC = 0xFF;
  4531  004492  6964               	setf	100,b	;volatile
  4532  004494                     
  4533                           ; BSR set to: 58
  4534                           ;mcc_generated_files/pin_manager.c: 129:     INLVLD = 0xFF;
  4535  004494  6974               	setf	116,b	;volatile
  4536                           
  4537                           ;mcc_generated_files/pin_manager.c: 130:     INLVLE = 0x0F;
  4538  004496  0E0F               	movlw	15
  4539  004498  6F84               	movwf	132,b	;volatile
  4540  00449A                     
  4541                           ; BSR set to: 58
  4542                           ;mcc_generated_files/pin_manager.c: 137:     IOCBFbits.IOCBF0 = 0;
  4543  00449A  9157               	bcf	87,0,b	;volatile
  4544  00449C                     
  4545                           ; BSR set to: 58
  4546                           ;mcc_generated_files/pin_manager.c: 139:     IOCBNbits.IOCBN0 = 0;
  4547  00449C  9156               	bcf	86,0,b	;volatile
  4548  00449E                     
  4549                           ; BSR set to: 58
  4550                           ;mcc_generated_files/pin_manager.c: 141:     IOCBPbits.IOCBP0 = 1;
  4551  00449E  8155               	bsf	85,0,b	;volatile
  4552  0044A0                     
  4553                           ; BSR set to: 58
  4554                           ;mcc_generated_files/pin_manager.c: 146:     IOCBF0_SetInterruptHandler(IOCBF0_DefaultIn
      +                          terruptHandler);
  4555  0044A0  0E00               	movlw	0
  4556  0044A2  0100               	movlb	0	; () banked
  4557  0044A4  6FA8               	movwf	IOCBF0_SetInterruptHandler@InterruptHandler& (0+255),b
  4558  0044A6  0E00               	movlw	0
  4559  0044A8  6FA9               	movwf	(IOCBF0_SetInterruptHandler@InterruptHandler+1)& (0+255),b
  4560  0044AA  0E00               	movlw	0
  4561  0044AC  6FAA               	movwf	(IOCBF0_SetInterruptHandler@InterruptHandler+2)& (0+255),b
  4562  0044AE  EC4E  F026         	call	_IOCBF0_SetInterruptHandler	;wreg free
  4563  0044B2                     
  4564                           ;mcc_generated_files/pin_manager.c: 149:     PIE0bits.IOCIE = 1;
  4565  0044B2  0139               	movlb	57	; () banked
  4566  0044B4  8F90               	bsf	144,7,b	;volatile
  4567  0044B6                     
  4568                           ; BSR set to: 57
  4569                           ;mcc_generated_files/pin_manager.c: 152:     SPI1SCKPPS = 0x0A;
  4570  0044B6  0E0A               	movlw	10
  4571  0044B8  013A               	movlb	58	; () banked
  4572  0044BA  6FDE               	movwf	222,b	;volatile
  4573  0044BC                     
  4574                           ; BSR set to: 58
  4575                           ;mcc_generated_files/pin_manager.c: 153:     RC3PPS = 0x05;
  4576  0044BC  0E05               	movlw	5
  4577  0044BE  6F13               	movwf	19,b	;volatile
  4578  0044C0                     
  4579                           ; BSR set to: 58
  4580                           ;mcc_generated_files/pin_manager.c: 154:     RB2PPS = 0x1E;
  4581  0044C0  0E1E               	movlw	30
  4582  0044C2  6F0A               	movwf	10,b	;volatile
  4583  0044C4                     
  4584                           ; BSR set to: 58
  4585                           ;mcc_generated_files/pin_manager.c: 155:     RB5PPS = 0x13;
  4586  0044C4  0E13               	movlw	19
  4587  0044C6  6F0D               	movwf	13,b	;volatile
  4588  0044C8                     
  4589                           ; BSR set to: 58
  4590                           ;mcc_generated_files/pin_manager.c: 156:     RC4PPS = 0x29;
  4591  0044C8  0E29               	movlw	41
  4592  0044CA  6F14               	movwf	20,b	;volatile
  4593  0044CC                     
  4594                           ; BSR set to: 58
  4595                           ;mcc_generated_files/pin_manager.c: 157:     RE0PPS = 0x2E;
  4596  0044CC  0E2E               	movlw	46
  4597  0044CE  6F20               	movwf	32,b	;volatile
  4598  0044D0                     
  4599                           ; BSR set to: 58
  4600                           ;mcc_generated_files/pin_manager.c: 158:     RB3PPS = 0x1F;
  4601  0044D0  0E1F               	movlw	31
  4602  0044D2  6F0B               	movwf	11,b	;volatile
  4603  0044D4                     
  4604                           ; BSR set to: 58
  4605                           ;mcc_generated_files/pin_manager.c: 159:     RD0PPS = 0x06;
  4606  0044D4  0E06               	movlw	6
  4607  0044D6  6F18               	movwf	24,b	;volatile
  4608  0044D8                     
  4609                           ; BSR set to: 58
  4610                           ;mcc_generated_files/pin_manager.c: 160:     RD1PPS = 0x2A;
  4611  0044D8  0E2A               	movlw	42
  4612  0044DA  6F19               	movwf	25,b	;volatile
  4613  0044DC                     
  4614                           ; BSR set to: 58
  4615                           ;mcc_generated_files/pin_manager.c: 161:     RC5PPS = 0x2D;
  4616  0044DC  0E2D               	movlw	45
  4617  0044DE  6F15               	movwf	21,b	;volatile
  4618  0044E0                     
  4619                           ; BSR set to: 58
  4620                           ;mcc_generated_files/pin_manager.c: 162:     U1RXPPS = 0x0C;
  4621  0044E0  0E0C               	movlw	12
  4622  0044E2  6FE5               	movwf	229,b	;volatile
  4623  0044E4                     
  4624                           ; BSR set to: 58
  4625                           ;mcc_generated_files/pin_manager.c: 163:     SPI1SDIPPS = 0x09;
  4626  0044E4  0E09               	movlw	9
  4627  0044E6  6FDF               	movwf	223,b	;volatile
  4628  0044E8                     
  4629                           ; BSR set to: 58
  4630  0044E8  0012               	return		;funcret
  4631  0044EA                     __end_of_PIN_MANAGER_Initialize:
  4632                           	callstack 0
  4633                           
  4634 ;; *************** function _IOCBF0_SetInterruptHandler *****************
  4635 ;; Defined at:
  4636 ;;		line 193 in file "mcc_generated_files/pin_manager.c"
  4637 ;; Parameters:    Size  Location     Type
  4638 ;;  InterruptHan    3    0[BANK0 ] PTR FTN()void 
  4639 ;;		 -> IOCBF0_DefaultInterruptHandler(1), 
  4640 ;; Auto vars:     Size  Location     Type
  4641 ;;		None
  4642 ;; Return value:  Size  Location     Type
  4643 ;;                  1    wreg      void 
  4644 ;; Registers used:
  4645 ;;		wreg, status,2, status,0
  4646 ;; Tracked objects:
  4647 ;;		On entry : 0/0
  4648 ;;		On exit  : 0/0
  4649 ;;		Unchanged: 0/0
  4650 ;; Data sizes:     COMRAM   BANK0   BANK1   BANK2   BANK3   BANK4   BANK5   BANK6   BANK7   BANK8   BANK9  BANK10  BANK1
      +1  BANK12  BANK13  BANK14  BANK15  BANK16  BANK17  BANK18  BANK19  BANK20  BANK21  BANK22  BANK23  BANK24  BANK25  BANK2
      +6  BANK27  BANK28  BANK29  BANK30  BANK31
  4651 ;;      Params:         0       3       0       0       0       0       0       0       0       0       0       0       
      +0       0       0       0       0       0       0       0       0       0       0       0       0       0       0       
      +0       0       0       0       0       0
  4652 ;;      Locals:         0       0       0       0       0       0       0       0       0       0       0       0       
      +0       0       0       0       0       0       0       0       0       0       0       0       0       0       0       
      +0       0       0       0       0       0
  4653 ;;      Temps:          0       0       0       0       0       0       0       0       0       0       0       0       
      +0       0       0       0       0       0       0       0       0       0       0       0       0       0       0       
      +0       0       0       0       0       0
  4654 ;;      Totals:         0       3       0       0       0       0       0       0       0       0       0       0       
      +0       0       0       0       0       0       0       0       0       0       0       0       0       0       0       
      +0       0       0       0       0       0
  4655 ;;Total ram usage:        3 bytes
  4656 ;; Hardware stack levels used: 1
  4657 ;; Hardware stack levels required when called: 4
  4658 ;; This function calls:
  4659 ;;		Nothing
  4660 ;; This function is called by:
  4661 ;;		_PIN_MANAGER_Initialize
  4662 ;; This function uses a non-reentrant model
  4663 ;;
  4664                           
  4665                           	psect	text26
  4666  004C9C                     __ptext26:
  4667                           	callstack 0
  4668  004C9C                     _IOCBF0_SetInterruptHandler:
  4669                           	callstack 24
  4670  004C9C                     
  4671                           ;mcc_generated_files/pin_manager.c: 194:     IOCBF0_InterruptHandler = InterruptHandler;
  4672  004C9C  C0A8  F0EF         	movff	IOCBF0_SetInterruptHandler@InterruptHandler,_IOCBF0_InterruptHandler
  4673  004CA0  C0A9  F0F0         	movff	IOCBF0_SetInterruptHandler@InterruptHandler+1,_IOCBF0_InterruptHandler+1
  4674  004CA4  C0AA  F0F1         	movff	IOCBF0_SetInterruptHandler@InterruptHandler+2,_IOCBF0_InterruptHandler+2
  4675  004CA8  0012               	return		;funcret
  4676  004CAA                     __end_of_IOCBF0_SetInterruptHandler:
  4677                           	callstack 0
  4678                           
  4679 ;; *************** function _OSCILLATOR_Initialize *****************
  4680 ;; Defined at:
  4681 ;;		line 70 in file "mcc_generated_files/mcc.c"
  4682 ;; Parameters:    Size  Location     Type
  4683 ;;		None
  4684 ;; Auto vars:     Size  Location     Type
  4685 ;;		None
  4686 ;; Return value:  Size  Location     Type
  4687 ;;                  1    wreg      void 
  4688 ;; Registers used:
  4689 ;;		wreg, status,2
  4690 ;; Tracked objects:
  4691 ;;		On entry : 0/0
  4692 ;;		On exit  : 0/0
  4693 ;;		Unchanged: 0/0
  4694 ;; Data sizes:     COMRAM   BANK0   BANK1   BANK2   BANK3   BANK4   BANK5   BANK6   BANK7   BANK8   BANK9  BANK10  BANK1
      +1  BANK12  BANK13  BANK14  BANK15  BANK16  BANK17  BANK18  BANK19  BANK20  BANK21  BANK22  BANK23  BANK24  BANK25  BANK2
      +6  BANK27  BANK28  BANK29  BANK30  BANK31
  4695 ;;      Params:         0       0       0       0       0       0       0       0       0       0       0       0       
      +0       0       0       0       0       0       0       0       0       0       0       0       0       0       0       
      +0       0       0       0       0       0
  4696 ;;      Locals:         0       0       0       0       0       0       0       0       0       0       0       0       
      +0       0       0       0       0       0       0       0       0       0       0       0       0       0       0       
      +0       0       0       0       0       0
  4697 ;;      Temps:          0       0       0       0       0       0       0       0       0       0       0       0       
      +0       0       0       0       0       0       0       0       0       0       0       0       0       0       0       
      +0       0       0       0       0       0
  4698 ;;      Totals:         0       0       0       0       0       0       0       0       0       0       0       0       
      +0       0       0       0       0       0       0       0       0       0       0       0       0       0       0       
      +0       0       0       0       0       0
  4699 ;;Total ram usage:        0 bytes
  4700 ;; Hardware stack levels used: 1
  4701 ;; Hardware stack levels required when called: 4
  4702 ;; This function calls:
  4703 ;;		Nothing
  4704 ;; This function is called by:
  4705 ;;		_SYSTEM_Initialize
  4706 ;; This function uses a non-reentrant model
  4707 ;;
  4708                           
  4709                           	psect	text27
  4710  004BF6                     __ptext27:
  4711                           	callstack 0
  4712  004BF6                     _OSCILLATOR_Initialize:
  4713                           	callstack 25
  4714  004BF6                     
  4715                           ;mcc_generated_files/mcc.c: 73:     OSCCON1 = 0x60;
  4716  004BF6  0E60               	movlw	96
  4717  004BF8  0139               	movlb	57	; () banked
  4718  004BFA  6FD9               	movwf	217,b	;volatile
  4719                           
  4720                           ;mcc_generated_files/mcc.c: 75:     OSCCON3 = 0x00;
  4721  004BFC  0E00               	movlw	0
  4722  004BFE  6FDB               	movwf	219,b	;volatile
  4723                           
  4724                           ;mcc_generated_files/mcc.c: 77:     OSCEN = 0x00;
  4725  004C00  0E00               	movlw	0
  4726  004C02  6FDD               	movwf	221,b	;volatile
  4727                           
  4728                           ;mcc_generated_files/mcc.c: 79:     OSCFRQ = 0x08;
  4729  004C04  0E08               	movlw	8
  4730  004C06  6FDF               	movwf	223,b	;volatile
  4731                           
  4732                           ;mcc_generated_files/mcc.c: 81:     OSCTUNE = 0x00;
  4733  004C08  0E00               	movlw	0
  4734  004C0A  6FDE               	movwf	222,b	;volatile
  4735  004C0C                     
  4736                           ; BSR set to: 57
  4737  004C0C  0012               	return		;funcret
  4738  004C0E                     __end_of_OSCILLATOR_Initialize:
  4739                           	callstack 0
  4740                           
  4741 ;; *************** function _INTERRUPT_Initialize *****************
  4742 ;; Defined at:
  4743 ;;		line 80 in file "mcc_generated_files/interrupt_manager.c"
  4744 ;; Parameters:    Size  Location     Type
  4745 ;;		None
  4746 ;; Auto vars:     Size  Location     Type
  4747 ;;		None
  4748 ;; Return value:  Size  Location     Type
  4749 ;;                  1    wreg      void 
  4750 ;; Registers used:
  4751 ;;		None
  4752 ;; Tracked objects:
  4753 ;;		On entry : 0/0
  4754 ;;		On exit  : 0/0
  4755 ;;		Unchanged: 0/0
  4756 ;; Data sizes:     COMRAM   BANK0   BANK1   BANK2   BANK3   BANK4   BANK5   BANK6   BANK7   BANK8   BANK9  BANK10  BANK1
      +1  BANK12  BANK13  BANK14  BANK15  BANK16  BANK17  BANK18  BANK19  BANK20  BANK21  BANK22  BANK23  BANK24  BANK25  BANK2
      +6  BANK27  BANK28  BANK29  BANK30  BANK31
  4757 ;;      Params:         0       0       0       0       0       0       0       0       0       0       0       0       
      +0       0       0       0       0       0       0       0       0       0       0       0       0       0       0       
      +0       0       0       0       0       0
  4758 ;;      Locals:         0       0       0       0       0       0       0       0       0       0       0       0       
      +0       0       0       0       0       0       0       0       0       0       0       0       0       0       0       
      +0       0       0       0       0       0
  4759 ;;      Temps:          0       0       0       0       0       0       0       0       0       0       0       0       
      +0       0       0       0       0       0       0       0       0       0       0       0       0       0       0       
      +0       0       0       0       0       0
  4760 ;;      Totals:         0       0       0       0       0       0       0       0       0       0       0       0       
      +0       0       0       0       0       0       0       0       0       0       0       0       0       0       0       
      +0       0       0       0       0       0
  4761 ;;Total ram usage:        0 bytes
  4762 ;; Hardware stack levels used: 1
  4763 ;; Hardware stack levels required when called: 4
  4764 ;; This function calls:
  4765 ;;		Nothing
  4766 ;; This function is called by:
  4767 ;;		_SYSTEM_Initialize
  4768 ;; This function uses a non-reentrant model
  4769 ;;
  4770                           
  4771                           	psect	text28
  4772  004D34                     __ptext28:
  4773                           	callstack 0
  4774  004D34                     _INTERRUPT_Initialize:
  4775                           	callstack 25
  4776  004D34                     
  4777                           ;mcc_generated_files/interrupt_manager.c: 82:     INTCON0bits.IPEN = 0;
  4778  004D34  9AD2               	bcf	210,5,c	;volatile
  4779  004D36  0012               	return		;funcret
  4780  004D38                     __end_of_INTERRUPT_Initialize:
  4781                           	callstack 0
  4782                           
  4783 ;; *************** function _CWG3_Initialize *****************
  4784 ;; Defined at:
  4785 ;;		line 58 in file "mcc_generated_files/cwg3.c"
  4786 ;; Parameters:    Size  Location     Type
  4787 ;;		None
  4788 ;; Auto vars:     Size  Location     Type
  4789 ;;		None
  4790 ;; Return value:  Size  Location     Type
  4791 ;;                  1    wreg      void 
  4792 ;; Registers used:
  4793 ;;		wreg, status,2
  4794 ;; Tracked objects:
  4795 ;;		On entry : 0/0
  4796 ;;		On exit  : 0/0
  4797 ;;		Unchanged: 0/0
  4798 ;; Data sizes:     COMRAM   BANK0   BANK1   BANK2   BANK3   BANK4   BANK5   BANK6   BANK7   BANK8   BANK9  BANK10  BANK1
      +1  BANK12  BANK13  BANK14  BANK15  BANK16  BANK17  BANK18  BANK19  BANK20  BANK21  BANK22  BANK23  BANK24  BANK25  BANK2
      +6  BANK27  BANK28  BANK29  BANK30  BANK31
  4799 ;;      Params:         0       0       0       0       0       0       0       0       0       0       0       0       
      +0       0       0       0       0       0       0       0       0       0       0       0       0       0       0       
      +0       0       0       0       0       0
  4800 ;;      Locals:         0       0       0       0       0       0       0       0       0       0       0       0       
      +0       0       0       0       0       0       0       0       0       0       0       0       0       0       0       
      +0       0       0       0       0       0
  4801 ;;      Temps:          0       0       0       0       0       0       0       0       0       0       0       0       
      +0       0       0       0       0       0       0       0       0       0       0       0       0       0       0       
      +0       0       0       0       0       0
  4802 ;;      Totals:         0       0       0       0       0       0       0       0       0       0       0       0       
      +0       0       0       0       0       0       0       0       0       0       0       0       0       0       0       
      +0       0       0       0       0       0
  4803 ;;Total ram usage:        0 bytes
  4804 ;; Hardware stack levels used: 1
  4805 ;; Hardware stack levels required when called: 4
  4806 ;; This function calls:
  4807 ;;		Nothing
  4808 ;; This function is called by:
  4809 ;;		_SYSTEM_Initialize
  4810 ;; This function uses a non-reentrant model
  4811 ;;
  4812                           
  4813                           	psect	text29
  4814  004AF0                     __ptext29:
  4815                           	callstack 0
  4816  004AF0                     _CWG3_Initialize:
  4817                           	callstack 25
  4818  004AF0                     
  4819                           ;mcc_generated_files/cwg3.c: 63:  CWG3CON1 = 0x00;
  4820  004AF0  0E00               	movlw	0
  4821  004AF2  013F               	movlb	63	; () banked
  4822  004AF4  6F45               	movwf	69,b	;volatile
  4823                           
  4824                           ;mcc_generated_files/cwg3.c: 66:  CWG3DBR = 0x00;
  4825  004AF6  0E00               	movlw	0
  4826  004AF8  6F42               	movwf	66,b	;volatile
  4827                           
  4828                           ;mcc_generated_files/cwg3.c: 69:  CWG3DBF = 0x00;
  4829  004AFA  0E00               	movlw	0
  4830  004AFC  6F43               	movwf	67,b	;volatile
  4831                           
  4832                           ;mcc_generated_files/cwg3.c: 72:  CWG3AS0 = 0x14;
  4833  004AFE  0E14               	movlw	20
  4834  004B00  6F46               	movwf	70,b	;volatile
  4835                           
  4836                           ;mcc_generated_files/cwg3.c: 75:  CWG3AS1 = 0x00;
  4837  004B02  0E00               	movlw	0
  4838  004B04  6F47               	movwf	71,b	;volatile
  4839                           
  4840                           ;mcc_generated_files/cwg3.c: 78:  CWG3CLKCON = 0x00;
  4841  004B06  0E00               	movlw	0
  4842  004B08  6F40               	movwf	64,b	;volatile
  4843                           
  4844                           ;mcc_generated_files/cwg3.c: 81:  CWG3STR = 0x00;
  4845  004B0A  0E00               	movlw	0
  4846  004B0C  6F48               	movwf	72,b	;volatile
  4847                           
  4848                           ;mcc_generated_files/cwg3.c: 84:  CWG3ISM = 0x06;
  4849  004B0E  0E06               	movlw	6
  4850  004B10  6F41               	movwf	65,b	;volatile
  4851                           
  4852                           ;mcc_generated_files/cwg3.c: 87:  CWG3CON0 = 0x81;
  4853  004B12  0E81               	movlw	129
  4854  004B14  6F44               	movwf	68,b	;volatile
  4855  004B16                     
  4856                           ; BSR set to: 63
  4857  004B16  0012               	return		;funcret
  4858  004B18                     __end_of_CWG3_Initialize:
  4859                           	callstack 0
  4860                           
  4861 ;; *************** function _CWG2_Initialize *****************
  4862 ;; Defined at:
  4863 ;;		line 58 in file "mcc_generated_files/cwg2.c"
  4864 ;; Parameters:    Size  Location     Type
  4865 ;;		None
  4866 ;; Auto vars:     Size  Location     Type
  4867 ;;		None
  4868 ;; Return value:  Size  Location     Type
  4869 ;;                  1    wreg      void 
  4870 ;; Registers used:
  4871 ;;		wreg, status,2
  4872 ;; Tracked objects:
  4873 ;;		On entry : 0/0
  4874 ;;		On exit  : 0/0
  4875 ;;		Unchanged: 0/0
  4876 ;; Data sizes:     COMRAM   BANK0   BANK1   BANK2   BANK3   BANK4   BANK5   BANK6   BANK7   BANK8   BANK9  BANK10  BANK1
      +1  BANK12  BANK13  BANK14  BANK15  BANK16  BANK17  BANK18  BANK19  BANK20  BANK21  BANK22  BANK23  BANK24  BANK25  BANK2
      +6  BANK27  BANK28  BANK29  BANK30  BANK31
  4877 ;;      Params:         0       0       0       0       0       0       0       0       0       0       0       0       
      +0       0       0       0       0       0       0       0       0       0       0       0       0       0       0       
      +0       0       0       0       0       0
  4878 ;;      Locals:         0       0       0       0       0       0       0       0       0       0       0       0       
      +0       0       0       0       0       0       0       0       0       0       0       0       0       0       0       
      +0       0       0       0       0       0
  4879 ;;      Temps:          0       0       0       0       0       0       0       0       0       0       0       0       
      +0       0       0       0       0       0       0       0       0       0       0       0       0       0       0       
      +0       0       0       0       0       0
  4880 ;;      Totals:         0       0       0       0       0       0       0       0       0       0       0       0       
      +0       0       0       0       0       0       0       0       0       0       0       0       0       0       0       
      +0       0       0       0       0       0
  4881 ;;Total ram usage:        0 bytes
  4882 ;; Hardware stack levels used: 1
  4883 ;; Hardware stack levels required when called: 4
  4884 ;; This function calls:
  4885 ;;		Nothing
  4886 ;; This function is called by:
  4887 ;;		_SYSTEM_Initialize
  4888 ;; This function uses a non-reentrant model
  4889 ;;
  4890                           
  4891                           	psect	text30
  4892  004B18                     __ptext30:
  4893                           	callstack 0
  4894  004B18                     _CWG2_Initialize:
  4895                           	callstack 25
  4896  004B18                     
  4897                           ;mcc_generated_files/cwg2.c: 63:  CWG2CON1 = 0x00;
  4898  004B18  0E00               	movlw	0
  4899  004B1A  013F               	movlb	63	; () banked
  4900  004B1C  6F4E               	movwf	78,b	;volatile
  4901                           
  4902                           ;mcc_generated_files/cwg2.c: 66:  CWG2DBR = 0x00;
  4903  004B1E  0E00               	movlw	0
  4904  004B20  6F4B               	movwf	75,b	;volatile
  4905                           
  4906                           ;mcc_generated_files/cwg2.c: 69:  CWG2DBF = 0x00;
  4907  004B22  0E00               	movlw	0
  4908  004B24  6F4C               	movwf	76,b	;volatile
  4909                           
  4910                           ;mcc_generated_files/cwg2.c: 72:  CWG2AS0 = 0x14;
  4911  004B26  0E14               	movlw	20
  4912  004B28  6F4F               	movwf	79,b	;volatile
  4913                           
  4914                           ;mcc_generated_files/cwg2.c: 75:  CWG2AS1 = 0x00;
  4915  004B2A  0E00               	movlw	0
  4916  004B2C  6F50               	movwf	80,b	;volatile
  4917                           
  4918                           ;mcc_generated_files/cwg2.c: 78:  CWG2CLKCON = 0x00;
  4919  004B2E  0E00               	movlw	0
  4920  004B30  6F49               	movwf	73,b	;volatile
  4921                           
  4922                           ;mcc_generated_files/cwg2.c: 81:  CWG2STR = 0x00;
  4923  004B32  0E00               	movlw	0
  4924  004B34  6F51               	movwf	81,b	;volatile
  4925                           
  4926                           ;mcc_generated_files/cwg2.c: 84:  CWG2ISM = 0x06;
  4927  004B36  0E06               	movlw	6
  4928  004B38  6F4A               	movwf	74,b	;volatile
  4929                           
  4930                           ;mcc_generated_files/cwg2.c: 87:  CWG2CON0 = 0x81;
  4931  004B3A  0E81               	movlw	129
  4932  004B3C  6F4D               	movwf	77,b	;volatile
  4933  004B3E                     
  4934                           ; BSR set to: 63
  4935  004B3E  0012               	return		;funcret
  4936  004B40                     __end_of_CWG2_Initialize:
  4937                           	callstack 0
  4938                           
  4939 ;; *************** function _CWG1_Initialize *****************
  4940 ;; Defined at:
  4941 ;;		line 58 in file "mcc_generated_files/cwg1.c"
  4942 ;; Parameters:    Size  Location     Type
  4943 ;;		None
  4944 ;; Auto vars:     Size  Location     Type
  4945 ;;		None
  4946 ;; Return value:  Size  Location     Type
  4947 ;;                  1    wreg      void 
  4948 ;; Registers used:
  4949 ;;		wreg, status,2
  4950 ;; Tracked objects:
  4951 ;;		On entry : 0/0
  4952 ;;		On exit  : 0/0
  4953 ;;		Unchanged: 0/0
  4954 ;; Data sizes:     COMRAM   BANK0   BANK1   BANK2   BANK3   BANK4   BANK5   BANK6   BANK7   BANK8   BANK9  BANK10  BANK1
      +1  BANK12  BANK13  BANK14  BANK15  BANK16  BANK17  BANK18  BANK19  BANK20  BANK21  BANK22  BANK23  BANK24  BANK25  BANK2
      +6  BANK27  BANK28  BANK29  BANK30  BANK31
  4955 ;;      Params:         0       0       0       0       0       0       0       0       0       0       0       0       
      +0       0       0       0       0       0       0       0       0       0       0       0       0       0       0       
      +0       0       0       0       0       0
  4956 ;;      Locals:         0       0       0       0       0       0       0       0       0       0       0       0       
      +0       0       0       0       0       0       0       0       0       0       0       0       0       0       0       
      +0       0       0       0       0       0
  4957 ;;      Temps:          0       0       0       0       0       0       0       0       0       0       0       0       
      +0       0       0       0       0       0       0       0       0       0       0       0       0       0       0       
      +0       0       0       0       0       0
  4958 ;;      Totals:         0       0       0       0       0       0       0       0       0       0       0       0       
      +0       0       0       0       0       0       0       0       0       0       0       0       0       0       0       
      +0       0       0       0       0       0
  4959 ;;Total ram usage:        0 bytes
  4960 ;; Hardware stack levels used: 1
  4961 ;; Hardware stack levels required when called: 4
  4962 ;; This function calls:
  4963 ;;		Nothing
  4964 ;; This function is called by:
  4965 ;;		_SYSTEM_Initialize
  4966 ;; This function uses a non-reentrant model
  4967 ;;
  4968                           
  4969                           	psect	text31
  4970  004B40                     __ptext31:
  4971                           	callstack 0
  4972  004B40                     _CWG1_Initialize:
  4973                           	callstack 25
  4974  004B40                     
  4975                           ;mcc_generated_files/cwg1.c: 63:  CWG1CON1 = 0x00;
  4976  004B40  0E00               	movlw	0
  4977  004B42  013F               	movlb	63	; () banked
  4978  004B44  6F57               	movwf	87,b	;volatile
  4979                           
  4980                           ;mcc_generated_files/cwg1.c: 66:  CWG1DBR = 0x00;
  4981  004B46  0E00               	movlw	0
  4982  004B48  6F54               	movwf	84,b	;volatile
  4983                           
  4984                           ;mcc_generated_files/cwg1.c: 69:  CWG1DBF = 0x00;
  4985  004B4A  0E00               	movlw	0
  4986  004B4C  6F55               	movwf	85,b	;volatile
  4987                           
  4988                           ;mcc_generated_files/cwg1.c: 72:  CWG1AS0 = 0x14;
  4989  004B4E  0E14               	movlw	20
  4990  004B50  6F58               	movwf	88,b	;volatile
  4991                           
  4992                           ;mcc_generated_files/cwg1.c: 75:  CWG1AS1 = 0x00;
  4993  004B52  0E00               	movlw	0
  4994  004B54  6F59               	movwf	89,b	;volatile
  4995                           
  4996                           ;mcc_generated_files/cwg1.c: 78:  CWG1CLKCON = 0x00;
  4997  004B56  0E00               	movlw	0
  4998  004B58  6F52               	movwf	82,b	;volatile
  4999                           
  5000                           ;mcc_generated_files/cwg1.c: 81:  CWG1STR = 0x00;
  5001  004B5A  0E00               	movlw	0
  5002  004B5C  6F5A               	movwf	90,b	;volatile
  5003                           
  5004                           ;mcc_generated_files/cwg1.c: 84:  CWG1ISM = 0x06;
  5005  004B5E  0E06               	movlw	6
  5006  004B60  6F53               	movwf	83,b	;volatile
  5007                           
  5008                           ;mcc_generated_files/cwg1.c: 87:  CWG1CON0 = 0x81;
  5009  004B62  0E81               	movlw	129
  5010  004B64  6F56               	movwf	86,b	;volatile
  5011  004B66                     
  5012                           ; BSR set to: 63
  5013  004B66  0012               	return		;funcret
  5014  004B68                     __end_of_CWG1_Initialize:
  5015                           	callstack 0
  5016                           
  5017 ;; *************** function _ADCC_Initialize *****************
  5018 ;; Defined at:
  5019 ;;		line 62 in file "mcc_generated_files/adcc.c"
  5020 ;; Parameters:    Size  Location     Type
  5021 ;;		None
  5022 ;; Auto vars:     Size  Location     Type
  5023 ;;		None
  5024 ;; Return value:  Size  Location     Type
  5025 ;;                  1    wreg      void 
  5026 ;; Registers used:
  5027 ;;		wreg, status,2
  5028 ;; Tracked objects:
  5029 ;;		On entry : 0/0
  5030 ;;		On exit  : 0/0
  5031 ;;		Unchanged: 0/0
  5032 ;; Data sizes:     COMRAM   BANK0   BANK1   BANK2   BANK3   BANK4   BANK5   BANK6   BANK7   BANK8   BANK9  BANK10  BANK1
      +1  BANK12  BANK13  BANK14  BANK15  BANK16  BANK17  BANK18  BANK19  BANK20  BANK21  BANK22  BANK23  BANK24  BANK25  BANK2
      +6  BANK27  BANK28  BANK29  BANK30  BANK31
  5033 ;;      Params:         0       0       0       0       0       0       0       0       0       0       0       0       
      +0       0       0       0       0       0       0       0       0       0       0       0       0       0       0       
      +0       0       0       0       0       0
  5034 ;;      Locals:         0       0       0       0       0       0       0       0       0       0       0       0       
      +0       0       0       0       0       0       0       0       0       0       0       0       0       0       0       
      +0       0       0       0       0       0
  5035 ;;      Temps:          0       0       0       0       0       0       0       0       0       0       0       0       
      +0       0       0       0       0       0       0       0       0       0       0       0       0       0       0       
      +0       0       0       0       0       0
  5036 ;;      Totals:         0       0       0       0       0       0       0       0       0       0       0       0       
      +0       0       0       0       0       0       0       0       0       0       0       0       0       0       0       
      +0       0       0       0       0       0
  5037 ;;Total ram usage:        0 bytes
  5038 ;; Hardware stack levels used: 1
  5039 ;; Hardware stack levels required when called: 4
  5040 ;; This function calls:
  5041 ;;		Nothing
  5042 ;; This function is called by:
  5043 ;;		_SYSTEM_Initialize
  5044 ;; This function uses a non-reentrant model
  5045 ;;
  5046                           
  5047                           	psect	text32
  5048  004788                     __ptext32:
  5049                           	callstack 0
  5050  004788                     _ADCC_Initialize:
  5051                           	callstack 25
  5052  004788                     
  5053                           ;mcc_generated_files/adcc.c: 66:     ADLTHL = 0x00;
  5054  004788  0E00               	movlw	0
  5055  00478A  013E               	movlb	62	; () banked
  5056  00478C  6FDE               	movwf	222,b	;volatile
  5057                           
  5058                           ;mcc_generated_files/adcc.c: 68:     ADLTHH = 0x00;
  5059  00478E  0E00               	movlw	0
  5060  004790  6FDF               	movwf	223,b	;volatile
  5061                           
  5062                           ;mcc_generated_files/adcc.c: 70:     ADUTHL = 0x00;
  5063  004792  0E00               	movlw	0
  5064  004794  6FE0               	movwf	224,b	;volatile
  5065                           
  5066                           ;mcc_generated_files/adcc.c: 72:     ADUTHH = 0x00;
  5067  004796  0E00               	movlw	0
  5068  004798  6FE1               	movwf	225,b	;volatile
  5069                           
  5070                           ;mcc_generated_files/adcc.c: 74:     ADSTPTL = 0x00;
  5071  00479A  0E00               	movlw	0
  5072  00479C  6FE4               	movwf	228,b	;volatile
  5073                           
  5074                           ;mcc_generated_files/adcc.c: 76:     ADSTPTH = 0x00;
  5075  00479E  0E00               	movlw	0
  5076  0047A0  6FE5               	movwf	229,b	;volatile
  5077                           
  5078                           ;mcc_generated_files/adcc.c: 78:     ADACCU = 0x00;
  5079  0047A2  0E00               	movlw	0
  5080  0047A4  6FEA               	movwf	234,b	;volatile
  5081                           
  5082                           ;mcc_generated_files/adcc.c: 80:     ADRPT = 0x00;
  5083  0047A6  0E00               	movlw	0
  5084  0047A8  6FEC               	movwf	236,b	;volatile
  5085                           
  5086                           ;mcc_generated_files/adcc.c: 82:     ADPCH = 0x00;
  5087  0047AA  0E00               	movlw	0
  5088  0047AC  6FF1               	movwf	241,b	;volatile
  5089                           
  5090                           ;mcc_generated_files/adcc.c: 84:     ADACQL = 0x00;
  5091  0047AE  0E00               	movlw	0
  5092  0047B0  6FF3               	movwf	243,b	;volatile
  5093                           
  5094                           ;mcc_generated_files/adcc.c: 86:     ADACQH = 0x00;
  5095  0047B2  0E00               	movlw	0
  5096  0047B4  6FF4               	movwf	244,b	;volatile
  5097                           
  5098                           ;mcc_generated_files/adcc.c: 88:     ADCAP = 0x00;
  5099  0047B6  0E00               	movlw	0
  5100  0047B8  6FF5               	movwf	245,b	;volatile
  5101                           
  5102                           ;mcc_generated_files/adcc.c: 90:     ADPREL = 0x00;
  5103  0047BA  0E00               	movlw	0
  5104  0047BC  6FF6               	movwf	246,b	;volatile
  5105                           
  5106                           ;mcc_generated_files/adcc.c: 92:     ADPREH = 0x00;
  5107  0047BE  0E00               	movlw	0
  5108  0047C0  6FF7               	movwf	247,b	;volatile
  5109                           
  5110                           ;mcc_generated_files/adcc.c: 94:     ADCON1 = 0x00;
  5111  0047C2  0E00               	movlw	0
  5112  0047C4  6FF9               	movwf	249,b	;volatile
  5113                           
  5114                           ;mcc_generated_files/adcc.c: 96:     ADCON2 = 0x00;
  5115  0047C6  0E00               	movlw	0
  5116  0047C8  6FFA               	movwf	250,b	;volatile
  5117                           
  5118                           ;mcc_generated_files/adcc.c: 98:     ADCON3 = 0x00;
  5119  0047CA  0E00               	movlw	0
  5120  0047CC  6FFB               	movwf	251,b	;volatile
  5121                           
  5122                           ;mcc_generated_files/adcc.c: 100:     ADSTAT = 0x00;
  5123  0047CE  0E00               	movlw	0
  5124  0047D0  6FFC               	movwf	252,b	;volatile
  5125                           
  5126                           ;mcc_generated_files/adcc.c: 102:     ADREF = 0x00;
  5127  0047D2  0E00               	movlw	0
  5128  0047D4  6FFD               	movwf	253,b	;volatile
  5129                           
  5130                           ;mcc_generated_files/adcc.c: 104:     ADACT = 0x00;
  5131  0047D6  0E00               	movlw	0
  5132  0047D8  6FFE               	movwf	254,b	;volatile
  5133                           
  5134                           ;mcc_generated_files/adcc.c: 106:     ADCLK = 0x00;
  5135  0047DA  0E00               	movlw	0
  5136  0047DC  6FFF               	movwf	255,b	;volatile
  5137                           
  5138                           ;mcc_generated_files/adcc.c: 108:     ADCON0 = 0x94;
  5139  0047DE  0E94               	movlw	148
  5140  0047E0  6FF8               	movwf	248,b	;volatile
  5141  0047E2                     
  5142                           ; BSR set to: 62
  5143  0047E2  0012               	return		;funcret
  5144  0047E4                     __end_of_ADCC_Initialize:
  5145                           	callstack 0
  5146                           
  5147 ;; *************** function _PWM6_LoadDutyValue *****************
  5148 ;; Defined at:
  5149 ;;		line 74 in file "mcc_generated_files/pwm6.c"
  5150 ;; Parameters:    Size  Location     Type
  5151 ;;  dutyValue       2    0[BANK0 ] unsigned short 
  5152 ;; Auto vars:     Size  Location     Type
  5153 ;;		None
  5154 ;; Return value:  Size  Location     Type
  5155 ;;                  1    wreg      void 
  5156 ;; Registers used:
  5157 ;;		wreg, status,2, status,0
  5158 ;; Tracked objects:
  5159 ;;		On entry : 0/0
  5160 ;;		On exit  : 0/0
  5161 ;;		Unchanged: 0/0
  5162 ;; Data sizes:     COMRAM   BANK0   BANK1   BANK2   BANK3   BANK4   BANK5   BANK6   BANK7   BANK8   BANK9  BANK10  BANK1
      +1  BANK12  BANK13  BANK14  BANK15  BANK16  BANK17  BANK18  BANK19  BANK20  BANK21  BANK22  BANK23  BANK24  BANK25  BANK2
      +6  BANK27  BANK28  BANK29  BANK30  BANK31
  5163 ;;      Params:         0       2       0       0       0       0       0       0       0       0       0       0       
      +0       0       0       0       0       0       0       0       0       0       0       0       0       0       0       
      +0       0       0       0       0       0
  5164 ;;      Locals:         0       0       0       0       0       0       0       0       0       0       0       0       
      +0       0       0       0       0       0       0       0       0       0       0       0       0       0       0       
      +0       0       0       0       0       0
  5165 ;;      Temps:          0       2       0       0       0       0       0       0       0       0       0       0       
      +0       0       0       0       0       0       0       0       0       0       0       0       0       0       0       
      +0       0       0       0       0       0
  5166 ;;      Totals:         0       4       0       0       0       0       0       0       0       0       0       0       
      +0       0       0       0       0       0       0       0       0       0       0       0       0       0       0       
      +0       0       0       0       0       0
  5167 ;;Total ram usage:        4 bytes
  5168 ;; Hardware stack levels used: 1
  5169 ;; Hardware stack levels required when called: 4
  5170 ;; This function calls:
  5171 ;;		Nothing
  5172 ;; This function is called by:
  5173 ;;		_main
  5174 ;; This function uses a non-reentrant model
  5175 ;;
  5176                           
  5177                           	psect	text33
  5178  0049C2                     __ptext33:
  5179                           	callstack 0
  5180  0049C2                     _PWM6_LoadDutyValue:
  5181                           	callstack 26
  5182  0049C2                     
  5183                           ;mcc_generated_files/pwm6.c: 74:  void PWM6_LoadDutyValue(uint16_t dutyValue);mcc_genera
      +                          ted_files/pwm6.c: 75:  {;mcc_generated_files/pwm6.c: 77:      PWM6DCH = (dutyValue & 0x0
      +                          3FC)>>2;
  5184  0049C2  C0A8  F0AA         	movff	PWM6_LoadDutyValue@dutyValue,??_PWM6_LoadDutyValue
  5185  0049C6  C0A9  F0AB         	movff	PWM6_LoadDutyValue@dutyValue+1,??_PWM6_LoadDutyValue+1
  5186  0049CA  0100               	movlb	0	; () banked
  5187  0049CC  90D8               	bcf	status,0,c
  5188  0049CE  33AB               	rrcf	(??_PWM6_LoadDutyValue+1)& (0+255),f,b
  5189  0049D0  33AA               	rrcf	??_PWM6_LoadDutyValue& (0+255),f,b
  5190  0049D2  90D8               	bcf	status,0,c
  5191  0049D4  33AB               	rrcf	(??_PWM6_LoadDutyValue+1)& (0+255),f,b
  5192  0049D6  33AA               	rrcf	??_PWM6_LoadDutyValue& (0+255),f,b
  5193  0049D8  51AA               	movf	??_PWM6_LoadDutyValue& (0+255),w,b
  5194  0049DA  6E69               	movwf	105,c	;volatile
  5195                           
  5196                           ;mcc_generated_files/pwm6.c: 80:      PWM6DCL = (dutyValue & 0x0003)<<6;
  5197  0049DC  C0A8  F0AA         	movff	PWM6_LoadDutyValue@dutyValue,??_PWM6_LoadDutyValue
  5198  0049E0  0E03               	movlw	3
  5199  0049E2  17AA               	andwf	??_PWM6_LoadDutyValue& (0+255),f,b
  5200  0049E4  0E06               	movlw	6
  5201  0049E6  6FAB               	movwf	(??_PWM6_LoadDutyValue+1)& (0+255),b
  5202  0049E8                     u4395:
  5203  0049E8  90D8               	bcf	status,0,c
  5204  0049EA  37AA               	rlcf	??_PWM6_LoadDutyValue& (0+255),f,b
  5205  0049EC  2FAB               	decfsz	(??_PWM6_LoadDutyValue+1)& (0+255),f,b
  5206  0049EE  EFF4  F024         	goto	u4395
  5207  0049F2  51AA               	movf	??_PWM6_LoadDutyValue& (0+255),w,b
  5208  0049F4  6E68               	movwf	104,c	;volatile
  5209  0049F6                     
  5210                           ; BSR set to: 0
  5211  0049F6  0012               	return		;funcret
  5212  0049F8                     __end_of_PWM6_LoadDutyValue:
  5213                           	callstack 0
  5214                           
  5215 ;; *************** function _INTERRUPT_InterruptManager *****************
  5216 ;; Defined at:
  5217 ;;		line 85 in file "mcc_generated_files/interrupt_manager.c"
  5218 ;; Parameters:    Size  Location     Type
  5219 ;;		None
  5220 ;; Auto vars:     Size  Location     Type
  5221 ;;		None
  5222 ;; Return value:  Size  Location     Type
  5223 ;;                  1    wreg      void 
  5224 ;; Registers used:
  5225 ;;		wreg, fsr2l, fsr2h, status,2, status,0, pcl, pclath, pclatu, tosl, prodl, prodh, cstack
  5226 ;; Tracked objects:
  5227 ;;		On entry : 0/0
  5228 ;;		On exit  : 0/0
  5229 ;;		Unchanged: 0/0
  5230 ;; Data sizes:     COMRAM   BANK0   BANK1   BANK2   BANK3   BANK4   BANK5   BANK6   BANK7   BANK8   BANK9  BANK10  BANK1
      +1  BANK12  BANK13  BANK14  BANK15  BANK16  BANK17  BANK18  BANK19  BANK20  BANK21  BANK22  BANK23  BANK24  BANK25  BANK2
      +6  BANK27  BANK28  BANK29  BANK30  BANK31
  5231 ;;      Params:         0       0       0       0       0       0       0       0       0       0       0       0       
      +0       0       0       0       0       0       0       0       0       0       0       0       0       0       0       
      +0       0       0       0       0       0
  5232 ;;      Locals:         0       0       0       0       0       0       0       0       0       0       0       0       
      +0       0       0       0       0       0       0       0       0       0       0       0       0       0       0       
      +0       0       0       0       0       0
  5233 ;;      Temps:          2       0       0       0       0       0       0       0       0       0       0       0       
      +0       0       0       0       0       0       0       0       0       0       0       0       0       0       0       
      +0       0       0       0       0       0
  5234 ;;      Totals:         2       0       0       0       0       0       0       0       0       0       0       0       
      +0       0       0       0       0       0       0       0       0       0       0       0       0       0       0       
      +0       0       0       0       0       0
  5235 ;;Total ram usage:        2 bytes
  5236 ;; Hardware stack levels used: 1
  5237 ;; Hardware stack levels required when called: 3
  5238 ;; This function calls:
  5239 ;;		_RutinaTransmicionUSART_ASCII
  5240 ;;		_Temp
  5241 ;;		_UART1_Receive
  5242 ;;		___fldiv
  5243 ;;		_actualizarEstadoMotor
  5244 ;;		i2_PWM6_LoadDutyValue
  5245 ;;		i2___fltol
  5246 ;;		i2___xxtofl
  5247 ;; This function is called by:
  5248 ;;		Interrupt level 2
  5249 ;; This function uses a non-reentrant model
  5250 ;;
  5251                           
  5252                           	psect	text34
  5253  002C40                     __ptext34:
  5254                           	callstack 0
  5255  002C40                     _INTERRUPT_InterruptManager:
  5256                           	callstack 24
  5257                           
  5258                           ; BSR set to: 0
  5259                           ;incstack = 0
  5260  002C40  006F FFE8  F039    	movff	pclath,??_INTERRUPT_InterruptManager
  5261  002C46  006F FFEC  F03A    	movff	pclatu,??_INTERRUPT_InterruptManager+1
  5262  002C4C                     
  5263                           ;mcc_generated_files/interrupt_manager.c: 93:     if (PIE3bits.U1RXIE == 1 && PIR3bits.U
      +                          1RXIF == 1) {
  5264  002C4C  0139               	movlb	57	; () banked
  5265  002C4E  A793               	btfss	147,3,b	;volatile
  5266  002C50  EF2C  F016         	goto	i2u541_41
  5267  002C54  EF2E  F016         	goto	i2u541_40
  5268  002C58                     i2u541_41:
  5269  002C58  EF38  F016         	goto	i2l5967
  5270  002C5C                     i2u541_40:
  5271  002C5C                     
  5272                           ; BSR set to: 57
  5273  002C5C  A7A3               	btfss	163,3,b	;volatile
  5274  002C5E  EF33  F016         	goto	i2u542_41
  5275  002C62  EF35  F016         	goto	i2u542_40
  5276  002C66                     i2u542_41:
  5277  002C66  EF38  F016         	goto	i2l5967
  5278  002C6A                     i2u542_40:
  5279  002C6A                     
  5280                           ; BSR set to: 57
  5281                           ;mcc_generated_files/interrupt_manager.c: 96:         PIR3bits.U1RXIF = 0;
  5282  002C6A  97A3               	bcf	163,3,b	;volatile
  5283  002C6C                     
  5284                           ; BSR set to: 57
  5285                           ;mcc_generated_files/interrupt_manager.c: 97:         UART1_Receive();
  5286  002C6C  EC07  F01B         	call	_UART1_Receive	;wreg free
  5287  002C70                     i2l5967:
  5288                           
  5289                           ;mcc_generated_files/interrupt_manager.c: 99:     if (PIE8bits.TMR5IE == 1 && PIR8bits.T
      +                          MR5IF == 1) {
  5290  002C70  0139               	movlb	57	; () banked
  5291  002C72  AD98               	btfss	152,6,b	;volatile
  5292  002C74  EF3E  F016         	goto	i2u543_41
  5293  002C78  EF40  F016         	goto	i2u543_40
  5294  002C7C                     i2u543_41:
  5295  002C7C  EF8B  F016         	goto	i2l5991
  5296  002C80                     i2u543_40:
  5297  002C80                     
  5298                           ; BSR set to: 57
  5299  002C80  ADA8               	btfss	168,6,b	;volatile
  5300  002C82  EF45  F016         	goto	i2u544_41
  5301  002C86  EF47  F016         	goto	i2u544_40
  5302  002C8A                     i2u544_41:
  5303  002C8A  EF8B  F016         	goto	i2l5991
  5304  002C8E                     i2u544_40:
  5305  002C8E                     
  5306                           ; BSR set to: 57
  5307                           ;mcc_generated_files/interrupt_manager.c: 100:         PIR8bits.TMR5IF = 0;
  5308  002C8E  9DA8               	bcf	168,6,b	;volatile
  5309                           
  5310                           ;mcc_generated_files/interrupt_manager.c: 101:         T5CONbits.TMR5ON = 0;
  5311  002C90  909A               	bcf	154,0,c	;volatile
  5312  002C92                     
  5313                           ; BSR set to: 57
  5314                           ;mcc_generated_files/interrupt_manager.c: 103:         if (leidos[0] == 0x44) {
  5315  002C92  0E44               	movlw	68
  5316  002C94  0100               	movlb	0	; () banked
  5317  002C96  1980               	xorwf	_leidos& (0+255),w,b
  5318  002C98  A4D8               	btfss	status,2,c
  5319  002C9A  EF51  F016         	goto	i2u545_41
  5320  002C9E  EF53  F016         	goto	i2u545_40
  5321  002CA2                     i2u545_41:
  5322  002CA2  EF69  F016         	goto	i2l5981
  5323  002CA6                     i2u545_40:
  5324  002CA6                     
  5325                           ; BSR set to: 0
  5326                           ;mcc_generated_files/interrupt_manager.c: 104:             if (duty > 0) {
  5327  002CA6  BE5C               	btfsc	(_duty+1)^0,7,c
  5328  002CA8  EF5E  F016         	goto	i2u546_41
  5329  002CAC  505C               	movf	(_duty+1)^0,w,c
  5330  002CAE  E108               	bnz	i2u546_40
  5331  002CB0  045B               	decf	_duty^0,w,c
  5332  002CB2  A0D8               	btfss	status,0,c
  5333  002CB4  EF5E  F016         	goto	i2u546_41
  5334  002CB8  EF60  F016         	goto	i2u546_40
  5335  002CBC                     i2u546_41:
  5336  002CBC  EF69  F016         	goto	i2l5981
  5337  002CC0                     i2u546_40:
  5338  002CC0                     
  5339                           ; BSR set to: 0
  5340                           ;mcc_generated_files/interrupt_manager.c: 105:                 duty--;
  5341  002CC0  065B               	decf	_duty^0,f,c
  5342  002CC2  A0D8               	btfss	status,0,c
  5343  002CC4  065C               	decf	(_duty+1)^0,f,c
  5344  002CC6                     
  5345                           ; BSR set to: 0
  5346                           ;mcc_generated_files/interrupt_manager.c: 106:                 PWM6_LoadDutyValue(duty);
  5347  002CC6  C05B  F007         	movff	_duty,i2PWM6_LoadDutyValue@dutyValue
  5348  002CCA  C05C  F008         	movff	_duty+1,i2PWM6_LoadDutyValue@dutyValue+1
  5349  002CCE  EC17  F025         	call	i2_PWM6_LoadDutyValue	;wreg free
  5350  002CD2                     i2l5981:
  5351                           
  5352                           ;mcc_generated_files/interrupt_manager.c: 110:         if (leidos[0] == 0x55) {
  5353  002CD2  0E55               	movlw	85
  5354  002CD4  0100               	movlb	0	; () banked
  5355  002CD6  1980               	xorwf	_leidos& (0+255),w,b
  5356  002CD8  A4D8               	btfss	status,2,c
  5357  002CDA  EF71  F016         	goto	i2u547_41
  5358  002CDE  EF73  F016         	goto	i2u547_40
  5359  002CE2                     i2u547_41:
  5360  002CE2  EF89  F016         	goto	i2l5989
  5361  002CE6                     i2u547_40:
  5362  002CE6                     
  5363                           ; BSR set to: 0
  5364                           ;mcc_generated_files/interrupt_manager.c: 111:             if (duty < 599) {
  5365  002CE6  BE5C               	btfsc	(_duty+1)^0,7,c
  5366  002CE8  EF81  F016         	goto	i2u548_40
  5367  002CEC  0E57               	movlw	87
  5368  002CEE  5C5B               	subwf	_duty^0,w,c
  5369  002CF0  0E02               	movlw	2
  5370  002CF2  585C               	subwfb	(_duty+1)^0,w,c
  5371  002CF4  B0D8               	btfsc	status,0,c
  5372  002CF6  EF7F  F016         	goto	i2u548_41
  5373  002CFA  EF81  F016         	goto	i2u548_40
  5374  002CFE                     i2u548_41:
  5375  002CFE  EF89  F016         	goto	i2l5989
  5376  002D02                     i2u548_40:
  5377  002D02                     
  5378                           ; BSR set to: 0
  5379                           ;mcc_generated_files/interrupt_manager.c: 112:                 duty++;
  5380  002D02  4A5B               	infsnz	_duty^0,f,c
  5381  002D04  2A5C               	incf	(_duty+1)^0,f,c
  5382  002D06                     
  5383                           ; BSR set to: 0
  5384                           ;mcc_generated_files/interrupt_manager.c: 113:                 PWM6_LoadDutyValue(duty);
  5385  002D06  C05B  F007         	movff	_duty,i2PWM6_LoadDutyValue@dutyValue
  5386  002D0A  C05C  F008         	movff	_duty+1,i2PWM6_LoadDutyValue@dutyValue+1
  5387  002D0E  EC17  F025         	call	i2_PWM6_LoadDutyValue	;wreg free
  5388  002D12                     i2l5989:
  5389                           
  5390                           ;mcc_generated_files/interrupt_manager.c: 116:         PIE8bits.TMR5IE = 0;
  5391  002D12  0139               	movlb	57	; () banked
  5392  002D14  9D98               	bcf	152,6,b	;volatile
  5393  002D16                     i2l5991:
  5394                           
  5395                           ; BSR set to: 57
  5396                           ;mcc_generated_files/interrupt_manager.c: 121:     if (PIE7bits.TMR4IE == 1 && PIR7bits.
      +                          TMR4IF == 1) {
  5397  002D16  A197               	btfss	151,0,b	;volatile
  5398  002D18  EF90  F016         	goto	i2u549_41
  5399  002D1C  EF92  F016         	goto	i2u549_40
  5400  002D20                     i2u549_41:
  5401  002D20  EFAF  F016         	goto	i2l6005
  5402  002D24                     i2u549_40:
  5403  002D24                     
  5404                           ; BSR set to: 57
  5405  002D24  A1A7               	btfss	167,0,b	;volatile
  5406  002D26  EF97  F016         	goto	i2u550_41
  5407  002D2A  EF99  F016         	goto	i2u550_40
  5408  002D2E                     i2u550_41:
  5409  002D2E  EFAF  F016         	goto	i2l6005
  5410  002D32                     i2u550_40:
  5411  002D32                     
  5412                           ; BSR set to: 57
  5413                           ;mcc_generated_files/interrupt_manager.c: 124:         PIR7bits.TMR4IF = 0;
  5414  002D32  91A7               	bcf	167,0,b	;volatile
  5415  002D34                     
  5416                           ; BSR set to: 57
  5417                           ;mcc_generated_files/interrupt_manager.c: 131:         actualizarEstadoMotor();
  5418  002D34  ECDF  F01F         	call	_actualizarEstadoMotor	;wreg free
  5419  002D38                     
  5420                           ;mcc_generated_files/interrupt_manager.c: 132:         if (contConm == 6) {
  5421  002D38  0E06               	movlw	6
  5422  002D3A  1858               	xorwf	_contConm^0,w,c
  5423  002D3C  1059               	iorwf	(_contConm+1)^0,w,c
  5424  002D3E  A4D8               	btfss	status,2,c
  5425  002D40  EFA4  F016         	goto	i2u551_41
  5426  002D44  EFA6  F016         	goto	i2u551_40
  5427  002D48                     i2u551_41:
  5428  002D48  EFAF  F016         	goto	i2l6005
  5429  002D4C                     i2u551_40:
  5430  002D4C                     
  5431                           ;mcc_generated_files/interrupt_manager.c: 133:             PIE9bits.TMR6IE = 0;
  5432  002D4C  0139               	movlb	57	; () banked
  5433  002D4E  9199               	bcf	153,0,b	;volatile
  5434                           
  5435                           ;mcc_generated_files/interrupt_manager.c: 134:             contConm = -1;
  5436  002D50  6858               	setf	_contConm^0,c
  5437  002D52  6859               	setf	(_contConm+1)^0,c
  5438  002D54                     
  5439                           ; BSR set to: 57
  5440                           ;mcc_generated_files/interrupt_manager.c: 135:             index = 0;
  5441  002D54  0E00               	movlw	0
  5442  002D56  6E53               	movwf	_index^0,c
  5443                           
  5444                           ;mcc_generated_files/interrupt_manager.c: 136:             calcPromedio = 1;
  5445  002D58  0E01               	movlw	1
  5446  002D5A  0100               	movlb	0	; () banked
  5447  002D5C  6FA7               	movwf	_calcPromedio& (0+255),b
  5448  002D5E                     i2l6005:
  5449                           
  5450                           ;mcc_generated_files/interrupt_manager.c: 145:     if (PIE9bits.TMR6IE == 1 && PIR9bits.
      +                          TMR6IF == 1)
  5451  002D5E  0139               	movlb	57	; () banked
  5452  002D60  A199               	btfss	153,0,b	;volatile
  5453  002D62  EFB5  F016         	goto	i2u552_41
  5454  002D66  EFB7  F016         	goto	i2u552_40
  5455  002D6A                     i2u552_41:
  5456  002D6A  EFC2  F016         	goto	i2l6013
  5457  002D6E                     i2u552_40:
  5458  002D6E                     
  5459                           ; BSR set to: 57
  5460  002D6E  A1A9               	btfss	169,0,b	;volatile
  5461  002D70  EFBC  F016         	goto	i2u553_41
  5462  002D74  EFBE  F016         	goto	i2u553_40
  5463  002D78                     i2u553_41:
  5464  002D78  EFC2  F016         	goto	i2l6013
  5465  002D7C                     i2u553_40:
  5466  002D7C                     
  5467                           ; BSR set to: 57
  5468                           ;mcc_generated_files/interrupt_manager.c: 146:     {;mcc_generated_files/interrupt_manag
      +                          er.c: 147:         PIR9bits.TMR6IF = 0;
  5469  002D7C  91A9               	bcf	169,0,b	;volatile
  5470                           
  5471                           ;mcc_generated_files/interrupt_manager.c: 148:         T6CONbits.TMR6ON = 0;
  5472  002D7E  9E94               	bcf	148,7,c	;volatile
  5473  002D80                     
  5474                           ; BSR set to: 57
  5475                           ;mcc_generated_files/interrupt_manager.c: 149:         timer6 = 1;
  5476  002D80  0E01               	movlw	1
  5477  002D82  6E52               	movwf	_timer6^0,c
  5478  002D84                     i2l6013:
  5479                           
  5480                           ; BSR set to: 57
  5481                           ;mcc_generated_files/interrupt_manager.c: 152:     if (PIE4bits.TMR1IE == 1 && PIR4bits.
      +                          TMR1IF == 1) {
  5482  002D84  A194               	btfss	148,0,b	;volatile
  5483  002D86  EFC7  F016         	goto	i2u554_41
  5484  002D8A  EFC9  F016         	goto	i2u554_40
  5485  002D8E                     i2u554_41:
  5486  002D8E  EF1B  F017         	goto	i2l6037
  5487  002D92                     i2u554_40:
  5488  002D92                     
  5489                           ; BSR set to: 57
  5490  002D92  A1A4               	btfss	164,0,b	;volatile
  5491  002D94  EFCE  F016         	goto	i2u555_41
  5492  002D98  EFD0  F016         	goto	i2u555_40
  5493  002D9C                     i2u555_41:
  5494  002D9C  EF1B  F017         	goto	i2l6037
  5495  002DA0                     i2u555_40:
  5496  002DA0                     
  5497                           ; BSR set to: 57
  5498                           ;mcc_generated_files/interrupt_manager.c: 154:         PIR4bits.TMR1IF = 0;
  5499  002DA0  91A4               	bcf	164,0,b	;volatile
  5500                           
  5501                           ;mcc_generated_files/interrupt_manager.c: 155:         T1CONbits.TMR1ON = 0;
  5502  002DA2  90B2               	bcf	178,0,c	;volatile
  5503  002DA4                     
  5504                           ; BSR set to: 57
  5505                           ;mcc_generated_files/interrupt_manager.c: 156:         measuring = 0;
  5506  002DA4  0E00               	movlw	0
  5507  002DA6  6E51               	movwf	_measuring^0,c	;volatile
  5508  002DA8                     
  5509                           ; BSR set to: 57
  5510                           ;mcc_generated_files/interrupt_manager.c: 157:         rps = (uint16_t) (pulse_count);
  5511  002DA8  C07C  F054         	movff	_pulse_count,_rps	;volatile
  5512  002DAC  C07D  F055         	movff	_pulse_count+1,_rps+1	;volatile
  5513  002DB0                     
  5514                           ; BSR set to: 57
  5515                           ;mcc_generated_files/interrupt_manager.c: 158:         send_data[0] = rps;
  5516  002DB0  C054  F070         	movff	_rps,_send_data	;volatile
  5517  002DB4  C055  F071         	movff	_rps+1,_send_data+1	;volatile
  5518  002DB8                     
  5519                           ; BSR set to: 57
  5520                           ;mcc_generated_files/interrupt_manager.c: 159:         T6PR = (int) (8354.35 / rps);
  5521  002DB8  C054  F001         	movff	_rps,i2___xxtofl@val	;volatile
  5522  002DBC  C055  F002         	movff	_rps+1,i2___xxtofl@val+1	;volatile
  5523  002DC0  6A03               	clrf	(i2___xxtofl@val+2)^0,c
  5524  002DC2  6A04               	clrf	(i2___xxtofl@val+3)^0,c
  5525  002DC4  0E00               	movlw	0
  5526  002DC6  ECE3  F01C         	call	i2___xxtofl
  5527  002DCA  C001  F013         	movff	?i2___xxtofl,___fldiv@a
  5528  002DCE  C002  F014         	movff	?i2___xxtofl+1,___fldiv@a+1
  5529  002DD2  C003  F015         	movff	?i2___xxtofl+2,___fldiv@a+2
  5530  002DD6  C004  F016         	movff	?i2___xxtofl+3,___fldiv@a+3
  5531  002DDA  0E66               	movlw	102
  5532  002DDC  6E0F               	movwf	___fldiv@b^0,c
  5533  002DDE  0E89               	movlw	137
  5534  002DE0  6E10               	movwf	(___fldiv@b+1)^0,c
  5535  002DE2  0E02               	movlw	2
  5536  002DE4  6E11               	movwf	(___fldiv@b+2)^0,c
  5537  002DE6  0E46               	movlw	70
  5538  002DE8  6E12               	movwf	(___fldiv@b+3)^0,c
  5539  002DEA  EC53  F014         	call	___fldiv	;wreg free
  5540  002DEE  C00F  F028         	movff	?___fldiv,i2___fltol@f1
  5541  002DF2  C010  F029         	movff	?___fldiv+1,i2___fltol@f1+1
  5542  002DF6  C011  F02A         	movff	?___fldiv+2,i2___fltol@f1+2
  5543  002DFA  C012  F02B         	movff	?___fldiv+3,i2___fltol@f1+3
  5544  002DFE  EC7F  F021         	call	i2___fltol	;wreg free
  5545  002E02  5028               	movf	?i2___fltol^0,w,c
  5546  002E04  6E93               	movwf	147,c	;volatile
  5547  002E06                     
  5548                           ;mcc_generated_files/interrupt_manager.c: 160:         pulse_count = 0;
  5549  002E06  0E00               	movlw	0
  5550  002E08  0100               	movlb	0	; () banked
  5551  002E0A  6F7C               	movwf	_pulse_count& (0+255),b	;volatile
  5552  002E0C  0E00               	movlw	0
  5553  002E0E  6F7D               	movwf	(_pulse_count+1)& (0+255),b	;volatile
  5554  002E10  0E00               	movlw	0
  5555  002E12  6F7E               	movwf	(_pulse_count+2)& (0+255),b	;volatile
  5556  002E14  0E00               	movlw	0
  5557  002E16  6F7F               	movwf	(_pulse_count+3)& (0+255),b	;volatile
  5558                           
  5559                           ;mcc_generated_files/interrupt_manager.c: 161:         Temp();
  5560  002E18  EC48  F024         	call	_Temp	;wreg free
  5561  002E1C                     
  5562                           ;mcc_generated_files/interrupt_manager.c: 162:         send_data[2] = adc_meas;
  5563  002E1C  C09F  F074         	movff	_adc_meas,_send_data+4
  5564  002E20  C0A0  F075         	movff	_adc_meas+1,_send_data+5
  5565  002E24                     
  5566                           ;mcc_generated_files/interrupt_manager.c: 163:         send_data[3] = duty;
  5567  002E24  C05B  F076         	movff	_duty,_send_data+6
  5568  002E28  C05C  F077         	movff	_duty+1,_send_data+7
  5569  002E2C                     
  5570                           ;mcc_generated_files/interrupt_manager.c: 164:         PIE4bits.TMR1IE = 0;
  5571  002E2C  0139               	movlb	57	; () banked
  5572  002E2E  9194               	bcf	148,0,b	;volatile
  5573  002E30                     
  5574                           ; BSR set to: 57
  5575                           ;mcc_generated_files/interrupt_manager.c: 165:         ascii = 1;
  5576  002E30  0E01               	movlw	1
  5577  002E32  0100               	movlb	0	; () banked
  5578  002E34  6FA6               	movwf	_ascii& (0+255),b
  5579  002E36                     i2l6037:
  5580                           
  5581                           ;mcc_generated_files/interrupt_manager.c: 168:     if (PIE0bits.IOCIE == 1 && PIR0bits.I
      +                          OCIF == 1) {
  5582  002E36  0139               	movlb	57	; () banked
  5583  002E38  AF90               	btfss	144,7,b	;volatile
  5584  002E3A  EF21  F017         	goto	i2u556_41
  5585  002E3E  EF23  F017         	goto	i2u556_40
  5586  002E42                     i2u556_41:
  5587  002E42  EF6D  F017         	goto	i2l6065
  5588  002E46                     i2u556_40:
  5589  002E46                     
  5590                           ; BSR set to: 57
  5591  002E46  AFA0               	btfss	160,7,b	;volatile
  5592  002E48  EF28  F017         	goto	i2u557_41
  5593  002E4C  EF2A  F017         	goto	i2u557_40
  5594  002E50                     i2u557_41:
  5595  002E50  EF6D  F017         	goto	i2l6065
  5596  002E54                     i2u557_40:
  5597  002E54                     
  5598                           ; BSR set to: 57
  5599                           ;mcc_generated_files/interrupt_manager.c: 170:         if (IOCBFbits.IOCBF0 == 1) {
  5600  002E54  013A               	movlb	58	; () banked
  5601  002E56  A157               	btfss	87,0,b	;volatile
  5602  002E58  EF30  F017         	goto	i2u558_41
  5603  002E5C  EF32  F017         	goto	i2u558_40
  5604  002E60                     i2u558_41:
  5605  002E60  EF6D  F017         	goto	i2l6065
  5606  002E64                     i2u558_40:
  5607  002E64                     
  5608                           ; BSR set to: 58
  5609                           ;mcc_generated_files/interrupt_manager.c: 171:             IOCBFbits.IOCBF0 = 0;
  5610  002E64  9157               	bcf	87,0,b	;volatile
  5611  002E66                     
  5612                           ; BSR set to: 58
  5613                           ;mcc_generated_files/interrupt_manager.c: 172:             index = 1;
  5614  002E66  0E01               	movlw	1
  5615  002E68  6E53               	movwf	_index^0,c
  5616                           
  5617                           ;mcc_generated_files/interrupt_manager.c: 173:             sumatoriaCorriente = 0;
  5618  002E6A  0E00               	movlw	0
  5619  002E6C  0100               	movlb	0	; () banked
  5620  002E6E  6F78               	movwf	_sumatoriaCorriente& (0+255),b
  5621  002E70  0E00               	movlw	0
  5622  002E72  6F79               	movwf	(_sumatoriaCorriente+1)& (0+255),b
  5623  002E74  0E00               	movlw	0
  5624  002E76  6F7A               	movwf	(_sumatoriaCorriente+2)& (0+255),b
  5625  002E78  0E00               	movlw	0
  5626  002E7A  6F7B               	movwf	(_sumatoriaCorriente+3)& (0+255),b
  5627                           
  5628                           ;mcc_generated_files/interrupt_manager.c: 174:             if (measuring == 0) {
  5629  002E7C  5051               	movf	_measuring^0,w,c	;volatile
  5630  002E7E  A4D8               	btfss	status,2,c
  5631  002E80  EF44  F017         	goto	i2u559_41
  5632  002E84  EF46  F017         	goto	i2u559_40
  5633  002E88                     i2u559_41:
  5634  002E88  EF5D  F017         	goto	i2l6061
  5635  002E8C                     i2u559_40:
  5636  002E8C                     
  5637                           ; BSR set to: 0
  5638                           ;mcc_generated_files/interrupt_manager.c: 176:                 measuring = 1;
  5639  002E8C  0E01               	movlw	1
  5640  002E8E  6E51               	movwf	_measuring^0,c	;volatile
  5641                           
  5642                           ;mcc_generated_files/interrupt_manager.c: 177:                 pulse_count = 0;
  5643  002E90  0E00               	movlw	0
  5644  002E92  6F7C               	movwf	_pulse_count& (0+255),b	;volatile
  5645  002E94  0E00               	movlw	0
  5646  002E96  6F7D               	movwf	(_pulse_count+1)& (0+255),b	;volatile
  5647  002E98  0E00               	movlw	0
  5648  002E9A  6F7E               	movwf	(_pulse_count+2)& (0+255),b	;volatile
  5649  002E9C  0E00               	movlw	0
  5650  002E9E  6F7F               	movwf	(_pulse_count+3)& (0+255),b	;volatile
  5651                           
  5652                           ;mcc_generated_files/interrupt_manager.c: 178:                 TMR1H = 0;
  5653  002EA0  0E00               	movlw	0
  5654  002EA2  6EB1               	movwf	177,c	;volatile
  5655                           
  5656                           ;mcc_generated_files/interrupt_manager.c: 179:                 TMR1L = 0;
  5657  002EA4  0E00               	movlw	0
  5658  002EA6  6EB0               	movwf	176,c	;volatile
  5659  002EA8                     
  5660                           ; BSR set to: 0
  5661                           ;mcc_generated_files/interrupt_manager.c: 180:                 PIE4bits.TMR1IE = 1;
  5662  002EA8  0139               	movlb	57	; () banked
  5663  002EAA  8194               	bsf	148,0,b	;volatile
  5664  002EAC                     
  5665                           ; BSR set to: 57
  5666                           ;mcc_generated_files/interrupt_manager.c: 181:                 PIR4bits.TMR1IF = 0;
  5667  002EAC  91A4               	bcf	164,0,b	;volatile
  5668  002EAE                     
  5669                           ; BSR set to: 57
  5670                           ;mcc_generated_files/interrupt_manager.c: 182:                 T1CONbits.TMR1ON = 1;
  5671  002EAE  80B2               	bsf	178,0,c	;volatile
  5672  002EB0                     
  5673                           ; BSR set to: 57
  5674                           ;mcc_generated_files/interrupt_manager.c: 183:                 PIE8bits.TMR5IE = 1;
  5675  002EB0  8D98               	bsf	152,6,b	;volatile
  5676  002EB2                     
  5677                           ; BSR set to: 57
  5678                           ;mcc_generated_files/interrupt_manager.c: 184:                 PIR8bits.TMR5IF = 0;
  5679  002EB2  9DA8               	bcf	168,6,b	;volatile
  5680  002EB4                     
  5681                           ; BSR set to: 57
  5682                           ;mcc_generated_files/interrupt_manager.c: 185:                 T5CONbits.TMR5ON = 1;
  5683  002EB4  809A               	bsf	154,0,c	;volatile
  5684                           
  5685                           ;mcc_generated_files/interrupt_manager.c: 186:             } else if (measuring == 1) {
  5686  002EB6  EF6D  F017         	goto	i2l6065
  5687  002EBA                     i2l6061:
  5688                           
  5689                           ; BSR set to: 0
  5690  002EBA  0451               	decf	_measuring^0,w,c	;volatile
  5691  002EBC  A4D8               	btfss	status,2,c
  5692  002EBE  EF63  F017         	goto	i2u560_41
  5693  002EC2  EF65  F017         	goto	i2u560_40
  5694  002EC6                     i2u560_41:
  5695  002EC6  EF6D  F017         	goto	i2l781
  5696  002ECA                     i2u560_40:
  5697  002ECA                     
  5698                           ; BSR set to: 0
  5699                           ;mcc_generated_files/interrupt_manager.c: 187:                 pulse_count++;
  5700  002ECA  0E01               	movlw	1
  5701  002ECC  277C               	addwf	_pulse_count& (0+255),f,b	;volatile
  5702  002ECE  0E00               	movlw	0
  5703  002ED0  237D               	addwfc	(_pulse_count+1)& (0+255),f,b	;volatile
  5704  002ED2  237E               	addwfc	(_pulse_count+2)& (0+255),f,b	;volatile
  5705  002ED4  237F               	addwfc	(_pulse_count+3)& (0+255),f,b	;volatile
  5706  002ED6  EF6D  F017         	goto	i2l6065
  5707  002EDA                     i2l781:
  5708  002EDA                     i2l6065:
  5709                           
  5710                           ;mcc_generated_files/interrupt_manager.c: 191:     if (PIE3bits.U1TXIE == 1 && PIR3bits.
      +                          U1TXIF == 1) {
  5711  002EDA  0139               	movlb	57	; () banked
  5712  002EDC  A993               	btfss	147,4,b	;volatile
  5713  002EDE  EF73  F017         	goto	i2u561_41
  5714  002EE2  EF75  F017         	goto	i2u561_40
  5715  002EE6                     i2u561_41:
  5716  002EE6  EF7F  F017         	goto	i2l787
  5717  002EEA                     i2u561_40:
  5718  002EEA                     
  5719                           ; BSR set to: 57
  5720  002EEA  A9A3               	btfss	163,4,b	;volatile
  5721  002EEC  EF7A  F017         	goto	i2u562_41
  5722  002EF0  EF7C  F017         	goto	i2u562_40
  5723  002EF4                     i2u562_41:
  5724  002EF4  EF7F  F017         	goto	i2l787
  5725  002EF8                     i2u562_40:
  5726  002EF8                     
  5727                           ; BSR set to: 57
  5728                           ;mcc_generated_files/interrupt_manager.c: 192:         PIR3bits.U1TXIF = 0;
  5729  002EF8  99A3               	bcf	163,4,b	;volatile
  5730  002EFA                     
  5731                           ; BSR set to: 57
  5732                           ;mcc_generated_files/interrupt_manager.c: 193:         RutinaTransmicionUSART_ASCII();
  5733  002EFA  EC95  F023         	call	_RutinaTransmicionUSART_ASCII	;wreg free
  5734  002EFE                     i2l787:
  5735  002EFE  0060  F0EB  FFFB   	movff	??_INTERRUPT_InterruptManager+1,pclatu
  5736  002F04  0060  F0E7  FFFA   	movff	??_INTERRUPT_InterruptManager,pclath
  5737  002F0A  0011               	retfie		f
  5738  002F0C                     __end_of_INTERRUPT_InterruptManager:
  5739                           	callstack 0
  5740                           
  5741 ;; *************** function _actualizarEstadoMotor *****************
  5742 ;; Defined at:
  5743 ;;		line 58 in file "Joystick.c"
  5744 ;; Parameters:    Size  Location     Type
  5745 ;;		None
  5746 ;; Auto vars:     Size  Location     Type
  5747 ;;		None
  5748 ;; Return value:  Size  Location     Type
  5749 ;;                  1    wreg      void 
  5750 ;; Registers used:
  5751 ;;		wreg, fsr2l, fsr2h, status,2, status,0, prodl, prodh, cstack
  5752 ;; Tracked objects:
  5753 ;;		On entry : 0/0
  5754 ;;		On exit  : 0/0
  5755 ;;		Unchanged: 0/0
  5756 ;; Data sizes:     COMRAM   BANK0   BANK1   BANK2   BANK3   BANK4   BANK5   BANK6   BANK7   BANK8   BANK9  BANK10  BANK1
      +1  BANK12  BANK13  BANK14  BANK15  BANK16  BANK17  BANK18  BANK19  BANK20  BANK21  BANK22  BANK23  BANK24  BANK25  BANK2
      +6  BANK27  BANK28  BANK29  BANK30  BANK31
  5757 ;;      Params:         0       0       0       0       0       0       0       0       0       0       0       0       
      +0       0       0       0       0       0       0       0       0       0       0       0       0       0       0       
      +0       0       0       0       0       0
  5758 ;;      Locals:         0       0       0       0       0       0       0       0       0       0       0       0       
      +0       0       0       0       0       0       0       0       0       0       0       0       0       0       0       
      +0       0       0       0       0       0
  5759 ;;      Temps:          1       0       0       0       0       0       0       0       0       0       0       0       
      +0       0       0       0       0       0       0       0       0       0       0       0       0       0       0       
      +0       0       0       0       0       0
  5760 ;;      Totals:         1       0       0       0       0       0       0       0       0       0       0       0       
      +0       0       0       0       0       0       0       0       0       0       0       0       0       0       0       
      +0       0       0       0       0       0
  5761 ;;Total ram usage:        1 bytes
  5762 ;; Hardware stack levels used: 1
  5763 ;; Hardware stack levels required when called: 2
  5764 ;; This function calls:
  5765 ;;		_STOP
  5766 ;;		_forwardMode
  5767 ;;		_reverseMode
  5768 ;;		_startUpForwardMode
  5769 ;;		_startUpReverseMode
  5770 ;;		_velocidadTransitorio
  5771 ;;		i2_PWM6_LoadDutyValue
  5772 ;;		i2_actualizarDir
  5773 ;; This function is called by:
  5774 ;;		_INTERRUPT_InterruptManager
  5775 ;; This function uses a non-reentrant model
  5776 ;;
  5777                           
  5778                           	psect	text35
  5779  003FBE                     __ptext35:
  5780                           	callstack 0
  5781  003FBE                     _actualizarEstadoMotor:
  5782                           	callstack 24
  5783  003FBE                     
  5784                           ;Joystick.c: 60:     actualizarDir();
  5785  003FBE  EC1D  F024         	call	i2_actualizarDir	;wreg free
  5786  003FC2                     
  5787                           ;Joystick.c: 61:     if (dir == 1) {
  5788  003FC2  0456               	decf	_dir^0,w,c
  5789  003FC4  1057               	iorwf	(_dir+1)^0,w,c
  5790  003FC6  A4D8               	btfss	status,2,c
  5791  003FC8  EFE8  F01F         	goto	i2u458_41
  5792  003FCC  EFEA  F01F         	goto	i2u458_40
  5793  003FD0                     i2u458_41:
  5794  003FD0  EF1F  F020         	goto	i2l5455
  5795  003FD4                     i2u458_40:
  5796  003FD4                     
  5797                           ;Joystick.c: 62:         if (dir_previo != 1) {
  5798  003FD4  043D               	decf	_dir_previo^0,w,c
  5799  003FD6  103E               	iorwf	(_dir_previo+1)^0,w,c
  5800  003FD8  B4D8               	btfsc	status,2,c
  5801  003FDA  EFF1  F01F         	goto	i2u459_41
  5802  003FDE  EFF3  F01F         	goto	i2u459_40
  5803  003FE2                     i2u459_41:
  5804  003FE2  EF13  F020         	goto	i2l5449
  5805  003FE6                     i2u459_40:
  5806  003FE6                     
  5807                           ;Joystick.c: 63:             if (dir_previo != 0) {
  5808  003FE6  503D               	movf	_dir_previo^0,w,c
  5809  003FE8  103E               	iorwf	(_dir_previo+1)^0,w,c
  5810  003FEA  B4D8               	btfsc	status,2,c
  5811  003FEC  EFFA  F01F         	goto	i2u460_41
  5812  003FF0  EFFC  F01F         	goto	i2u460_40
  5813  003FF4                     i2u460_41:
  5814  003FF4  EF05  F020         	goto	i2l5441
  5815  003FF8                     i2u460_40:
  5816  003FF8                     
  5817                           ;Joystick.c: 64:                 STOP();
  5818  003FF8  ECE2  F025         	call	_STOP	;wreg free
  5819  003FFC                     
  5820                           ;Joystick.c: 65:                 _delay((unsigned long)((10)*(64000000/4000.0)));
  5821  003FFC  0ED0               	movlw	208
  5822  003FFE  6E38               	movwf	??_actualizarEstadoMotor^0,c
  5823  004000  0ECA               	movlw	202
  5824  004002                     i2u588_47:
  5825  004002  2EE8               	decfsz	wreg,f,c
  5826  004004  D7FE               	bra	i2u588_47
  5827  004006  2E38               	decfsz	??_actualizarEstadoMotor^0,f,c
  5828  004008  D7FC               	bra	i2u588_47
  5829  00400A                     i2l5441:
  5830                           
  5831                           ;Joystick.c: 67:             dir_previo = 1;
  5832  00400A  0E00               	movlw	0
  5833  00400C  6E3E               	movwf	(_dir_previo+1)^0,c
  5834  00400E  0E01               	movlw	1
  5835  004010  6E3D               	movwf	_dir_previo^0,c
  5836  004012                     
  5837                           ;Joystick.c: 68:             PWM6_LoadDutyValue(100);
  5838  004012  0E00               	movlw	0
  5839  004014  6E08               	movwf	(i2PWM6_LoadDutyValue@dutyValue+1)^0,c
  5840  004016  0E64               	movlw	100
  5841  004018  6E07               	movwf	i2PWM6_LoadDutyValue@dutyValue^0,c
  5842  00401A  EC17  F025         	call	i2_PWM6_LoadDutyValue	;wreg free
  5843  00401E                     
  5844                           ;Joystick.c: 69:             startUpForwardMode();
  5845  00401E  EC84  F01E         	call	_startUpForwardMode	;wreg free
  5846  004022                     
  5847                           ;Joystick.c: 70:             acelerando = 1;
  5848  004022  0E01               	movlw	1
  5849  004024  6E45               	movwf	_acelerando^0,c
  5850  004026                     i2l5449:
  5851                           
  5852                           ;Joystick.c: 72:         if (acelerando)velocidadTransitorio();
  5853  004026  5045               	movf	_acelerando^0,w,c
  5854  004028  B4D8               	btfsc	status,2,c
  5855  00402A  EF19  F020         	goto	i2u461_41
  5856  00402E  EF1B  F020         	goto	i2u461_40
  5857  004032                     i2u461_41:
  5858  004032  EF1D  F020         	goto	i2l5453
  5859  004036                     i2u461_40:
  5860  004036  EC75  F022         	call	_velocidadTransitorio	;wreg free
  5861  00403A                     i2l5453:
  5862                           
  5863                           ;Joystick.c: 73:         forwardMode();
  5864  00403A  ECB9  F018         	call	_forwardMode	;wreg free
  5865  00403E                     i2l5455:
  5866                           
  5867                           ;Joystick.c: 75:     if (dir == -1) {
  5868  00403E  2856               	incf	_dir^0,w,c
  5869  004040  E106               	bnz	i2u462_41
  5870  004042  2857               	incf	(_dir+1)^0,w,c
  5871  004044  A4D8               	btfss	status,2,c
  5872  004046  EF27  F020         	goto	i2u462_41
  5873  00404A  EF29  F020         	goto	i2u462_40
  5874  00404E                     i2u462_41:
  5875  00404E  EF5D  F020         	goto	i2l5479
  5876  004052                     i2u462_40:
  5877  004052                     
  5878                           ;Joystick.c: 76:         if (dir_previo != -1) {
  5879  004052  283D               	incf	_dir_previo^0,w,c
  5880  004054  E108               	bnz	i2u463_40
  5881  004056  283E               	incf	(_dir_previo+1)^0,w,c
  5882  004058  B4D8               	btfsc	status,2,c
  5883  00405A  EF31  F020         	goto	i2u463_41
  5884  00405E  EF33  F020         	goto	i2u463_40
  5885  004062                     i2u463_41:
  5886  004062  EF51  F020         	goto	i2l5473
  5887  004066                     i2u463_40:
  5888  004066                     
  5889                           ;Joystick.c: 77:             if (dir_previo != 0) {
  5890  004066  503D               	movf	_dir_previo^0,w,c
  5891  004068  103E               	iorwf	(_dir_previo+1)^0,w,c
  5892  00406A  B4D8               	btfsc	status,2,c
  5893  00406C  EF3A  F020         	goto	i2u464_41
  5894  004070  EF3C  F020         	goto	i2u464_40
  5895  004074                     i2u464_41:
  5896  004074  EF45  F020         	goto	i2l5465
  5897  004078                     i2u464_40:
  5898  004078                     
  5899                           ;Joystick.c: 78:                 STOP();
  5900  004078  ECE2  F025         	call	_STOP	;wreg free
  5901  00407C                     
  5902                           ;Joystick.c: 79:                 _delay((unsigned long)((10)*(64000000/4000.0)));
  5903  00407C  0ED0               	movlw	208
  5904  00407E  6E38               	movwf	??_actualizarEstadoMotor^0,c
  5905  004080  0ECA               	movlw	202
  5906  004082                     i2u589_47:
  5907  004082  2EE8               	decfsz	wreg,f,c
  5908  004084  D7FE               	bra	i2u589_47
  5909  004086  2E38               	decfsz	??_actualizarEstadoMotor^0,f,c
  5910  004088  D7FC               	bra	i2u589_47
  5911  00408A                     i2l5465:
  5912                           
  5913                           ;Joystick.c: 81:             dir_previo = -1;
  5914  00408A  683D               	setf	_dir_previo^0,c
  5915  00408C  683E               	setf	(_dir_previo+1)^0,c
  5916  00408E                     
  5917                           ;Joystick.c: 82:             PWM6_LoadDutyValue(100);
  5918  00408E  0E00               	movlw	0
  5919  004090  6E08               	movwf	(i2PWM6_LoadDutyValue@dutyValue+1)^0,c
  5920  004092  0E64               	movlw	100
  5921  004094  6E07               	movwf	i2PWM6_LoadDutyValue@dutyValue^0,c
  5922  004096  EC17  F025         	call	i2_PWM6_LoadDutyValue	;wreg free
  5923  00409A                     
  5924                           ;Joystick.c: 83:             startUpReverseMode();
  5925  00409A  ECBD  F01D         	call	_startUpReverseMode	;wreg free
  5926  00409E                     
  5927                           ;Joystick.c: 84:             acelerando = 1;
  5928  00409E  0E01               	movlw	1
  5929  0040A0  6E45               	movwf	_acelerando^0,c
  5930  0040A2                     i2l5473:
  5931                           
  5932                           ;Joystick.c: 86:         if (acelerando)velocidadTransitorio();
  5933  0040A2  5045               	movf	_acelerando^0,w,c
  5934  0040A4  B4D8               	btfsc	status,2,c
  5935  0040A6  EF57  F020         	goto	i2u465_41
  5936  0040AA  EF59  F020         	goto	i2u465_40
  5937  0040AE                     i2u465_41:
  5938  0040AE  EF5B  F020         	goto	i2l5477
  5939  0040B2                     i2u465_40:
  5940  0040B2  EC75  F022         	call	_velocidadTransitorio	;wreg free
  5941  0040B6                     i2l5477:
  5942                           
  5943                           ;Joystick.c: 87:         reverseMode();
  5944  0040B6  EC86  F017         	call	_reverseMode	;wreg free
  5945  0040BA                     i2l5479:
  5946                           
  5947                           ;Joystick.c: 89:     if (dir == 0) {
  5948  0040BA  5056               	movf	_dir^0,w,c
  5949  0040BC  1057               	iorwf	(_dir+1)^0,w,c
  5950  0040BE  A4D8               	btfss	status,2,c
  5951  0040C0  EF64  F020         	goto	i2u466_41
  5952  0040C4  EF66  F020         	goto	i2u466_40
  5953  0040C8                     i2u466_41:
  5954  0040C8  EF6E  F020         	goto	i2l1622
  5955  0040CC                     i2u466_40:
  5956  0040CC                     
  5957                           ;Joystick.c: 90:         dir_previo = 0;
  5958  0040CC  0E00               	movlw	0
  5959  0040CE  6E3E               	movwf	(_dir_previo+1)^0,c
  5960  0040D0  0E00               	movlw	0
  5961  0040D2  6E3D               	movwf	_dir_previo^0,c
  5962  0040D4                     
  5963                           ;Joystick.c: 91:         STOP();
  5964  0040D4  ECE2  F025         	call	_STOP	;wreg free
  5965  0040D8                     
  5966                           ;Joystick.c: 92:         acelerando = 0;
  5967  0040D8  0E00               	movlw	0
  5968  0040DA  6E45               	movwf	_acelerando^0,c
  5969  0040DC                     i2l1622:
  5970  0040DC  0012               	return		;funcret
  5971  0040DE                     __end_of_actualizarEstadoMotor:
  5972                           	callstack 0
  5973                           
  5974 ;; *************** function i2_actualizarDir *****************
  5975 ;; Defined at:
  5976 ;;		line 33 in file "Joystick.c"
  5977 ;; Parameters:    Size  Location     Type
  5978 ;;		None
  5979 ;; Auto vars:     Size  Location     Type
  5980 ;;		None
  5981 ;; Return value:  Size  Location     Type
  5982 ;;                  1    wreg      void 
  5983 ;; Registers used:
  5984 ;;		wreg, status,2, status,0
  5985 ;; Tracked objects:
  5986 ;;		On entry : 0/0
  5987 ;;		On exit  : 0/0
  5988 ;;		Unchanged: 0/0
  5989 ;; Data sizes:     COMRAM   BANK0   BANK1   BANK2   BANK3   BANK4   BANK5   BANK6   BANK7   BANK8   BANK9  BANK10  BANK1
      +1  BANK12  BANK13  BANK14  BANK15  BANK16  BANK17  BANK18  BANK19  BANK20  BANK21  BANK22  BANK23  BANK24  BANK25  BANK2
      +6  BANK27  BANK28  BANK29  BANK30  BANK31
  5990 ;;      Params:         0       0       0       0       0       0       0       0       0       0       0       0       
      +0       0       0       0       0       0       0       0       0       0       0       0       0       0       0       
      +0       0       0       0       0       0
  5991 ;;      Locals:         0       0       0       0       0       0       0       0       0       0       0       0       
      +0       0       0       0       0       0       0       0       0       0       0       0       0       0       0       
      +0       0       0       0       0       0
  5992 ;;      Temps:          0       0       0       0       0       0       0       0       0       0       0       0       
      +0       0       0       0       0       0       0       0       0       0       0       0       0       0       0       
      +0       0       0       0       0       0
  5993 ;;      Totals:         0       0       0       0       0       0       0       0       0       0       0       0       
      +0       0       0       0       0       0       0       0       0       0       0       0       0       0       0       
      +0       0       0       0       0       0
  5994 ;;Total ram usage:        0 bytes
  5995 ;; Hardware stack levels used: 1
  5996 ;; This function calls:
  5997 ;;		Nothing
  5998 ;; This function is called by:
  5999 ;;		_actualizarEstadoMotor
  6000 ;; This function uses a non-reentrant model
  6001 ;;
  6002                           
  6003                           	psect	text36
  6004  00483A                     __ptext36:
  6005                           	callstack 0
  6006  00483A                     i2_actualizarDir:
  6007                           	callstack 25
  6008  00483A                     
  6009                           ;Joystick.c: 38:     prevdir = dir;
  6010  00483A  C056  F14D         	movff	_dir,_prevdir
  6011  00483E  C057  F14E         	movff	_dir+1,_prevdir+1
  6012  004842                     
  6013                           ;Joystick.c: 39:     if (leidos[0] == 0x2E)dir = 0;
  6014  004842  0E2E               	movlw	46
  6015  004844  0100               	movlb	0	; () banked
  6016  004846  1980               	xorwf	_leidos& (0+255),w,b
  6017  004848  A4D8               	btfss	status,2,c
  6018  00484A  EF29  F024         	goto	i2u436_41
  6019  00484E  EF2B  F024         	goto	i2u436_40
  6020  004852                     i2u436_41:
  6021  004852  EF2F  F024         	goto	i2l5311
  6022  004856                     i2u436_40:
  6023  004856                     
  6024                           ; BSR set to: 0
  6025  004856  0E00               	movlw	0
  6026  004858  6E57               	movwf	(_dir+1)^0,c
  6027  00485A  0E00               	movlw	0
  6028  00485C  6E56               	movwf	_dir^0,c
  6029  00485E                     i2l5311:
  6030                           
  6031                           ; BSR set to: 0
  6032                           ;Joystick.c: 40:     if (leidos[0] == 0x2D) dir = -1;
  6033  00485E  0E2D               	movlw	45
  6034  004860  1980               	xorwf	_leidos& (0+255),w,b
  6035  004862  A4D8               	btfss	status,2,c
  6036  004864  EF36  F024         	goto	i2u437_41
  6037  004868  EF38  F024         	goto	i2u437_40
  6038  00486C                     i2u437_41:
  6039  00486C  EF3A  F024         	goto	i2l5315
  6040  004870                     i2u437_40:
  6041  004870                     
  6042                           ; BSR set to: 0
  6043  004870  6856               	setf	_dir^0,c
  6044  004872  6857               	setf	(_dir+1)^0,c
  6045  004874                     i2l5315:
  6046                           
  6047                           ; BSR set to: 0
  6048                           ;Joystick.c: 41:     if (leidos[0] == 0x2B) dir = 1;
  6049  004874  0E2B               	movlw	43
  6050  004876  1980               	xorwf	_leidos& (0+255),w,b
  6051  004878  A4D8               	btfss	status,2,c
  6052  00487A  EF41  F024         	goto	i2u438_41
  6053  00487E  EF43  F024         	goto	i2u438_40
  6054  004882                     i2u438_41:
  6055  004882  EF47  F024         	goto	i2l1604
  6056  004886                     i2u438_40:
  6057  004886                     
  6058                           ; BSR set to: 0
  6059  004886  0E00               	movlw	0
  6060  004888  6E57               	movwf	(_dir+1)^0,c
  6061  00488A  0E01               	movlw	1
  6062  00488C  6E56               	movwf	_dir^0,c
  6063  00488E                     i2l1604:
  6064                           
  6065                           ; BSR set to: 0
  6066  00488E  0012               	return		;funcret
  6067  004890                     __end_ofi2_actualizarDir:
  6068                           	callstack 0
  6069                           
  6070 ;; *************** function _velocidadTransitorio *****************
  6071 ;; Defined at:
  6072 ;;		line 45 in file "Joystick.c"
  6073 ;; Parameters:    Size  Location     Type
  6074 ;;		None
  6075 ;; Auto vars:     Size  Location     Type
  6076 ;;  paso            2   53[COMRAM] int 
  6077 ;; Return value:  Size  Location     Type
  6078 ;;                  1    wreg      void 
  6079 ;; Registers used:
  6080 ;;		wreg, status,2, status,0, prodl, prodh, cstack
  6081 ;; Tracked objects:
  6082 ;;		On entry : 0/0
  6083 ;;		On exit  : 0/0
  6084 ;;		Unchanged: 0/0
  6085 ;; Data sizes:     COMRAM   BANK0   BANK1   BANK2   BANK3   BANK4   BANK5   BANK6   BANK7   BANK8   BANK9  BANK10  BANK1
      +1  BANK12  BANK13  BANK14  BANK15  BANK16  BANK17  BANK18  BANK19  BANK20  BANK21  BANK22  BANK23  BANK24  BANK25  BANK2
      +6  BANK27  BANK28  BANK29  BANK30  BANK31
  6086 ;;      Params:         0       0       0       0       0       0       0       0       0       0       0       0       
      +0       0       0       0       0       0       0       0       0       0       0       0       0       0       0       
      +0       0       0       0       0       0
  6087 ;;      Locals:         2       0       0       0       0       0       0       0       0       0       0       0       
      +0       0       0       0       0       0       0       0       0       0       0       0       0       0       0       
      +0       0       0       0       0       0
  6088 ;;      Temps:          4       0       0       0       0       0       0       0       0       0       0       0       
      +0       0       0       0       0       0       0       0       0       0       0       0       0       0       0       
      +0       0       0       0       0       0
  6089 ;;      Totals:         6       0       0       0       0       0       0       0       0       0       0       0       
      +0       0       0       0       0       0       0       0       0       0       0       0       0       0       0       
      +0       0       0       0       0       0
  6090 ;;Total ram usage:        6 bytes
  6091 ;; Hardware stack levels used: 1
  6092 ;; Hardware stack levels required when called: 1
  6093 ;; This function calls:
  6094 ;;		___wmul
  6095 ;;		i2_PWM6_LoadDutyValue
  6096 ;;		i2___flmul
  6097 ;;		i2___fltol
  6098 ;;		i2___xxtofl
  6099 ;; This function is called by:
  6100 ;;		_actualizarEstadoMotor
  6101 ;; This function uses a non-reentrant model
  6102 ;;
  6103                           
  6104                           	psect	text37
  6105  0044EA                     __ptext37:
  6106                           	callstack 0
  6107  0044EA                     _velocidadTransitorio:
  6108                           	callstack 24
  6109  0044EA                     
  6110                           ;Joystick.c: 46:     int paso = (int) ((duty - 100)*0.2);
  6111  0044EA  0ECD               	movlw	205
  6112  0044EC  6E13               	movwf	i2___flmul@a^0,c
  6113  0044EE  0ECC               	movlw	204
  6114  0044F0  6E14               	movwf	(i2___flmul@a+1)^0,c
  6115  0044F2  0E4C               	movlw	76
  6116  0044F4  6E15               	movwf	(i2___flmul@a+2)^0,c
  6117  0044F6  0E3E               	movlw	62
  6118  0044F8  6E16               	movwf	(i2___flmul@a+3)^0,c
  6119  0044FA  0E9C               	movlw	156
  6120  0044FC  6E32               	movwf	??_velocidadTransitorio^0,c
  6121  0044FE  0EFF               	movlw	255
  6122  004500  6E33               	movwf	(??_velocidadTransitorio+1)^0,c
  6123  004502  C05B  F034         	movff	_duty,??_velocidadTransitorio+2
  6124  004506  C05C  F035         	movff	_duty+1,??_velocidadTransitorio+3
  6125  00450A  5032               	movf	??_velocidadTransitorio^0,w,c
  6126  00450C  2634               	addwf	(??_velocidadTransitorio+2)^0,f,c
  6127  00450E  5033               	movf	(??_velocidadTransitorio+1)^0,w,c
  6128  004510  2235               	addwfc	(??_velocidadTransitorio+3)^0,f,c
  6129  004512  C034  F001         	movff	??_velocidadTransitorio+2,i2___xxtofl@val
  6130  004516  C035  F002         	movff	??_velocidadTransitorio+3,i2___xxtofl@val+1
  6131  00451A  0E00               	movlw	0
  6132  00451C  BE02               	btfsc	(i2___xxtofl@val+1)^0,7,c
  6133  00451E  0EFF               	movlw	-1
  6134  004520  6E03               	movwf	(i2___xxtofl@val+2)^0,c
  6135  004522  6E04               	movwf	(i2___xxtofl@val+3)^0,c
  6136  004524  0E01               	movlw	1
  6137  004526  ECE3  F01C         	call	i2___xxtofl
  6138  00452A  C001  F00F         	movff	?i2___xxtofl,i2___flmul@b
  6139  00452E  C002  F010         	movff	?i2___xxtofl+1,i2___flmul@b+1
  6140  004532  C003  F011         	movff	?i2___xxtofl+2,i2___flmul@b+2
  6141  004536  C004  F012         	movff	?i2___xxtofl+3,i2___flmul@b+3
  6142  00453A  EC2C  F012         	call	i2___flmul	;wreg free
  6143  00453E  C00F  F028         	movff	?i2___flmul,i2___fltol@f1
  6144  004542  C010  F029         	movff	?i2___flmul+1,i2___fltol@f1+1
  6145  004546  C011  F02A         	movff	?i2___flmul+2,i2___fltol@f1+2
  6146  00454A  C012  F02B         	movff	?i2___flmul+3,i2___fltol@f1+3
  6147  00454E  EC7F  F021         	call	i2___fltol	;wreg free
  6148  004552  C028  F036         	movff	?i2___fltol,velocidadTransitorio@paso
  6149  004556  C029  F037         	movff	?i2___fltol+1,velocidadTransitorio@paso+1
  6150  00455A                     
  6151                           ;Joystick.c: 47:     if (PORTBbits.RB0 == 1)
  6152  00455A  A0CB               	btfss	203,0,c	;volatile
  6153  00455C  EFB2  F022         	goto	i2u434_41
  6154  004560  EFB4  F022         	goto	i2u434_40
  6155  004564                     i2u434_41:
  6156  004564  EFB7  F022         	goto	i2l5295
  6157  004568                     i2u434_40:
  6158  004568                     
  6159                           ;Joystick.c: 48:         cont++;
  6160  004568  0100               	movlb	0	; () banked
  6161  00456A  4BF4               	infsnz	_cont& (0+255),f,b
  6162  00456C  2BF5               	incf	(_cont+1)& (0+255),f,b
  6163  00456E                     i2l5295:
  6164                           
  6165                           ;Joystick.c: 49:     if (cont > 5) {
  6166  00456E  0100               	movlb	0	; () banked
  6167  004570  BFF5               	btfsc	(_cont+1)& (0+255),7,b
  6168  004572  EFC4  F022         	goto	i2u435_41
  6169  004576  51F5               	movf	(_cont+1)& (0+255),w,b
  6170  004578  E109               	bnz	i2u435_40
  6171  00457A  0E06               	movlw	6
  6172  00457C  5DF4               	subwf	_cont& (0+255),w,b
  6173  00457E  A0D8               	btfss	status,0,c
  6174  004580  EFC4  F022         	goto	i2u435_41
  6175  004584  EFC6  F022         	goto	i2u435_40
  6176  004588                     i2u435_41:
  6177  004588  EFD5  F022         	goto	i2l5303
  6178  00458C                     i2u435_40:
  6179  00458C                     
  6180                           ; BSR set to: 0
  6181                           ;Joystick.c: 50:         PWM6_LoadDutyValue(duty);
  6182  00458C  C05B  F007         	movff	_duty,i2PWM6_LoadDutyValue@dutyValue
  6183  004590  C05C  F008         	movff	_duty+1,i2PWM6_LoadDutyValue@dutyValue+1
  6184  004594  EC17  F025         	call	i2_PWM6_LoadDutyValue	;wreg free
  6185  004598                     
  6186                           ;Joystick.c: 51:         cont = 0;
  6187  004598  0E00               	movlw	0
  6188  00459A  0100               	movlb	0	; () banked
  6189  00459C  6FF5               	movwf	(_cont+1)& (0+255),b
  6190  00459E  0E00               	movlw	0
  6191  0045A0  6FF4               	movwf	_cont& (0+255),b
  6192  0045A2                     
  6193                           ; BSR set to: 0
  6194                           ;Joystick.c: 52:         acelerando = 0;
  6195  0045A2  0E00               	movlw	0
  6196  0045A4  6E45               	movwf	_acelerando^0,c
  6197                           
  6198                           ;Joystick.c: 53:     } else {
  6199  0045A6  EFE7  F022         	goto	i2l1610
  6200  0045AA                     i2l5303:
  6201                           
  6202                           ; BSR set to: 0
  6203                           ;Joystick.c: 54:         PWM6_LoadDutyValue(100 + (paso * cont));
  6204  0045AA  C036  F001         	movff	velocidadTransitorio@paso,___wmul@multiplier
  6205  0045AE  C037  F002         	movff	velocidadTransitorio@paso+1,___wmul@multiplier+1
  6206  0045B2  C0F4  F003         	movff	_cont,___wmul@multiplicand
  6207  0045B6  C0F5  F004         	movff	_cont+1,___wmul@multiplicand+1
  6208  0045BA  EC63  F025         	call	___wmul	;wreg free
  6209  0045BE  0E64               	movlw	100
  6210  0045C0  2401               	addwf	?___wmul^0,w,c
  6211  0045C2  6E07               	movwf	i2PWM6_LoadDutyValue@dutyValue^0,c
  6212  0045C4  0E00               	movlw	0
  6213  0045C6  2002               	addwfc	(?___wmul+1)^0,w,c
  6214  0045C8  6E08               	movwf	(i2PWM6_LoadDutyValue@dutyValue+1)^0,c
  6215  0045CA  EC17  F025         	call	i2_PWM6_LoadDutyValue	;wreg free
  6216  0045CE                     i2l1610:
  6217  0045CE  0012               	return		;funcret
  6218  0045D0                     __end_of_velocidadTransitorio:
  6219                           	callstack 0
  6220                           
  6221 ;; *************** function i2___xxtofl *****************
  6222 ;; Defined at:
  6223 ;;		line 10 in file "C:\Program Files\Microchip\xc8\v2.36\pic\sources\c99\common\xxtofl.c"
  6224 ;; Parameters:    Size  Location     Type
  6225 ;;  sign            1    wreg     unsigned char 
  6226 ;;  val             4    0[COMRAM] long 
  6227 ;; Auto vars:     Size  Location     Type
  6228 ;;  sign            1    8[COMRAM] unsigned char 
  6229 ;;  arg             4   10[COMRAM] unsigned long 
  6230 ;;  exp             1    9[COMRAM] unsigned char 
  6231 ;; Return value:  Size  Location     Type
  6232 ;;                  4    0[COMRAM] unsigned char 
  6233 ;; Registers used:
  6234 ;;		wreg, status,2, status,0
  6235 ;; Tracked objects:
  6236 ;;		On entry : 0/0
  6237 ;;		On exit  : 0/0
  6238 ;;		Unchanged: 0/0
  6239 ;; Data sizes:     COMRAM   BANK0   BANK1   BANK2   BANK3   BANK4   BANK5   BANK6   BANK7   BANK8   BANK9  BANK10  BANK1
      +1  BANK12  BANK13  BANK14  BANK15  BANK16  BANK17  BANK18  BANK19  BANK20  BANK21  BANK22  BANK23  BANK24  BANK25  BANK2
      +6  BANK27  BANK28  BANK29  BANK30  BANK31
  6240 ;;      Params:         4       0       0       0       0       0       0       0       0       0       0       0       
      +0       0       0       0       0       0       0       0       0       0       0       0       0       0       0       
      +0       0       0       0       0       0
  6241 ;;      Locals:         6       0       0       0       0       0       0       0       0       0       0       0       
      +0       0       0       0       0       0       0       0       0       0       0       0       0       0       0       
      +0       0       0       0       0       0
  6242 ;;      Temps:          4       0       0       0       0       0       0       0       0       0       0       0       
      +0       0       0       0       0       0       0       0       0       0       0       0       0       0       0       
      +0       0       0       0       0       0
  6243 ;;      Totals:        14       0       0       0       0       0       0       0       0       0       0       0       
      +0       0       0       0       0       0       0       0       0       0       0       0       0       0       0       
      +0       0       0       0       0       0
  6244 ;;Total ram usage:       14 bytes
  6245 ;; Hardware stack levels used: 1
  6246 ;; This function calls:
  6247 ;;		Nothing
  6248 ;; This function is called by:
  6249 ;;		_INTERRUPT_InterruptManager
  6250 ;;		_velocidadTransitorio
  6251 ;; This function uses a non-reentrant model
  6252 ;;
  6253                           
  6254                           	psect	text38
  6255  0039C6                     __ptext38:
  6256                           	callstack 0
  6257  0039C6                     i2___xxtofl:
  6258                           	callstack 26
  6259                           
  6260                           ;incstack = 0
  6261                           ;i2___xxtofl@sign stored from wreg
  6262  0039C6  6E09               	movwf	i2___xxtofl@sign^0,c
  6263  0039C8  5009               	movf	i2___xxtofl@sign^0,w,c
  6264  0039CA  B4D8               	btfsc	status,2,c
  6265  0039CC  EFEA  F01C         	goto	i2u339_41
  6266  0039D0  EFEC  F01C         	goto	i2u339_40
  6267  0039D4                     i2u339_41:
  6268  0039D4  EF0E  F01D         	goto	i2l2355
  6269  0039D8                     i2u339_40:
  6270  0039D8  BE04               	btfsc	(i2___xxtofl@val+3)^0,7,c
  6271  0039DA  EFF3  F01C         	goto	i2u340_40
  6272  0039DE  EFF1  F01C         	goto	i2u340_41
  6273  0039E2                     i2u340_41:
  6274  0039E2  EF0E  F01D         	goto	i2l2355
  6275  0039E6                     i2u340_40:
  6276  0039E6  C001  F005         	movff	i2___xxtofl@val,??i2___xxtofl
  6277  0039EA  C002  F006         	movff	i2___xxtofl@val+1,??i2___xxtofl+1
  6278  0039EE  C003  F007         	movff	i2___xxtofl@val+2,??i2___xxtofl+2
  6279  0039F2  C004  F008         	movff	i2___xxtofl@val+3,??i2___xxtofl+3
  6280  0039F6  1E05               	comf	??i2___xxtofl^0,f,c
  6281  0039F8  1E06               	comf	(??i2___xxtofl+1)^0,f,c
  6282  0039FA  1E07               	comf	(??i2___xxtofl+2)^0,f,c
  6283  0039FC  1E08               	comf	(??i2___xxtofl+3)^0,f,c
  6284  0039FE  2A05               	incf	??i2___xxtofl^0,f,c
  6285  003A00  0E00               	movlw	0
  6286  003A02  2206               	addwfc	(??i2___xxtofl+1)^0,f,c
  6287  003A04  2207               	addwfc	(??i2___xxtofl+2)^0,f,c
  6288  003A06  2208               	addwfc	(??i2___xxtofl+3)^0,f,c
  6289  003A08  C005  F00B         	movff	??i2___xxtofl,i2___xxtofl@arg
  6290  003A0C  C006  F00C         	movff	??i2___xxtofl+1,i2___xxtofl@arg+1
  6291  003A10  C007  F00D         	movff	??i2___xxtofl+2,i2___xxtofl@arg+2
  6292  003A14  C008  F00E         	movff	??i2___xxtofl+3,i2___xxtofl@arg+3
  6293  003A18  EF16  F01D         	goto	i2l4771
  6294  003A1C                     i2l2355:
  6295  003A1C  C001  F00B         	movff	i2___xxtofl@val,i2___xxtofl@arg
  6296  003A20  C002  F00C         	movff	i2___xxtofl@val+1,i2___xxtofl@arg+1
  6297  003A24  C003  F00D         	movff	i2___xxtofl@val+2,i2___xxtofl@arg+2
  6298  003A28  C004  F00E         	movff	i2___xxtofl@val+3,i2___xxtofl@arg+3
  6299  003A2C                     i2l4771:
  6300  003A2C  5001               	movf	i2___xxtofl@val^0,w,c
  6301  003A2E  1002               	iorwf	(i2___xxtofl@val+1)^0,w,c
  6302  003A30  1003               	iorwf	(i2___xxtofl@val+2)^0,w,c
  6303  003A32  1004               	iorwf	(i2___xxtofl@val+3)^0,w,c
  6304  003A34  A4D8               	btfss	status,2,c
  6305  003A36  EF1F  F01D         	goto	i2u341_41
  6306  003A3A  EF21  F01D         	goto	i2u341_40
  6307  003A3E                     i2u341_41:
  6308  003A3E  EF2B  F01D         	goto	i2l4777
  6309  003A42                     i2u341_40:
  6310  003A42  0E00               	movlw	0
  6311  003A44  6E01               	movwf	?i2___xxtofl^0,c
  6312  003A46  0E00               	movlw	0
  6313  003A48  6E02               	movwf	(?i2___xxtofl+1)^0,c
  6314  003A4A  0E00               	movlw	0
  6315  003A4C  6E03               	movwf	(?i2___xxtofl+2)^0,c
  6316  003A4E  0E00               	movlw	0
  6317  003A50  6E04               	movwf	(?i2___xxtofl+3)^0,c
  6318  003A52  EFBC  F01D         	goto	i2l2358
  6319  003A56                     i2l4777:
  6320  003A56  0E96               	movlw	150
  6321  003A58  6E0A               	movwf	i2___xxtofl@exp^0,c
  6322  003A5A  EF35  F01D         	goto	i2l4781
  6323  003A5E                     i2l4779:
  6324  003A5E  2A0A               	incf	i2___xxtofl@exp^0,f,c
  6325  003A60  90D8               	bcf	status,0,c
  6326  003A62  320E               	rrcf	(i2___xxtofl@arg+3)^0,f,c
  6327  003A64  320D               	rrcf	(i2___xxtofl@arg+2)^0,f,c
  6328  003A66  320C               	rrcf	(i2___xxtofl@arg+1)^0,f,c
  6329  003A68  320B               	rrcf	i2___xxtofl@arg^0,f,c
  6330  003A6A                     i2l4781:
  6331  003A6A  0E00               	movlw	0
  6332  003A6C  140B               	andwf	i2___xxtofl@arg^0,w,c
  6333  003A6E  6E05               	movwf	??i2___xxtofl^0,c
  6334  003A70  0E00               	movlw	0
  6335  003A72  140C               	andwf	(i2___xxtofl@arg+1)^0,w,c
  6336  003A74  6E06               	movwf	(??i2___xxtofl+1)^0,c
  6337  003A76  0E00               	movlw	0
  6338  003A78  140D               	andwf	(i2___xxtofl@arg+2)^0,w,c
  6339  003A7A  6E07               	movwf	(??i2___xxtofl+2)^0,c
  6340  003A7C  0EFE               	movlw	254
  6341  003A7E  140E               	andwf	(i2___xxtofl@arg+3)^0,w,c
  6342  003A80  6E08               	movwf	(??i2___xxtofl+3)^0,c
  6343  003A82  5005               	movf	??i2___xxtofl^0,w,c
  6344  003A84  1006               	iorwf	(??i2___xxtofl+1)^0,w,c
  6345  003A86  1007               	iorwf	(??i2___xxtofl+2)^0,w,c
  6346  003A88  1008               	iorwf	(??i2___xxtofl+3)^0,w,c
  6347  003A8A  A4D8               	btfss	status,2,c
  6348  003A8C  EF4A  F01D         	goto	i2u342_41
  6349  003A90  EF4C  F01D         	goto	i2u342_40
  6350  003A94                     i2u342_41:
  6351  003A94  EF2F  F01D         	goto	i2l4779
  6352  003A98                     i2u342_40:
  6353  003A98  EF5A  F01D         	goto	i2l2362
  6354  003A9C                     i2l4783:
  6355  003A9C  2A0A               	incf	i2___xxtofl@exp^0,f,c
  6356  003A9E  0E01               	movlw	1
  6357  003AA0  260B               	addwf	i2___xxtofl@arg^0,f,c
  6358  003AA2  0E00               	movlw	0
  6359  003AA4  220C               	addwfc	(i2___xxtofl@arg+1)^0,f,c
  6360  003AA6  220D               	addwfc	(i2___xxtofl@arg+2)^0,f,c
  6361  003AA8  220E               	addwfc	(i2___xxtofl@arg+3)^0,f,c
  6362  003AAA  90D8               	bcf	status,0,c
  6363  003AAC  320E               	rrcf	(i2___xxtofl@arg+3)^0,f,c
  6364  003AAE  320D               	rrcf	(i2___xxtofl@arg+2)^0,f,c
  6365  003AB0  320C               	rrcf	(i2___xxtofl@arg+1)^0,f,c
  6366  003AB2  320B               	rrcf	i2___xxtofl@arg^0,f,c
  6367  003AB4                     i2l2362:
  6368  003AB4  0E00               	movlw	0
  6369  003AB6  140B               	andwf	i2___xxtofl@arg^0,w,c
  6370  003AB8  6E05               	movwf	??i2___xxtofl^0,c
  6371  003ABA  0E00               	movlw	0
  6372  003ABC  140C               	andwf	(i2___xxtofl@arg+1)^0,w,c
  6373  003ABE  6E06               	movwf	(??i2___xxtofl+1)^0,c
  6374  003AC0  0E00               	movlw	0
  6375  003AC2  140D               	andwf	(i2___xxtofl@arg+2)^0,w,c
  6376  003AC4  6E07               	movwf	(??i2___xxtofl+2)^0,c
  6377  003AC6  0EFF               	movlw	255
  6378  003AC8  140E               	andwf	(i2___xxtofl@arg+3)^0,w,c
  6379  003ACA  6E08               	movwf	(??i2___xxtofl+3)^0,c
  6380  003ACC  5005               	movf	??i2___xxtofl^0,w,c
  6381  003ACE  1006               	iorwf	(??i2___xxtofl+1)^0,w,c
  6382  003AD0  1007               	iorwf	(??i2___xxtofl+2)^0,w,c
  6383  003AD2  1008               	iorwf	(??i2___xxtofl+3)^0,w,c
  6384  003AD4  A4D8               	btfss	status,2,c
  6385  003AD6  EF6F  F01D         	goto	i2u343_41
  6386  003ADA  EF71  F01D         	goto	i2u343_40
  6387  003ADE                     i2u343_41:
  6388  003ADE  EF4E  F01D         	goto	i2l4783
  6389  003AE2                     i2u343_40:
  6390  003AE2  EF79  F01D         	goto	i2l4791
  6391  003AE6                     i2l4789:
  6392  003AE6  060A               	decf	i2___xxtofl@exp^0,f,c
  6393  003AE8  90D8               	bcf	status,0,c
  6394  003AEA  360B               	rlcf	i2___xxtofl@arg^0,f,c
  6395  003AEC  360C               	rlcf	(i2___xxtofl@arg+1)^0,f,c
  6396  003AEE  360D               	rlcf	(i2___xxtofl@arg+2)^0,f,c
  6397  003AF0  360E               	rlcf	(i2___xxtofl@arg+3)^0,f,c
  6398  003AF2                     i2l4791:
  6399  003AF2  BE0D               	btfsc	(i2___xxtofl@arg+2)^0,7,c
  6400  003AF4  EF7E  F01D         	goto	i2u344_41
  6401  003AF8  EF80  F01D         	goto	i2u344_40
  6402  003AFC                     i2u344_41:
  6403  003AFC  EF88  F01D         	goto	i2l2369
  6404  003B00                     i2u344_40:
  6405  003B00  0E02               	movlw	2
  6406  003B02  600A               	cpfslt	i2___xxtofl@exp^0,c
  6407  003B04  EF86  F01D         	goto	i2u345_41
  6408  003B08  EF88  F01D         	goto	i2u345_40
  6409  003B0C                     i2u345_41:
  6410  003B0C  EF73  F01D         	goto	i2l4789
  6411  003B10                     i2u345_40:
  6412  003B10                     i2l2369:
  6413  003B10  B00A               	btfsc	i2___xxtofl@exp^0,0,c
  6414  003B12  EF8D  F01D         	goto	i2u346_41
  6415  003B16  EF8F  F01D         	goto	i2u346_40
  6416  003B1A                     i2u346_41:
  6417  003B1A  EF90  F01D         	goto	i2l4797
  6418  003B1E                     i2u346_40:
  6419  003B1E  9E0D               	bcf	(i2___xxtofl@arg+2)^0,7,c
  6420  003B20                     i2l4797:
  6421  003B20  90D8               	bcf	status,0,c
  6422  003B22  320A               	rrcf	i2___xxtofl@exp^0,f,c
  6423  003B24  C00A  F005         	movff	i2___xxtofl@exp,??i2___xxtofl
  6424  003B28  6A06               	clrf	(??i2___xxtofl+1)^0,c
  6425  003B2A  6A07               	clrf	(??i2___xxtofl+2)^0,c
  6426  003B2C  6A08               	clrf	(??i2___xxtofl+3)^0,c
  6427  003B2E  C005  F008         	movff	??i2___xxtofl,??i2___xxtofl+3
  6428  003B32  6A07               	clrf	(??i2___xxtofl+2)^0,c
  6429  003B34  6A06               	clrf	(??i2___xxtofl+1)^0,c
  6430  003B36  6A05               	clrf	??i2___xxtofl^0,c
  6431  003B38  5005               	movf	??i2___xxtofl^0,w,c
  6432  003B3A  120B               	iorwf	i2___xxtofl@arg^0,f,c
  6433  003B3C  5006               	movf	(??i2___xxtofl+1)^0,w,c
  6434  003B3E  120C               	iorwf	(i2___xxtofl@arg+1)^0,f,c
  6435  003B40  5007               	movf	(??i2___xxtofl+2)^0,w,c
  6436  003B42  120D               	iorwf	(i2___xxtofl@arg+2)^0,f,c
  6437  003B44  5008               	movf	(??i2___xxtofl+3)^0,w,c
  6438  003B46  120E               	iorwf	(i2___xxtofl@arg+3)^0,f,c
  6439  003B48  5009               	movf	i2___xxtofl@sign^0,w,c
  6440  003B4A  B4D8               	btfsc	status,2,c
  6441  003B4C  EFAA  F01D         	goto	i2u347_41
  6442  003B50  EFAC  F01D         	goto	i2u347_40
  6443  003B54                     i2u347_41:
  6444  003B54  EFB4  F01D         	goto	i2l4807
  6445  003B58                     i2u347_40:
  6446  003B58  BE04               	btfsc	(i2___xxtofl@val+3)^0,7,c
  6447  003B5A  EFB3  F01D         	goto	i2u348_40
  6448  003B5E  EFB1  F01D         	goto	i2u348_41
  6449  003B62                     i2u348_41:
  6450  003B62  EFB4  F01D         	goto	i2l4807
  6451  003B66                     i2u348_40:
  6452  003B66  8E0E               	bsf	(i2___xxtofl@arg+3)^0,7,c
  6453  003B68                     i2l4807:
  6454  003B68  C00B  F001         	movff	i2___xxtofl@arg,?i2___xxtofl
  6455  003B6C  C00C  F002         	movff	i2___xxtofl@arg+1,?i2___xxtofl+1
  6456  003B70  C00D  F003         	movff	i2___xxtofl@arg+2,?i2___xxtofl+2
  6457  003B74  C00E  F004         	movff	i2___xxtofl@arg+3,?i2___xxtofl+3
  6458  003B78                     i2l2358:
  6459  003B78  0012               	return		;funcret
  6460  003B7A                     __end_ofi2___xxtofl:
  6461                           	callstack 0
  6462                           
  6463 ;; *************** function i2___fltol *****************
  6464 ;; Defined at:
  6465 ;;		line 43 in file "C:\Program Files\Microchip\xc8\v2.36\pic\sources\c99\common\fltol.c"
  6466 ;; Parameters:    Size  Location     Type
  6467 ;;  f1              4   39[COMRAM] unsigned char 
  6468 ;; Auto vars:     Size  Location     Type
  6469 ;;  exp1            1   48[COMRAM] unsigned char 
  6470 ;;  sign1           1   47[COMRAM] unsigned char 
  6471 ;; Return value:  Size  Location     Type
  6472 ;;                  4   39[COMRAM] long 
  6473 ;; Registers used:
  6474 ;;		wreg, status,2, status,0
  6475 ;; Tracked objects:
  6476 ;;		On entry : 0/0
  6477 ;;		On exit  : 0/0
  6478 ;;		Unchanged: 0/0
  6479 ;; Data sizes:     COMRAM   BANK0   BANK1   BANK2   BANK3   BANK4   BANK5   BANK6   BANK7   BANK8   BANK9  BANK10  BANK1
      +1  BANK12  BANK13  BANK14  BANK15  BANK16  BANK17  BANK18  BANK19  BANK20  BANK21  BANK22  BANK23  BANK24  BANK25  BANK2
      +6  BANK27  BANK28  BANK29  BANK30  BANK31
  6480 ;;      Params:         4       0       0       0       0       0       0       0       0       0       0       0       
      +0       0       0       0       0       0       0       0       0       0       0       0       0       0       0       
      +0       0       0       0       0       0
  6481 ;;      Locals:         2       0       0       0       0       0       0       0       0       0       0       0       
      +0       0       0       0       0       0       0       0       0       0       0       0       0       0       0       
      +0       0       0       0       0       0
  6482 ;;      Temps:          4       0       0       0       0       0       0       0       0       0       0       0       
      +0       0       0       0       0       0       0       0       0       0       0       0       0       0       0       
      +0       0       0       0       0       0
  6483 ;;      Totals:        10       0       0       0       0       0       0       0       0       0       0       0       
      +0       0       0       0       0       0       0       0       0       0       0       0       0       0       0       
      +0       0       0       0       0       0
  6484 ;;Total ram usage:       10 bytes
  6485 ;; Hardware stack levels used: 1
  6486 ;; This function calls:
  6487 ;;		Nothing
  6488 ;; This function is called by:
  6489 ;;		_INTERRUPT_InterruptManager
  6490 ;;		_velocidadTransitorio
  6491 ;; This function uses a non-reentrant model
  6492 ;;
  6493                           
  6494                           	psect	text39
  6495  0042FE                     __ptext39:
  6496                           	callstack 0
  6497  0042FE                     i2___fltol:
  6498                           	callstack 26
  6499  0042FE  342A               	rlcf	(i2___fltol@f1+2)^0,w,c
  6500  004300  342B               	rlcf	(i2___fltol@f1+3)^0,w,c
  6501  004302  6E31               	movwf	i2___fltol@exp1^0,c
  6502  004304  5031               	movf	i2___fltol@exp1^0,w,c
  6503  004306  A4D8               	btfss	status,2,c
  6504  004308  EF88  F021         	goto	i2u313_41
  6505  00430C  EF8A  F021         	goto	i2u313_40
  6506  004310                     i2u313_41:
  6507  004310  EF94  F021         	goto	i2l4597
  6508  004314                     i2u313_40:
  6509  004314                     i2l4593:
  6510  004314  0E00               	movlw	0
  6511  004316  6E28               	movwf	?i2___fltol^0,c
  6512  004318  0E00               	movlw	0
  6513  00431A  6E29               	movwf	(?i2___fltol+1)^0,c
  6514  00431C  0E00               	movlw	0
  6515  00431E  6E2A               	movwf	(?i2___fltol+2)^0,c
  6516  004320  0E00               	movlw	0
  6517  004322  6E2B               	movwf	(?i2___fltol+3)^0,c
  6518  004324  EF01  F022         	goto	i2l1997
  6519  004328                     i2l4597:
  6520  004328  C028  F02C         	movff	i2___fltol@f1,??i2___fltol
  6521  00432C  C029  F02D         	movff	i2___fltol@f1+1,??i2___fltol+1
  6522  004330  C02A  F02E         	movff	i2___fltol@f1+2,??i2___fltol+2
  6523  004334  C02B  F02F         	movff	i2___fltol@f1+3,??i2___fltol+3
  6524  004338  0E20               	movlw	32
  6525  00433A  EFA4  F021         	goto	i2u314_40
  6526  00433E                     i2u314_45:
  6527  00433E  90D8               	bcf	status,0,c
  6528  004340  322F               	rrcf	(??i2___fltol+3)^0,f,c
  6529  004342  322E               	rrcf	(??i2___fltol+2)^0,f,c
  6530  004344  322D               	rrcf	(??i2___fltol+1)^0,f,c
  6531  004346  322C               	rrcf	??i2___fltol^0,f,c
  6532  004348                     i2u314_40:
  6533  004348  2EE8               	decfsz	wreg,f,c
  6534  00434A  EF9F  F021         	goto	i2u314_45
  6535  00434E  502C               	movf	??i2___fltol^0,w,c
  6536  004350  6E30               	movwf	i2___fltol@sign1^0,c
  6537  004352  8E2A               	bsf	(i2___fltol@f1+2)^0,7,c
  6538  004354  0EFF               	movlw	255
  6539  004356  1628               	andwf	i2___fltol@f1^0,f,c
  6540  004358  0EFF               	movlw	255
  6541  00435A  1629               	andwf	(i2___fltol@f1+1)^0,f,c
  6542  00435C  0EFF               	movlw	255
  6543  00435E  162A               	andwf	(i2___fltol@f1+2)^0,f,c
  6544  004360  0E00               	movlw	0
  6545  004362  162B               	andwf	(i2___fltol@f1+3)^0,f,c
  6546  004364  0E96               	movlw	150
  6547  004366  5E31               	subwf	i2___fltol@exp1^0,f,c
  6548  004368  BE31               	btfsc	i2___fltol@exp1^0,7,c
  6549  00436A  EFBB  F021         	goto	i2u315_40
  6550  00436E  EFB9  F021         	goto	i2u315_41
  6551  004372                     i2u315_41:
  6552  004372  EFD1  F021         	goto	i2l4617
  6553  004376                     i2u315_40:
  6554  004376  5031               	movf	i2___fltol@exp1^0,w,c
  6555  004378  0A80               	xorlw	128
  6556  00437A  0F97               	addlw	151
  6557  00437C  B0D8               	btfsc	status,0,c
  6558  00437E  EFC3  F021         	goto	i2u316_41
  6559  004382  EFC5  F021         	goto	i2u316_40
  6560  004386                     i2u316_41:
  6561  004386  EFC7  F021         	goto	i2l4613
  6562  00438A                     i2u316_40:
  6563  00438A  EF8A  F021         	goto	i2l4593
  6564  00438E                     i2l4613:
  6565  00438E  90D8               	bcf	status,0,c
  6566  004390  322B               	rrcf	(i2___fltol@f1+3)^0,f,c
  6567  004392  322A               	rrcf	(i2___fltol@f1+2)^0,f,c
  6568  004394  3229               	rrcf	(i2___fltol@f1+1)^0,f,c
  6569  004396  3228               	rrcf	i2___fltol@f1^0,f,c
  6570  004398  3E31               	incfsz	i2___fltol@exp1^0,f,c
  6571  00439A  EFC7  F021         	goto	i2l4613
  6572  00439E  EFE9  F021         	goto	i2l4627
  6573  0043A2                     i2l4617:
  6574  0043A2  0E1F               	movlw	31
  6575  0043A4  6431               	cpfsgt	i2___fltol@exp1^0,c
  6576  0043A6  EFD7  F021         	goto	i2u317_41
  6577  0043AA  EFD9  F021         	goto	i2u317_40
  6578  0043AE                     i2u317_41:
  6579  0043AE  EFE1  F021         	goto	i2l4625
  6580  0043B2                     i2u317_40:
  6581  0043B2  EF8A  F021         	goto	i2l4593
  6582  0043B6                     i2l4623:
  6583  0043B6  90D8               	bcf	status,0,c
  6584  0043B8  3628               	rlcf	i2___fltol@f1^0,f,c
  6585  0043BA  3629               	rlcf	(i2___fltol@f1+1)^0,f,c
  6586  0043BC  362A               	rlcf	(i2___fltol@f1+2)^0,f,c
  6587  0043BE  362B               	rlcf	(i2___fltol@f1+3)^0,f,c
  6588  0043C0  0631               	decf	i2___fltol@exp1^0,f,c
  6589  0043C2                     i2l4625:
  6590  0043C2  5031               	movf	i2___fltol@exp1^0,w,c
  6591  0043C4  A4D8               	btfss	status,2,c
  6592  0043C6  EFE7  F021         	goto	i2u318_41
  6593  0043CA  EFE9  F021         	goto	i2u318_40
  6594  0043CE                     i2u318_41:
  6595  0043CE  EFDB  F021         	goto	i2l4623
  6596  0043D2                     i2u318_40:
  6597  0043D2                     i2l4627:
  6598  0043D2  5030               	movf	i2___fltol@sign1^0,w,c
  6599  0043D4  B4D8               	btfsc	status,2,c
  6600  0043D6  EFEF  F021         	goto	i2u319_41
  6601  0043DA  EFF1  F021         	goto	i2u319_40
  6602  0043DE                     i2u319_41:
  6603  0043DE  EFF9  F021         	goto	i2l4631
  6604  0043E2                     i2u319_40:
  6605  0043E2  1E2B               	comf	(i2___fltol@f1+3)^0,f,c
  6606  0043E4  1E2A               	comf	(i2___fltol@f1+2)^0,f,c
  6607  0043E6  1E29               	comf	(i2___fltol@f1+1)^0,f,c
  6608  0043E8  6C28               	negf	i2___fltol@f1^0,c
  6609  0043EA  0E00               	movlw	0
  6610  0043EC  2229               	addwfc	(i2___fltol@f1+1)^0,f,c
  6611  0043EE  222A               	addwfc	(i2___fltol@f1+2)^0,f,c
  6612  0043F0  222B               	addwfc	(i2___fltol@f1+3)^0,f,c
  6613  0043F2                     i2l4631:
  6614  0043F2  C028  F028         	movff	i2___fltol@f1,?i2___fltol
  6615  0043F6  C029  F029         	movff	i2___fltol@f1+1,?i2___fltol+1
  6616  0043FA  C02A  F02A         	movff	i2___fltol@f1+2,?i2___fltol+2
  6617  0043FE  C02B  F02B         	movff	i2___fltol@f1+3,?i2___fltol+3
  6618  004402                     i2l1997:
  6619  004402  0012               	return		;funcret
  6620  004404                     __end_ofi2___fltol:
  6621                           	callstack 0
  6622                           
  6623 ;; *************** function i2___flmul *****************
  6624 ;; Defined at:
  6625 ;;		line 8 in file "C:\Program Files\Microchip\xc8\v2.36\pic\sources\c99\common\sprcmul.c"
  6626 ;; Parameters:    Size  Location     Type
  6627 ;;  b               4   14[COMRAM] long 
  6628 ;;  a               4   18[COMRAM] long 
  6629 ;; Auto vars:     Size  Location     Type
  6630 ;;  prod            4   33[COMRAM] struct .
  6631 ;;  grs             4   27[COMRAM] unsigned long 
  6632 ;;  temp            2   37[COMRAM] struct .
  6633 ;;  bexp            1   32[COMRAM] unsigned char 
  6634 ;;  aexp            1   31[COMRAM] unsigned char 
  6635 ;;  sign            1   26[COMRAM] unsigned char 
  6636 ;; Return value:  Size  Location     Type
  6637 ;;                  4   14[COMRAM] unsigned char 
  6638 ;; Registers used:
  6639 ;;		wreg, status,2, status,0, prodl, prodh
  6640 ;; Tracked objects:
  6641 ;;		On entry : 0/0
  6642 ;;		On exit  : 0/0
  6643 ;;		Unchanged: 0/0
  6644 ;; Data sizes:     COMRAM   BANK0   BANK1   BANK2   BANK3   BANK4   BANK5   BANK6   BANK7   BANK8   BANK9  BANK10  BANK1
      +1  BANK12  BANK13  BANK14  BANK15  BANK16  BANK17  BANK18  BANK19  BANK20  BANK21  BANK22  BANK23  BANK24  BANK25  BANK2
      +6  BANK27  BANK28  BANK29  BANK30  BANK31
  6645 ;;      Params:         8       0       0       0       0       0       0       0       0       0       0       0       
      +0       0       0       0       0       0       0       0       0       0       0       0       0       0       0       
      +0       0       0       0       0       0
  6646 ;;      Locals:        13       0       0       0       0       0       0       0       0       0       0       0       
      +0       0       0       0       0       0       0       0       0       0       0       0       0       0       0       
      +0       0       0       0       0       0
  6647 ;;      Temps:          4       0       0       0       0       0       0       0       0       0       0       0       
      +0       0       0       0       0       0       0       0       0       0       0       0       0       0       0       
      +0       0       0       0       0       0
  6648 ;;      Totals:        25       0       0       0       0       0       0       0       0       0       0       0       
      +0       0       0       0       0       0       0       0       0       0       0       0       0       0       0       
      +0       0       0       0       0       0
  6649 ;;Total ram usage:       25 bytes
  6650 ;; Hardware stack levels used: 1
  6651 ;; This function calls:
  6652 ;;		Nothing
  6653 ;; This function is called by:
  6654 ;;		_velocidadTransitorio
  6655 ;; This function uses a non-reentrant model
  6656 ;;
  6657                           
  6658                           	psect	text40
  6659  002458                     __ptext40:
  6660                           	callstack 0
  6661  002458                     i2___flmul:
  6662                           	callstack 24
  6663  002458  5012               	movf	(i2___flmul@b+3)^0,w,c
  6664  00245A  0B80               	andlw	128
  6665  00245C  6E1B               	movwf	i2___flmul@sign^0,c
  6666  00245E  5012               	movf	(i2___flmul@b+3)^0,w,c
  6667  002460  2412               	addwf	(i2___flmul@b+3)^0,w,c
  6668  002462  6E21               	movwf	i2___flmul@bexp^0,c
  6669  002464  AE11               	btfss	(i2___flmul@b+2)^0,7,c
  6670  002466  EF37  F012         	goto	i2u320_41
  6671  00246A  EF39  F012         	goto	i2u320_40
  6672  00246E                     i2u320_41:
  6673  00246E  EF3A  F012         	goto	i2l4641
  6674  002472                     i2u320_40:
  6675  002472  8021               	bsf	i2___flmul@bexp^0,0,c
  6676  002474                     i2l4641:
  6677  002474  5021               	movf	i2___flmul@bexp^0,w,c
  6678  002476  B4D8               	btfsc	status,2,c
  6679  002478  EF40  F012         	goto	i2u321_41
  6680  00247C  EF42  F012         	goto	i2u321_40
  6681  002480                     i2u321_41:
  6682  002480  EF55  F012         	goto	i2l4649
  6683  002484                     i2u321_40:
  6684  002484  2821               	incf	i2___flmul@bexp^0,w,c
  6685  002486  A4D8               	btfss	status,2,c
  6686  002488  EF48  F012         	goto	i2u322_41
  6687  00248C  EF4A  F012         	goto	i2u322_40
  6688  002490                     i2u322_41:
  6689  002490  EF52  F012         	goto	i2l4647
  6690  002494                     i2u322_40:
  6691  002494  0E00               	movlw	0
  6692  002496  6E0F               	movwf	i2___flmul@b^0,c
  6693  002498  0E00               	movlw	0
  6694  00249A  6E10               	movwf	(i2___flmul@b+1)^0,c
  6695  00249C  0E00               	movlw	0
  6696  00249E  6E11               	movwf	(i2___flmul@b+2)^0,c
  6697  0024A0  0E00               	movlw	0
  6698  0024A2  6E12               	movwf	(i2___flmul@b+3)^0,c
  6699  0024A4                     i2l4647:
  6700  0024A4  8E11               	bsf	(i2___flmul@b+2)^0,7,c
  6701  0024A6  EF5D  F012         	goto	i2l4651
  6702  0024AA                     i2l4649:
  6703  0024AA  0E00               	movlw	0
  6704  0024AC  6E0F               	movwf	i2___flmul@b^0,c
  6705  0024AE  0E00               	movlw	0
  6706  0024B0  6E10               	movwf	(i2___flmul@b+1)^0,c
  6707  0024B2  0E00               	movlw	0
  6708  0024B4  6E11               	movwf	(i2___flmul@b+2)^0,c
  6709  0024B6  0E00               	movlw	0
  6710  0024B8  6E12               	movwf	(i2___flmul@b+3)^0,c
  6711  0024BA                     i2l4651:
  6712  0024BA  5016               	movf	(i2___flmul@a+3)^0,w,c
  6713  0024BC  0B80               	andlw	128
  6714  0024BE  1A1B               	xorwf	i2___flmul@sign^0,f,c
  6715  0024C0  5016               	movf	(i2___flmul@a+3)^0,w,c
  6716  0024C2  2416               	addwf	(i2___flmul@a+3)^0,w,c
  6717  0024C4  6E20               	movwf	i2___flmul@aexp^0,c
  6718  0024C6  AE15               	btfss	(i2___flmul@a+2)^0,7,c
  6719  0024C8  EF68  F012         	goto	i2u323_41
  6720  0024CC  EF6A  F012         	goto	i2u323_40
  6721  0024D0                     i2u323_41:
  6722  0024D0  EF6B  F012         	goto	i2l4659
  6723  0024D4                     i2u323_40:
  6724  0024D4  8020               	bsf	i2___flmul@aexp^0,0,c
  6725  0024D6                     i2l4659:
  6726  0024D6  5020               	movf	i2___flmul@aexp^0,w,c
  6727  0024D8  B4D8               	btfsc	status,2,c
  6728  0024DA  EF71  F012         	goto	i2u324_41
  6729  0024DE  EF73  F012         	goto	i2u324_40
  6730  0024E2                     i2u324_41:
  6731  0024E2  EF86  F012         	goto	i2l4667
  6732  0024E6                     i2u324_40:
  6733  0024E6  2820               	incf	i2___flmul@aexp^0,w,c
  6734  0024E8  A4D8               	btfss	status,2,c
  6735  0024EA  EF79  F012         	goto	i2u325_41
  6736  0024EE  EF7B  F012         	goto	i2u325_40
  6737  0024F2                     i2u325_41:
  6738  0024F2  EF83  F012         	goto	i2l4665
  6739  0024F6                     i2u325_40:
  6740  0024F6  0E00               	movlw	0
  6741  0024F8  6E13               	movwf	i2___flmul@a^0,c
  6742  0024FA  0E00               	movlw	0
  6743  0024FC  6E14               	movwf	(i2___flmul@a+1)^0,c
  6744  0024FE  0E00               	movlw	0
  6745  002500  6E15               	movwf	(i2___flmul@a+2)^0,c
  6746  002502  0E00               	movlw	0
  6747  002504  6E16               	movwf	(i2___flmul@a+3)^0,c
  6748  002506                     i2l4665:
  6749  002506  8E15               	bsf	(i2___flmul@a+2)^0,7,c
  6750  002508  EF8E  F012         	goto	i2l2314
  6751  00250C                     i2l4667:
  6752  00250C  0E00               	movlw	0
  6753  00250E  6E13               	movwf	i2___flmul@a^0,c
  6754  002510  0E00               	movlw	0
  6755  002512  6E14               	movwf	(i2___flmul@a+1)^0,c
  6756  002514  0E00               	movlw	0
  6757  002516  6E15               	movwf	(i2___flmul@a+2)^0,c
  6758  002518  0E00               	movlw	0
  6759  00251A  6E16               	movwf	(i2___flmul@a+3)^0,c
  6760  00251C                     i2l2314:
  6761  00251C  5020               	movf	i2___flmul@aexp^0,w,c
  6762  00251E  B4D8               	btfsc	status,2,c
  6763  002520  EF94  F012         	goto	i2u326_41
  6764  002524  EF96  F012         	goto	i2u326_40
  6765  002528                     i2u326_41:
  6766  002528  EF9E  F012         	goto	i2l4671
  6767  00252C                     i2u326_40:
  6768  00252C  5021               	movf	i2___flmul@bexp^0,w,c
  6769  00252E  A4D8               	btfss	status,2,c
  6770  002530  EF9C  F012         	goto	i2u327_41
  6771  002534  EF9E  F012         	goto	i2u327_40
  6772  002538                     i2u327_41:
  6773  002538  EFA8  F012         	goto	i2l4675
  6774  00253C                     i2u327_40:
  6775  00253C                     i2l4671:
  6776  00253C  0E00               	movlw	0
  6777  00253E  6E0F               	movwf	?i2___flmul^0,c
  6778  002540  0E00               	movlw	0
  6779  002542  6E10               	movwf	(?i2___flmul+1)^0,c
  6780  002544  0E00               	movlw	0
  6781  002546  6E11               	movwf	(?i2___flmul+2)^0,c
  6782  002548  0E00               	movlw	0
  6783  00254A  6E12               	movwf	(?i2___flmul+3)^0,c
  6784  00254C  EF52  F014         	goto	i2l2318
  6785  002550                     i2l4675:
  6786  002550  5015               	movf	(i2___flmul@a+2)^0,w,c
  6787  002552  020F               	mulwf	i2___flmul@b^0,c
  6788  002554  006F FFCC  F026    	movff	prodl,i2___flmul@temp
  6789  00255A  006F FFD0  F027    	movff	prodh,i2___flmul@temp+1
  6790  002560  5026               	movf	i2___flmul@temp^0,w,c
  6791  002562  6E1C               	movwf	i2___flmul@grs^0,c
  6792  002564  6A1D               	clrf	(i2___flmul@grs+1)^0,c
  6793  002566  6A1E               	clrf	(i2___flmul@grs+2)^0,c
  6794  002568  6A1F               	clrf	(i2___flmul@grs+3)^0,c
  6795  00256A  5027               	movf	(i2___flmul@temp+1)^0,w,c
  6796  00256C  6E22               	movwf	i2___flmul@prod^0,c
  6797  00256E  6A23               	clrf	(i2___flmul@prod+1)^0,c
  6798  002570  6A24               	clrf	(i2___flmul@prod+2)^0,c
  6799  002572  6A25               	clrf	(i2___flmul@prod+3)^0,c
  6800  002574  5014               	movf	(i2___flmul@a+1)^0,w,c
  6801  002576  0210               	mulwf	(i2___flmul@b+1)^0,c
  6802  002578  006F FFCC  F026    	movff	prodl,i2___flmul@temp
  6803  00257E  006F FFD0  F027    	movff	prodh,i2___flmul@temp+1
  6804  002584  5026               	movf	i2___flmul@temp^0,w,c
  6805  002586  261C               	addwf	i2___flmul@grs^0,f,c
  6806  002588  0E00               	movlw	0
  6807  00258A  221D               	addwfc	(i2___flmul@grs+1)^0,f,c
  6808  00258C  221E               	addwfc	(i2___flmul@grs+2)^0,f,c
  6809  00258E  221F               	addwfc	(i2___flmul@grs+3)^0,f,c
  6810  002590  5027               	movf	(i2___flmul@temp+1)^0,w,c
  6811  002592  2622               	addwf	i2___flmul@prod^0,f,c
  6812  002594  0E00               	movlw	0
  6813  002596  2223               	addwfc	(i2___flmul@prod+1)^0,f,c
  6814  002598  2224               	addwfc	(i2___flmul@prod+2)^0,f,c
  6815  00259A  2225               	addwfc	(i2___flmul@prod+3)^0,f,c
  6816  00259C  5013               	movf	i2___flmul@a^0,w,c
  6817  00259E  0211               	mulwf	(i2___flmul@b+2)^0,c
  6818  0025A0  006F FFCC  F026    	movff	prodl,i2___flmul@temp
  6819  0025A6  006F FFD0  F027    	movff	prodh,i2___flmul@temp+1
  6820  0025AC  5026               	movf	i2___flmul@temp^0,w,c
  6821  0025AE  261C               	addwf	i2___flmul@grs^0,f,c
  6822  0025B0  0E00               	movlw	0
  6823  0025B2  221D               	addwfc	(i2___flmul@grs+1)^0,f,c
  6824  0025B4  221E               	addwfc	(i2___flmul@grs+2)^0,f,c
  6825  0025B6  221F               	addwfc	(i2___flmul@grs+3)^0,f,c
  6826  0025B8  5027               	movf	(i2___flmul@temp+1)^0,w,c
  6827  0025BA  2622               	addwf	i2___flmul@prod^0,f,c
  6828  0025BC  0E00               	movlw	0
  6829  0025BE  2223               	addwfc	(i2___flmul@prod+1)^0,f,c
  6830  0025C0  2224               	addwfc	(i2___flmul@prod+2)^0,f,c
  6831  0025C2  2225               	addwfc	(i2___flmul@prod+3)^0,f,c
  6832  0025C4  C01E  F01F         	movff	i2___flmul@grs+2,i2___flmul@grs+3
  6833  0025C8  C01D  F01E         	movff	i2___flmul@grs+1,i2___flmul@grs+2
  6834  0025CC  C01C  F01D         	movff	i2___flmul@grs,i2___flmul@grs+1
  6835  0025D0  6A1C               	clrf	i2___flmul@grs^0,c
  6836  0025D2  5013               	movf	i2___flmul@a^0,w,c
  6837  0025D4  0210               	mulwf	(i2___flmul@b+1)^0,c
  6838  0025D6  006F FFCC  F026    	movff	prodl,i2___flmul@temp
  6839  0025DC  006F FFD0  F027    	movff	prodh,i2___flmul@temp+1
  6840  0025E2  5026               	movf	i2___flmul@temp^0,w,c
  6841  0025E4  261C               	addwf	i2___flmul@grs^0,f,c
  6842  0025E6  5027               	movf	(i2___flmul@temp+1)^0,w,c
  6843  0025E8  221D               	addwfc	(i2___flmul@grs+1)^0,f,c
  6844  0025EA  0E00               	movlw	0
  6845  0025EC  221E               	addwfc	(i2___flmul@grs+2)^0,f,c
  6846  0025EE  0E00               	movlw	0
  6847  0025F0  221F               	addwfc	(i2___flmul@grs+3)^0,f,c
  6848  0025F2  5014               	movf	(i2___flmul@a+1)^0,w,c
  6849  0025F4  020F               	mulwf	i2___flmul@b^0,c
  6850  0025F6  006F FFCC  F026    	movff	prodl,i2___flmul@temp
  6851  0025FC  006F FFD0  F027    	movff	prodh,i2___flmul@temp+1
  6852  002602  5026               	movf	i2___flmul@temp^0,w,c
  6853  002604  261C               	addwf	i2___flmul@grs^0,f,c
  6854  002606  5027               	movf	(i2___flmul@temp+1)^0,w,c
  6855  002608  221D               	addwfc	(i2___flmul@grs+1)^0,f,c
  6856  00260A  0E00               	movlw	0
  6857  00260C  221E               	addwfc	(i2___flmul@grs+2)^0,f,c
  6858  00260E  0E00               	movlw	0
  6859  002610  221F               	addwfc	(i2___flmul@grs+3)^0,f,c
  6860  002612  C01E  F01F         	movff	i2___flmul@grs+2,i2___flmul@grs+3
  6861  002616  C01D  F01E         	movff	i2___flmul@grs+1,i2___flmul@grs+2
  6862  00261A  C01C  F01D         	movff	i2___flmul@grs,i2___flmul@grs+1
  6863  00261E  6A1C               	clrf	i2___flmul@grs^0,c
  6864  002620  5013               	movf	i2___flmul@a^0,w,c
  6865  002622  020F               	mulwf	i2___flmul@b^0,c
  6866  002624  006F FFCC  F026    	movff	prodl,i2___flmul@temp
  6867  00262A  006F FFD0  F027    	movff	prodh,i2___flmul@temp+1
  6868  002630  5026               	movf	i2___flmul@temp^0,w,c
  6869  002632  261C               	addwf	i2___flmul@grs^0,f,c
  6870  002634  5027               	movf	(i2___flmul@temp+1)^0,w,c
  6871  002636  221D               	addwfc	(i2___flmul@grs+1)^0,f,c
  6872  002638  0E00               	movlw	0
  6873  00263A  221E               	addwfc	(i2___flmul@grs+2)^0,f,c
  6874  00263C  0E00               	movlw	0
  6875  00263E  221F               	addwfc	(i2___flmul@grs+3)^0,f,c
  6876  002640  5015               	movf	(i2___flmul@a+2)^0,w,c
  6877  002642  0210               	mulwf	(i2___flmul@b+1)^0,c
  6878  002644  006F FFCC  F026    	movff	prodl,i2___flmul@temp
  6879  00264A  006F FFD0  F027    	movff	prodh,i2___flmul@temp+1
  6880  002650  5026               	movf	i2___flmul@temp^0,w,c
  6881  002652  2622               	addwf	i2___flmul@prod^0,f,c
  6882  002654  5027               	movf	(i2___flmul@temp+1)^0,w,c
  6883  002656  2223               	addwfc	(i2___flmul@prod+1)^0,f,c
  6884  002658  0E00               	movlw	0
  6885  00265A  2224               	addwfc	(i2___flmul@prod+2)^0,f,c
  6886  00265C  0E00               	movlw	0
  6887  00265E  2225               	addwfc	(i2___flmul@prod+3)^0,f,c
  6888  002660  5014               	movf	(i2___flmul@a+1)^0,w,c
  6889  002662  0211               	mulwf	(i2___flmul@b+2)^0,c
  6890  002664  006F FFCC  F026    	movff	prodl,i2___flmul@temp
  6891  00266A  006F FFD0  F027    	movff	prodh,i2___flmul@temp+1
  6892  002670  5026               	movf	i2___flmul@temp^0,w,c
  6893  002672  2622               	addwf	i2___flmul@prod^0,f,c
  6894  002674  5027               	movf	(i2___flmul@temp+1)^0,w,c
  6895  002676  2223               	addwfc	(i2___flmul@prod+1)^0,f,c
  6896  002678  0E00               	movlw	0
  6897  00267A  2224               	addwfc	(i2___flmul@prod+2)^0,f,c
  6898  00267C  0E00               	movlw	0
  6899  00267E  2225               	addwfc	(i2___flmul@prod+3)^0,f,c
  6900  002680  5015               	movf	(i2___flmul@a+2)^0,w,c
  6901  002682  0211               	mulwf	(i2___flmul@b+2)^0,c
  6902  002684  006F FFCC  F026    	movff	prodl,i2___flmul@temp
  6903  00268A  006F FFD0  F027    	movff	prodh,i2___flmul@temp+1
  6904  002690  5026               	movf	i2___flmul@temp^0,w,c
  6905  002692  6E17               	movwf	??i2___flmul^0,c
  6906  002694  5027               	movf	(i2___flmul@temp+1)^0,w,c
  6907  002696  6E18               	movwf	(??i2___flmul+1)^0,c
  6908  002698  6A19               	clrf	(??i2___flmul+2)^0,c
  6909  00269A  6A1A               	clrf	(??i2___flmul+3)^0,c
  6910  00269C  C019  F01A         	movff	??i2___flmul+2,??i2___flmul+3
  6911  0026A0  C018  F019         	movff	??i2___flmul+1,??i2___flmul+2
  6912  0026A4  C017  F018         	movff	??i2___flmul,??i2___flmul+1
  6913  0026A8  6A17               	clrf	??i2___flmul^0,c
  6914  0026AA  5017               	movf	??i2___flmul^0,w,c
  6915  0026AC  2622               	addwf	i2___flmul@prod^0,f,c
  6916  0026AE  5018               	movf	(??i2___flmul+1)^0,w,c
  6917  0026B0  2223               	addwfc	(i2___flmul@prod+1)^0,f,c
  6918  0026B2  5019               	movf	(??i2___flmul+2)^0,w,c
  6919  0026B4  2224               	addwfc	(i2___flmul@prod+2)^0,f,c
  6920  0026B6  501A               	movf	(??i2___flmul+3)^0,w,c
  6921  0026B8  2225               	addwfc	(i2___flmul@prod+3)^0,f,c
  6922  0026BA  C01C  F017         	movff	i2___flmul@grs,??i2___flmul
  6923  0026BE  C01D  F018         	movff	i2___flmul@grs+1,??i2___flmul+1
  6924  0026C2  C01E  F019         	movff	i2___flmul@grs+2,??i2___flmul+2
  6925  0026C6  C01F  F01A         	movff	i2___flmul@grs+3,??i2___flmul+3
  6926  0026CA  0E19               	movlw	25
  6927  0026CC  EF6D  F013         	goto	i2u328_40
  6928  0026D0                     i2u328_45:
  6929  0026D0  90D8               	bcf	status,0,c
  6930  0026D2  321A               	rrcf	(??i2___flmul+3)^0,f,c
  6931  0026D4  3219               	rrcf	(??i2___flmul+2)^0,f,c
  6932  0026D6  3218               	rrcf	(??i2___flmul+1)^0,f,c
  6933  0026D8  3217               	rrcf	??i2___flmul^0,f,c
  6934  0026DA                     i2u328_40:
  6935  0026DA  2EE8               	decfsz	wreg,f,c
  6936  0026DC  EF68  F013         	goto	i2u328_45
  6937  0026E0  5017               	movf	??i2___flmul^0,w,c
  6938  0026E2  2622               	addwf	i2___flmul@prod^0,f,c
  6939  0026E4  5018               	movf	(??i2___flmul+1)^0,w,c
  6940  0026E6  2223               	addwfc	(i2___flmul@prod+1)^0,f,c
  6941  0026E8  5019               	movf	(??i2___flmul+2)^0,w,c
  6942  0026EA  2224               	addwfc	(i2___flmul@prod+2)^0,f,c
  6943  0026EC  501A               	movf	(??i2___flmul+3)^0,w,c
  6944  0026EE  2225               	addwfc	(i2___flmul@prod+3)^0,f,c
  6945  0026F0  C01E  F01F         	movff	i2___flmul@grs+2,i2___flmul@grs+3
  6946  0026F4  C01D  F01E         	movff	i2___flmul@grs+1,i2___flmul@grs+2
  6947  0026F8  C01C  F01D         	movff	i2___flmul@grs,i2___flmul@grs+1
  6948  0026FC  6A1C               	clrf	i2___flmul@grs^0,c
  6949  0026FE  5020               	movf	i2___flmul@aexp^0,w,c
  6950  002700  C021  F017         	movff	i2___flmul@bexp,??i2___flmul
  6951  002704  6A18               	clrf	(??i2___flmul+1)^0,c
  6952  002706  2617               	addwf	??i2___flmul^0,f,c
  6953  002708  0E00               	movlw	0
  6954  00270A  2218               	addwfc	(??i2___flmul+1)^0,f,c
  6955  00270C  0E82               	movlw	130
  6956  00270E  2417               	addwf	??i2___flmul^0,w,c
  6957  002710  6E26               	movwf	i2___flmul@temp^0,c
  6958  002712  0EFF               	movlw	255
  6959  002714  2018               	addwfc	(??i2___flmul+1)^0,w,c
  6960  002716  6E27               	movwf	(i2___flmul@temp+1)^0,c
  6961  002718  EFA3  F013         	goto	i2l4723
  6962  00271C                     i2l4717:
  6963  00271C  90D8               	bcf	status,0,c
  6964  00271E  3622               	rlcf	i2___flmul@prod^0,f,c
  6965  002720  3623               	rlcf	(i2___flmul@prod+1)^0,f,c
  6966  002722  3624               	rlcf	(i2___flmul@prod+2)^0,f,c
  6967  002724  3625               	rlcf	(i2___flmul@prod+3)^0,f,c
  6968  002726  AE1F               	btfss	(i2___flmul@grs+3)^0,7,c
  6969  002728  EF98  F013         	goto	i2u329_41
  6970  00272C  EF9A  F013         	goto	i2u329_40
  6971  002730                     i2u329_41:
  6972  002730  EF9B  F013         	goto	i2l2321
  6973  002734                     i2u329_40:
  6974  002734  8022               	bsf	i2___flmul@prod^0,0,c
  6975  002736                     i2l2321:
  6976  002736  90D8               	bcf	status,0,c
  6977  002738  361C               	rlcf	i2___flmul@grs^0,f,c
  6978  00273A  361D               	rlcf	(i2___flmul@grs+1)^0,f,c
  6979  00273C  361E               	rlcf	(i2___flmul@grs+2)^0,f,c
  6980  00273E  361F               	rlcf	(i2___flmul@grs+3)^0,f,c
  6981  002740  0626               	decf	i2___flmul@temp^0,f,c
  6982  002742  A0D8               	btfss	status,0,c
  6983  002744  0627               	decf	(i2___flmul@temp+1)^0,f,c
  6984  002746                     i2l4723:
  6985  002746  AE24               	btfss	(i2___flmul@prod+2)^0,7,c
  6986  002748  EFA8  F013         	goto	i2u330_41
  6987  00274C  EFAA  F013         	goto	i2u330_40
  6988  002750                     i2u330_41:
  6989  002750  EF8E  F013         	goto	i2l4717
  6990  002754                     i2u330_40:
  6991  002754  0E00               	movlw	0
  6992  002756  6E20               	movwf	i2___flmul@aexp^0,c
  6993  002758  AE1F               	btfss	(i2___flmul@grs+3)^0,7,c
  6994  00275A  EFB1  F013         	goto	i2u331_41
  6995  00275E  EFB3  F013         	goto	i2u331_40
  6996  002762                     i2u331_41:
  6997  002762  EFD7  F013         	goto	i2l2323
  6998  002766                     i2u331_40:
  6999  002766  0EFF               	movlw	255
  7000  002768  141C               	andwf	i2___flmul@grs^0,w,c
  7001  00276A  6E17               	movwf	??i2___flmul^0,c
  7002  00276C  0EFF               	movlw	255
  7003  00276E  141D               	andwf	(i2___flmul@grs+1)^0,w,c
  7004  002770  6E18               	movwf	(??i2___flmul+1)^0,c
  7005  002772  0EFF               	movlw	255
  7006  002774  141E               	andwf	(i2___flmul@grs+2)^0,w,c
  7007  002776  6E19               	movwf	(??i2___flmul+2)^0,c
  7008  002778  0E7F               	movlw	127
  7009  00277A  141F               	andwf	(i2___flmul@grs+3)^0,w,c
  7010  00277C  6E1A               	movwf	(??i2___flmul+3)^0,c
  7011  00277E  5017               	movf	??i2___flmul^0,w,c
  7012  002780  1018               	iorwf	(??i2___flmul+1)^0,w,c
  7013  002782  1019               	iorwf	(??i2___flmul+2)^0,w,c
  7014  002784  101A               	iorwf	(??i2___flmul+3)^0,w,c
  7015  002786  B4D8               	btfsc	status,2,c
  7016  002788  EFC8  F013         	goto	i2u332_41
  7017  00278C  EFCA  F013         	goto	i2u332_40
  7018  002790                     i2u332_41:
  7019  002790  EFCE  F013         	goto	i2l2324
  7020  002794                     i2u332_40:
  7021  002794                     i2l4731:
  7022  002794  0E01               	movlw	1
  7023  002796  6E20               	movwf	i2___flmul@aexp^0,c
  7024  002798  EFD7  F013         	goto	i2l2323
  7025  00279C                     i2l2324:
  7026  00279C  A022               	btfss	i2___flmul@prod^0,0,c
  7027  00279E  EFD3  F013         	goto	i2u333_41
  7028  0027A2  EFD5  F013         	goto	i2u333_40
  7029  0027A6                     i2u333_41:
  7030  0027A6  EFD7  F013         	goto	i2l2323
  7031  0027AA                     i2u333_40:
  7032  0027AA  EFCA  F013         	goto	i2l4731
  7033  0027AE                     i2l2323:
  7034  0027AE  5020               	movf	i2___flmul@aexp^0,w,c
  7035  0027B0  B4D8               	btfsc	status,2,c
  7036  0027B2  EFDD  F013         	goto	i2u334_41
  7037  0027B6  EFDF  F013         	goto	i2u334_40
  7038  0027BA                     i2u334_41:
  7039  0027BA  EF03  F014         	goto	i2l4743
  7040  0027BE                     i2u334_40:
  7041  0027BE  0E01               	movlw	1
  7042  0027C0  2622               	addwf	i2___flmul@prod^0,f,c
  7043  0027C2  0E00               	movlw	0
  7044  0027C4  2223               	addwfc	(i2___flmul@prod+1)^0,f,c
  7045  0027C6  2224               	addwfc	(i2___flmul@prod+2)^0,f,c
  7046  0027C8  2225               	addwfc	(i2___flmul@prod+3)^0,f,c
  7047  0027CA  A025               	btfss	(i2___flmul@prod+3)^0,0,c
  7048  0027CC  EFEA  F013         	goto	i2u335_41
  7049  0027D0  EFEC  F013         	goto	i2u335_40
  7050  0027D4                     i2u335_41:
  7051  0027D4  EF03  F014         	goto	i2l4743
  7052  0027D8                     i2u335_40:
  7053  0027D8  C022  F017         	movff	i2___flmul@prod,??i2___flmul
  7054  0027DC  C023  F018         	movff	i2___flmul@prod+1,??i2___flmul+1
  7055  0027E0  C024  F019         	movff	i2___flmul@prod+2,??i2___flmul+2
  7056  0027E4  C025  F01A         	movff	i2___flmul@prod+3,??i2___flmul+3
  7057  0027E8  341A               	rlcf	(??i2___flmul+3)^0,w,c
  7058  0027EA  321A               	rrcf	(??i2___flmul+3)^0,f,c
  7059  0027EC  3219               	rrcf	(??i2___flmul+2)^0,f,c
  7060  0027EE  3218               	rrcf	(??i2___flmul+1)^0,f,c
  7061  0027F0  3217               	rrcf	??i2___flmul^0,f,c
  7062  0027F2  C017  F022         	movff	??i2___flmul,i2___flmul@prod
  7063  0027F6  C018  F023         	movff	??i2___flmul+1,i2___flmul@prod+1
  7064  0027FA  C019  F024         	movff	??i2___flmul+2,i2___flmul@prod+2
  7065  0027FE  C01A  F025         	movff	??i2___flmul+3,i2___flmul@prod+3
  7066  002802  4A26               	infsnz	i2___flmul@temp^0,f,c
  7067  002804  2A27               	incf	(i2___flmul@temp+1)^0,f,c
  7068  002806                     i2l4743:
  7069  002806  BE27               	btfsc	(i2___flmul@temp+1)^0,7,c
  7070  002808  EF0E  F014         	goto	i2u336_41
  7071  00280C  5027               	movf	(i2___flmul@temp+1)^0,w,c
  7072  00280E  E108               	bnz	i2u336_40
  7073  002810  2826               	incf	i2___flmul@temp^0,w,c
  7074  002812  A0D8               	btfss	status,0,c
  7075  002814  EF0E  F014         	goto	i2u336_41
  7076  002818  EF10  F014         	goto	i2u336_40
  7077  00281C                     i2u336_41:
  7078  00281C  EF1A  F014         	goto	i2l4747
  7079  002820                     i2u336_40:
  7080  002820  0E00               	movlw	0
  7081  002822  6E22               	movwf	i2___flmul@prod^0,c
  7082  002824  0E00               	movlw	0
  7083  002826  6E23               	movwf	(i2___flmul@prod+1)^0,c
  7084  002828  0E80               	movlw	128
  7085  00282A  6E24               	movwf	(i2___flmul@prod+2)^0,c
  7086  00282C  0E7F               	movlw	127
  7087  00282E  6E25               	movwf	(i2___flmul@prod+3)^0,c
  7088  002830  EF48  F014         	goto	i2l4759
  7089  002834                     i2l4747:
  7090  002834  BE27               	btfsc	(i2___flmul@temp+1)^0,7,c
  7091  002836  EF27  F014         	goto	i2u337_40
  7092  00283A  5027               	movf	(i2___flmul@temp+1)^0,w,c
  7093  00283C  E106               	bnz	i2u337_41
  7094  00283E  0426               	decf	i2___flmul@temp^0,w,c
  7095  002840  B0D8               	btfsc	status,0,c
  7096  002842  EF25  F014         	goto	i2u337_41
  7097  002846  EF27  F014         	goto	i2u337_40
  7098  00284A                     i2u337_41:
  7099  00284A  EF33  F014         	goto	i2l2331
  7100  00284E                     i2u337_40:
  7101  00284E  0E00               	movlw	0
  7102  002850  6E22               	movwf	i2___flmul@prod^0,c
  7103  002852  0E00               	movlw	0
  7104  002854  6E23               	movwf	(i2___flmul@prod+1)^0,c
  7105  002856  0E00               	movlw	0
  7106  002858  6E24               	movwf	(i2___flmul@prod+2)^0,c
  7107  00285A  0E00               	movlw	0
  7108  00285C  6E25               	movwf	(i2___flmul@prod+3)^0,c
  7109  00285E  0E00               	movlw	0
  7110  002860  6E1B               	movwf	i2___flmul@sign^0,c
  7111  002862  EF48  F014         	goto	i2l4759
  7112  002866                     i2l2331:
  7113  002866  C026  F021         	movff	i2___flmul@temp,i2___flmul@bexp
  7114  00286A  0EFF               	movlw	255
  7115  00286C  1622               	andwf	i2___flmul@prod^0,f,c
  7116  00286E  0EFF               	movlw	255
  7117  002870  1623               	andwf	(i2___flmul@prod+1)^0,f,c
  7118  002872  0E7F               	movlw	127
  7119  002874  1624               	andwf	(i2___flmul@prod+2)^0,f,c
  7120  002876  0E00               	movlw	0
  7121  002878  1625               	andwf	(i2___flmul@prod+3)^0,f,c
  7122  00287A  A021               	btfss	i2___flmul@bexp^0,0,c
  7123  00287C  EF42  F014         	goto	i2u338_41
  7124  002880  EF44  F014         	goto	i2u338_40
  7125  002884                     i2u338_41:
  7126  002884  EF45  F014         	goto	i2l4757
  7127  002888                     i2u338_40:
  7128  002888  8E24               	bsf	(i2___flmul@prod+2)^0,7,c
  7129  00288A                     i2l4757:
  7130  00288A  90D8               	bcf	status,0,c
  7131  00288C  3021               	rrcf	i2___flmul@bexp^0,w,c
  7132  00288E  6E25               	movwf	(i2___flmul@prod+3)^0,c
  7133  002890                     i2l4759:
  7134  002890  501B               	movf	i2___flmul@sign^0,w,c
  7135  002892  1225               	iorwf	(i2___flmul@prod+3)^0,f,c
  7136  002894  C022  F00F         	movff	i2___flmul@prod,?i2___flmul
  7137  002898  C023  F010         	movff	i2___flmul@prod+1,?i2___flmul+1
  7138  00289C  C024  F011         	movff	i2___flmul@prod+2,?i2___flmul+2
  7139  0028A0  C025  F012         	movff	i2___flmul@prod+3,?i2___flmul+3
  7140  0028A4                     i2l2318:
  7141  0028A4  0012               	return		;funcret
  7142  0028A6                     __end_ofi2___flmul:
  7143                           	callstack 0
  7144                           
  7145 ;; *************** function i2_PWM6_LoadDutyValue *****************
  7146 ;; Defined at:
  7147 ;;		line 74 in file "mcc_generated_files/pwm6.c"
  7148 ;; Parameters:    Size  Location     Type
  7149 ;;  dutyValue       2    6[COMRAM] unsigned short 
  7150 ;; Auto vars:     Size  Location     Type
  7151 ;;		None
  7152 ;; Return value:  Size  Location     Type
  7153 ;;                  1    wreg      void 
  7154 ;; Registers used:
  7155 ;;		wreg, status,2, status,0
  7156 ;; Tracked objects:
  7157 ;;		On entry : 0/0
  7158 ;;		On exit  : 0/0
  7159 ;;		Unchanged: 0/0
  7160 ;; Data sizes:     COMRAM   BANK0   BANK1   BANK2   BANK3   BANK4   BANK5   BANK6   BANK7   BANK8   BANK9  BANK10  BANK1
      +1  BANK12  BANK13  BANK14  BANK15  BANK16  BANK17  BANK18  BANK19  BANK20  BANK21  BANK22  BANK23  BANK24  BANK25  BANK2
      +6  BANK27  BANK28  BANK29  BANK30  BANK31
  7161 ;;      Params:         2       0       0       0       0       0       0       0       0       0       0       0       
      +0       0       0       0       0       0       0       0       0       0       0       0       0       0       0       
      +0       0       0       0       0       0
  7162 ;;      Locals:         0       0       0       0       0       0       0       0       0       0       0       0       
      +0       0       0       0       0       0       0       0       0       0       0       0       0       0       0       
      +0       0       0       0       0       0
  7163 ;;      Temps:          2       0       0       0       0       0       0       0       0       0       0       0       
      +0       0       0       0       0       0       0       0       0       0       0       0       0       0       0       
      +0       0       0       0       0       0
  7164 ;;      Totals:         4       0       0       0       0       0       0       0       0       0       0       0       
      +0       0       0       0       0       0       0       0       0       0       0       0       0       0       0       
      +0       0       0       0       0       0
  7165 ;;Total ram usage:        4 bytes
  7166 ;; Hardware stack levels used: 1
  7167 ;; This function calls:
  7168 ;;		Nothing
  7169 ;; This function is called by:
  7170 ;;		_INTERRUPT_InterruptManager
  7171 ;;		_velocidadTransitorio
  7172 ;;		_actualizarEstadoMotor
  7173 ;; This function uses a non-reentrant model
  7174 ;;
  7175                           
  7176                           	psect	text41
  7177  004A2E                     __ptext41:
  7178                           	callstack 0
  7179  004A2E                     i2_PWM6_LoadDutyValue:
  7180                           	callstack 26
  7181  004A2E                     
  7182                           ;mcc_generated_files/pwm6.c: 74:  void PWM6_LoadDutyValue(uint16_t dutyValue);mcc_genera
      +                          ted_files/pwm6.c: 75:  {;mcc_generated_files/pwm6.c: 77:      PWM6DCH = (dutyValue & 0x0
      +                          3FC)>>2;
  7183  004A2E  C007  F009         	movff	i2PWM6_LoadDutyValue@dutyValue,??i2_PWM6_LoadDutyValue
  7184  004A32  C008  F00A         	movff	i2PWM6_LoadDutyValue@dutyValue+1,??i2_PWM6_LoadDutyValue+1
  7185  004A36  90D8               	bcf	status,0,c
  7186  004A38  320A               	rrcf	(??i2_PWM6_LoadDutyValue+1)^0,f,c
  7187  004A3A  3209               	rrcf	??i2_PWM6_LoadDutyValue^0,f,c
  7188  004A3C  90D8               	bcf	status,0,c
  7189  004A3E  320A               	rrcf	(??i2_PWM6_LoadDutyValue+1)^0,f,c
  7190  004A40  3209               	rrcf	??i2_PWM6_LoadDutyValue^0,f,c
  7191  004A42  5009               	movf	??i2_PWM6_LoadDutyValue^0,w,c
  7192  004A44  6E69               	movwf	105,c	;volatile
  7193                           
  7194                           ;mcc_generated_files/pwm6.c: 80:      PWM6DCL = (dutyValue & 0x0003)<<6;
  7195  004A46  C007  F009         	movff	i2PWM6_LoadDutyValue@dutyValue,??i2_PWM6_LoadDutyValue
  7196  004A4A  0E03               	movlw	3
  7197  004A4C  1609               	andwf	??i2_PWM6_LoadDutyValue^0,f,c
  7198  004A4E  0E06               	movlw	6
  7199  004A50  6E0A               	movwf	(??i2_PWM6_LoadDutyValue+1)^0,c
  7200  004A52                     i2u312_45:
  7201  004A52  90D8               	bcf	status,0,c
  7202  004A54  3609               	rlcf	??i2_PWM6_LoadDutyValue^0,f,c
  7203  004A56  2E0A               	decfsz	(??i2_PWM6_LoadDutyValue+1)^0,f,c
  7204  004A58  EF29  F025         	goto	i2u312_45
  7205  004A5C  5009               	movf	??i2_PWM6_LoadDutyValue^0,w,c
  7206  004A5E  6E68               	movwf	104,c	;volatile
  7207  004A60  0012               	return		;funcret
  7208  004A62                     __end_ofi2_PWM6_LoadDutyValue:
  7209                           	callstack 0
  7210                           
  7211 ;; *************** function ___wmul *****************
  7212 ;; Defined at:
  7213 ;;		line 15 in file "C:\Program Files\Microchip\xc8\v2.36\pic\sources\c99\common\Umul16.c"
  7214 ;; Parameters:    Size  Location     Type
  7215 ;;  multiplier      2    0[COMRAM] unsigned int 
  7216 ;;  multiplicand    2    2[COMRAM] unsigned int 
  7217 ;; Auto vars:     Size  Location     Type
  7218 ;;  product         2    4[COMRAM] unsigned int 
  7219 ;; Return value:  Size  Location     Type
  7220 ;;                  2    0[COMRAM] unsigned int 
  7221 ;; Registers used:
  7222 ;;		wreg, status,2, status,0, prodl, prodh
  7223 ;; Tracked objects:
  7224 ;;		On entry : 0/0
  7225 ;;		On exit  : 0/0
  7226 ;;		Unchanged: 0/0
  7227 ;; Data sizes:     COMRAM   BANK0   BANK1   BANK2   BANK3   BANK4   BANK5   BANK6   BANK7   BANK8   BANK9  BANK10  BANK1
      +1  BANK12  BANK13  BANK14  BANK15  BANK16  BANK17  BANK18  BANK19  BANK20  BANK21  BANK22  BANK23  BANK24  BANK25  BANK2
      +6  BANK27  BANK28  BANK29  BANK30  BANK31
  7228 ;;      Params:         4       0       0       0       0       0       0       0       0       0       0       0       
      +0       0       0       0       0       0       0       0       0       0       0       0       0       0       0       
      +0       0       0       0       0       0
  7229 ;;      Locals:         2       0       0       0       0       0       0       0       0       0       0       0       
      +0       0       0       0       0       0       0       0       0       0       0       0       0       0       0       
      +0       0       0       0       0       0
  7230 ;;      Temps:          0       0       0       0       0       0       0       0       0       0       0       0       
      +0       0       0       0       0       0       0       0       0       0       0       0       0       0       0       
      +0       0       0       0       0       0
  7231 ;;      Totals:         6       0       0       0       0       0       0       0       0       0       0       0       
      +0       0       0       0       0       0       0       0       0       0       0       0       0       0       0       
      +0       0       0       0       0       0
  7232 ;;Total ram usage:        6 bytes
  7233 ;; Hardware stack levels used: 1
  7234 ;; This function calls:
  7235 ;;		Nothing
  7236 ;; This function is called by:
  7237 ;;		_velocidadTransitorio
  7238 ;; This function uses a non-reentrant model
  7239 ;;
  7240                           
  7241                           	psect	text42
  7242  004AC6                     __ptext42:
  7243                           	callstack 0
  7244  004AC6                     ___wmul:
  7245                           	callstack 24
  7246  004AC6  5001               	movf	___wmul@multiplier^0,w,c
  7247  004AC8  0203               	mulwf	___wmul@multiplicand^0,c
  7248  004ACA  006F FFCC  F005    	movff	prodl,___wmul@product
  7249  004AD0  006F FFD0  F006    	movff	prodh,___wmul@product+1
  7250  004AD6  5001               	movf	___wmul@multiplier^0,w,c
  7251  004AD8  0204               	mulwf	(___wmul@multiplicand+1)^0,c
  7252  004ADA  50F3               	movf	243,w,c
  7253  004ADC  2606               	addwf	(___wmul@product+1)^0,f,c
  7254  004ADE  5002               	movf	(___wmul@multiplier+1)^0,w,c
  7255  004AE0  0203               	mulwf	___wmul@multiplicand^0,c
  7256  004AE2  50F3               	movf	243,w,c
  7257  004AE4  2606               	addwf	(___wmul@product+1)^0,f,c
  7258  004AE6  C005  F001         	movff	___wmul@product,?___wmul
  7259  004AEA  C006  F002         	movff	___wmul@product+1,?___wmul+1
  7260  004AEE  0012               	return		;funcret
  7261  004AF0                     __end_of___wmul:
  7262                           	callstack 0
  7263                           
  7264 ;; *************** function _startUpReverseMode *****************
  7265 ;; Defined at:
  7266 ;;		line 42 in file "DirCCW.c"
  7267 ;; Parameters:    Size  Location     Type
  7268 ;;		None
  7269 ;; Auto vars:     Size  Location     Type
  7270 ;;		None
  7271 ;; Return value:  Size  Location     Type
  7272 ;;                  1    wreg      void 
  7273 ;; Registers used:
  7274 ;;		None
  7275 ;; Tracked objects:
  7276 ;;		On entry : 0/0
  7277 ;;		On exit  : 0/0
  7278 ;;		Unchanged: 0/0
  7279 ;; Data sizes:     COMRAM   BANK0   BANK1   BANK2   BANK3   BANK4   BANK5   BANK6   BANK7   BANK8   BANK9  BANK10  BANK1
      +1  BANK12  BANK13  BANK14  BANK15  BANK16  BANK17  BANK18  BANK19  BANK20  BANK21  BANK22  BANK23  BANK24  BANK25  BANK2
      +6  BANK27  BANK28  BANK29  BANK30  BANK31
  7280 ;;      Params:         0       0       0       0       0       0       0       0       0       0       0       0       
      +0       0       0       0       0       0       0       0       0       0       0       0       0       0       0       
      +0       0       0       0       0       0
  7281 ;;      Locals:         0       0       0       0       0       0       0       0       0       0       0       0       
      +0       0       0       0       0       0       0       0       0       0       0       0       0       0       0       
      +0       0       0       0       0       0
  7282 ;;      Temps:          0       0       0       0       0       0       0       0       0       0       0       0       
      +0       0       0       0       0       0       0       0       0       0       0       0       0       0       0       
      +0       0       0       0       0       0
  7283 ;;      Totals:         0       0       0       0       0       0       0       0       0       0       0       0       
      +0       0       0       0       0       0       0       0       0       0       0       0       0       0       0       
      +0       0       0       0       0       0
  7284 ;;Total ram usage:        0 bytes
  7285 ;; Hardware stack levels used: 1
  7286 ;; This function calls:
  7287 ;;		Nothing
  7288 ;; This function is called by:
  7289 ;;		_actualizarEstadoMotor
  7290 ;; This function uses a non-reentrant model
  7291 ;;
  7292                           
  7293                           	psect	text43
  7294  003B7A                     __ptext43:
  7295                           	callstack 0
  7296  003B7A                     _startUpReverseMode:
  7297                           	callstack 25
  7298  003B7A                     
  7299                           ;DirCCW.c: 43:     if (PORTDbits.RD6 == 1 &&
  7300  003B7A  ACCD               	btfss	205,6,c	;volatile
  7301  003B7C  EFC2  F01D         	goto	i2u350_41
  7302  003B80  EFC4  F01D         	goto	i2u350_40
  7303  003B84                     i2u350_41:
  7304  003B84  EFDE  F01D         	goto	i2l1339
  7305  003B88                     i2u350_40:
  7306  003B88  AACD               	btfss	205,5,c	;volatile
  7307  003B8A  EFC9  F01D         	goto	i2u351_41
  7308  003B8E  EFCB  F01D         	goto	i2u351_40
  7309  003B92                     i2u351_41:
  7310  003B92  EFDE  F01D         	goto	i2l1339
  7311  003B96                     i2u351_40:
  7312  003B96  B8CD               	btfsc	205,4,c	;volatile
  7313  003B98  EFD0  F01D         	goto	i2u352_41
  7314  003B9C  EFD2  F01D         	goto	i2u352_40
  7315  003BA0                     i2u352_41:
  7316  003BA0  EFDE  F01D         	goto	i2l1339
  7317  003BA4                     i2u352_40:
  7318  003BA4                     
  7319                           ;DirCCW.c: 45:             PORTDbits.RD4 == 0) {;DirCCW.c: 48:         CWG1STRbits.OVRB 
      +                          = 0;
  7320  003BA4  013F               	movlb	63	; () banked
  7321  003BA6  9B5A               	bcf	90,5,b	;volatile
  7322                           
  7323                           ;DirCCW.c: 49:         CWG1STRbits.STRB = 0;
  7324  003BA8  935A               	bcf	90,1,b	;volatile
  7325                           
  7326                           ;DirCCW.c: 52:         CWG1STRbits.OVRA = 0;
  7327  003BAA  995A               	bcf	90,4,b	;volatile
  7328                           
  7329                           ;DirCCW.c: 53:         CWG1STRbits.STRA = 0;
  7330  003BAC  915A               	bcf	90,0,b	;volatile
  7331                           
  7332                           ;DirCCW.c: 56:         CWG2STRbits.STRB = 1;
  7333  003BAE  8351               	bsf	81,1,b	;volatile
  7334                           
  7335                           ;DirCCW.c: 59:         CWG2STRbits.OVRA = 0;
  7336  003BB0  9951               	bcf	81,4,b	;volatile
  7337                           
  7338                           ;DirCCW.c: 60:         CWG2STRbits.STRA = 0;
  7339  003BB2  9151               	bcf	81,0,b	;volatile
  7340                           
  7341                           ;DirCCW.c: 63:         CWG3STRbits.OVRA = 0;
  7342  003BB4  9948               	bcf	72,4,b	;volatile
  7343                           
  7344                           ;DirCCW.c: 64:         CWG3STRbits.STRA = 0;
  7345  003BB6  9148               	bcf	72,0,b	;volatile
  7346                           
  7347                           ;DirCCW.c: 67:         CWG3STRbits.OVRB = 1;
  7348  003BB8  8B48               	bsf	72,5,b	;volatile
  7349                           
  7350                           ;DirCCW.c: 68:         CWG3STRbits.STRB = 0;
  7351  003BBA  9348               	bcf	72,1,b	;volatile
  7352  003BBC                     i2l1339:
  7353                           
  7354                           ;DirCCW.c: 72:     if (PORTDbits.RD6 == 1 &&
  7355  003BBC  ACCD               	btfss	205,6,c	;volatile
  7356  003BBE  EFE3  F01D         	goto	i2u353_41
  7357  003BC2  EFE5  F01D         	goto	i2u353_40
  7358  003BC6                     i2u353_41:
  7359  003BC6  EFFF  F01D         	goto	i2l1340
  7360  003BCA                     i2u353_40:
  7361  003BCA  BACD               	btfsc	205,5,c	;volatile
  7362  003BCC  EFEA  F01D         	goto	i2u354_41
  7363  003BD0  EFEC  F01D         	goto	i2u354_40
  7364  003BD4                     i2u354_41:
  7365  003BD4  EFFF  F01D         	goto	i2l1340
  7366  003BD8                     i2u354_40:
  7367  003BD8  B8CD               	btfsc	205,4,c	;volatile
  7368  003BDA  EFF1  F01D         	goto	i2u355_41
  7369  003BDE  EFF3  F01D         	goto	i2u355_40
  7370  003BE2                     i2u355_41:
  7371  003BE2  EFFF  F01D         	goto	i2l1340
  7372  003BE6                     i2u355_40:
  7373  003BE6                     
  7374                           ;DirCCW.c: 74:             PORTDbits.RD4 == 0) {;DirCCW.c: 77:         CWG1STRbits.STRB 
      +                          = 1;
  7375  003BE6  013F               	movlb	63	; () banked
  7376  003BE8  835A               	bsf	90,1,b	;volatile
  7377                           
  7378                           ;DirCCW.c: 80:         CWG1STRbits.OVRA = 0;
  7379  003BEA  995A               	bcf	90,4,b	;volatile
  7380                           
  7381                           ;DirCCW.c: 81:         CWG1STRbits.STRA = 0;
  7382  003BEC  915A               	bcf	90,0,b	;volatile
  7383                           
  7384                           ;DirCCW.c: 84:         CWG2STRbits.OVRB = 0;
  7385  003BEE  9B51               	bcf	81,5,b	;volatile
  7386                           
  7387                           ;DirCCW.c: 85:         CWG2STRbits.STRB = 0;
  7388  003BF0  9351               	bcf	81,1,b	;volatile
  7389                           
  7390                           ;DirCCW.c: 88:         CWG2STRbits.OVRA = 0;
  7391  003BF2  9951               	bcf	81,4,b	;volatile
  7392                           
  7393                           ;DirCCW.c: 89:         CWG2STRbits.STRA = 0;
  7394  003BF4  9151               	bcf	81,0,b	;volatile
  7395                           
  7396                           ;DirCCW.c: 92:         CWG3STRbits.OVRA = 0;
  7397  003BF6  9948               	bcf	72,4,b	;volatile
  7398                           
  7399                           ;DirCCW.c: 93:         CWG3STRbits.STRA = 0;
  7400  003BF8  9148               	bcf	72,0,b	;volatile
  7401                           
  7402                           ;DirCCW.c: 96:         CWG3STRbits.OVRB = 1;
  7403  003BFA  8B48               	bsf	72,5,b	;volatile
  7404                           
  7405                           ;DirCCW.c: 97:         CWG3STRbits.STRB = 0;
  7406  003BFC  9348               	bcf	72,1,b	;volatile
  7407  003BFE                     i2l1340:
  7408                           
  7409                           ;DirCCW.c: 101:     if (PORTDbits.RD6 == 1 &&
  7410  003BFE  ACCD               	btfss	205,6,c	;volatile
  7411  003C00  EF04  F01E         	goto	i2u356_41
  7412  003C04  EF06  F01E         	goto	i2u356_40
  7413  003C08                     i2u356_41:
  7414  003C08  EF20  F01E         	goto	i2l1341
  7415  003C0C                     i2u356_40:
  7416  003C0C  BACD               	btfsc	205,5,c	;volatile
  7417  003C0E  EF0B  F01E         	goto	i2u357_41
  7418  003C12  EF0D  F01E         	goto	i2u357_40
  7419  003C16                     i2u357_41:
  7420  003C16  EF20  F01E         	goto	i2l1341
  7421  003C1A                     i2u357_40:
  7422  003C1A  A8CD               	btfss	205,4,c	;volatile
  7423  003C1C  EF12  F01E         	goto	i2u358_41
  7424  003C20  EF14  F01E         	goto	i2u358_40
  7425  003C24                     i2u358_41:
  7426  003C24  EF20  F01E         	goto	i2l1341
  7427  003C28                     i2u358_40:
  7428  003C28                     
  7429                           ;DirCCW.c: 103:             PORTDbits.RD4 == 1) {;DirCCW.c: 105:         CWG1STRbits.STR
      +                          B = 1;
  7430  003C28  013F               	movlb	63	; () banked
  7431  003C2A  835A               	bsf	90,1,b	;volatile
  7432                           
  7433                           ;DirCCW.c: 108:         CWG1STRbits.OVRA = 0;
  7434  003C2C  995A               	bcf	90,4,b	;volatile
  7435                           
  7436                           ;DirCCW.c: 109:         CWG1STRbits.STRA = 0;
  7437  003C2E  915A               	bcf	90,0,b	;volatile
  7438                           
  7439                           ;DirCCW.c: 112:         CWG2STRbits.OVRB = 0;
  7440  003C30  9B51               	bcf	81,5,b	;volatile
  7441                           
  7442                           ;DirCCW.c: 113:         CWG2STRbits.STRB = 0;
  7443  003C32  9351               	bcf	81,1,b	;volatile
  7444                           
  7445                           ;DirCCW.c: 116:         CWG2STRbits.OVRA = 1;
  7446  003C34  8951               	bsf	81,4,b	;volatile
  7447                           
  7448                           ;DirCCW.c: 117:         CWG2STRbits.STRA = 0;
  7449  003C36  9151               	bcf	81,0,b	;volatile
  7450                           
  7451                           ;DirCCW.c: 120:         CWG3STRbits.OVRA = 0;
  7452  003C38  9948               	bcf	72,4,b	;volatile
  7453                           
  7454                           ;DirCCW.c: 121:         CWG3STRbits.STRA = 0;
  7455  003C3A  9148               	bcf	72,0,b	;volatile
  7456                           
  7457                           ;DirCCW.c: 124:         CWG3STRbits.OVRB = 0;
  7458  003C3C  9B48               	bcf	72,5,b	;volatile
  7459                           
  7460                           ;DirCCW.c: 125:         CWG3STRbits.STRB = 0;
  7461  003C3E  9348               	bcf	72,1,b	;volatile
  7462  003C40                     i2l1341:
  7463                           
  7464                           ;DirCCW.c: 129:     if (PORTDbits.RD6 == 0 &&
  7465  003C40  BCCD               	btfsc	205,6,c	;volatile
  7466  003C42  EF25  F01E         	goto	i2u359_41
  7467  003C46  EF27  F01E         	goto	i2u359_40
  7468  003C4A                     i2u359_41:
  7469  003C4A  EF41  F01E         	goto	i2l1342
  7470  003C4E                     i2u359_40:
  7471  003C4E  BACD               	btfsc	205,5,c	;volatile
  7472  003C50  EF2C  F01E         	goto	i2u360_41
  7473  003C54  EF2E  F01E         	goto	i2u360_40
  7474  003C58                     i2u360_41:
  7475  003C58  EF41  F01E         	goto	i2l1342
  7476  003C5C                     i2u360_40:
  7477  003C5C  A8CD               	btfss	205,4,c	;volatile
  7478  003C5E  EF33  F01E         	goto	i2u361_41
  7479  003C62  EF35  F01E         	goto	i2u361_40
  7480  003C66                     i2u361_41:
  7481  003C66  EF41  F01E         	goto	i2l1342
  7482  003C6A                     i2u361_40:
  7483  003C6A                     
  7484                           ;DirCCW.c: 131:             PORTDbits.RD4 == 1) {;DirCCW.c: 133:         CWG1STRbits.OVR
      +                          B = 0;
  7485  003C6A  013F               	movlb	63	; () banked
  7486  003C6C  9B5A               	bcf	90,5,b	;volatile
  7487                           
  7488                           ;DirCCW.c: 134:         CWG1STRbits.STRB = 0;
  7489  003C6E  935A               	bcf	90,1,b	;volatile
  7490                           
  7491                           ;DirCCW.c: 137:         CWG1STRbits.OVRA = 0;
  7492  003C70  995A               	bcf	90,4,b	;volatile
  7493                           
  7494                           ;DirCCW.c: 138:         CWG1STRbits.STRA = 0;
  7495  003C72  915A               	bcf	90,0,b	;volatile
  7496                           
  7497                           ;DirCCW.c: 141:         CWG2STRbits.OVRB = 0;
  7498  003C74  9B51               	bcf	81,5,b	;volatile
  7499                           
  7500                           ;DirCCW.c: 142:         CWG2STRbits.STRB = 0;
  7501  003C76  9351               	bcf	81,1,b	;volatile
  7502                           
  7503                           ;DirCCW.c: 145:         CWG2STRbits.OVRA = 1;
  7504  003C78  8951               	bsf	81,4,b	;volatile
  7505                           
  7506                           ;DirCCW.c: 146:         CWG2STRbits.STRA = 0;
  7507  003C7A  9151               	bcf	81,0,b	;volatile
  7508                           
  7509                           ;DirCCW.c: 149:         CWG3STRbits.STRA = 1;
  7510  003C7C  8148               	bsf	72,0,b	;volatile
  7511                           
  7512                           ;DirCCW.c: 152:         CWG3STRbits.OVRB = 0;
  7513  003C7E  9B48               	bcf	72,5,b	;volatile
  7514                           
  7515                           ;DirCCW.c: 153:         CWG3STRbits.STRB = 0;
  7516  003C80  9348               	bcf	72,1,b	;volatile
  7517  003C82                     i2l1342:
  7518                           
  7519                           ;DirCCW.c: 156:     if (PORTDbits.RD6 == 0 &&
  7520  003C82  BCCD               	btfsc	205,6,c	;volatile
  7521  003C84  EF46  F01E         	goto	i2u362_41
  7522  003C88  EF48  F01E         	goto	i2u362_40
  7523  003C8C                     i2u362_41:
  7524  003C8C  EF62  F01E         	goto	i2l1343
  7525  003C90                     i2u362_40:
  7526  003C90  AACD               	btfss	205,5,c	;volatile
  7527  003C92  EF4D  F01E         	goto	i2u363_41
  7528  003C96  EF4F  F01E         	goto	i2u363_40
  7529  003C9A                     i2u363_41:
  7530  003C9A  EF62  F01E         	goto	i2l1343
  7531  003C9E                     i2u363_40:
  7532  003C9E  A8CD               	btfss	205,4,c	;volatile
  7533  003CA0  EF54  F01E         	goto	i2u364_41
  7534  003CA4  EF56  F01E         	goto	i2u364_40
  7535  003CA8                     i2u364_41:
  7536  003CA8  EF62  F01E         	goto	i2l1343
  7537  003CAC                     i2u364_40:
  7538  003CAC                     
  7539                           ;DirCCW.c: 158:             PORTDbits.RD4 == 1) {;DirCCW.c: 160:         CWG1STRbits.OVR
      +                          B = 0;
  7540  003CAC  013F               	movlb	63	; () banked
  7541  003CAE  9B5A               	bcf	90,5,b	;volatile
  7542                           
  7543                           ;DirCCW.c: 161:         CWG1STRbits.STRB = 0;
  7544  003CB0  935A               	bcf	90,1,b	;volatile
  7545                           
  7546                           ;DirCCW.c: 164:         CWG1STRbits.OVRA = 1;
  7547  003CB2  895A               	bsf	90,4,b	;volatile
  7548                           
  7549                           ;DirCCW.c: 165:         CWG1STRbits.STRA = 0;
  7550  003CB4  915A               	bcf	90,0,b	;volatile
  7551                           
  7552                           ;DirCCW.c: 168:         CWG2STRbits.OVRB = 0;
  7553  003CB6  9B51               	bcf	81,5,b	;volatile
  7554                           
  7555                           ;DirCCW.c: 169:         CWG2STRbits.STRB = 0;
  7556  003CB8  9351               	bcf	81,1,b	;volatile
  7557                           
  7558                           ;DirCCW.c: 172:         CWG2STRbits.OVRA = 0;
  7559  003CBA  9951               	bcf	81,4,b	;volatile
  7560                           
  7561                           ;DirCCW.c: 173:         CWG2STRbits.STRA = 0;
  7562  003CBC  9151               	bcf	81,0,b	;volatile
  7563                           
  7564                           ;DirCCW.c: 176:         CWG3STRbits.STRA = 1;
  7565  003CBE  8148               	bsf	72,0,b	;volatile
  7566                           
  7567                           ;DirCCW.c: 179:         CWG3STRbits.OVRB = 0;
  7568  003CC0  9B48               	bcf	72,5,b	;volatile
  7569                           
  7570                           ;DirCCW.c: 180:         CWG3STRbits.STRB = 0;
  7571  003CC2  9348               	bcf	72,1,b	;volatile
  7572  003CC4                     i2l1343:
  7573                           
  7574                           ;DirCCW.c: 183:     if (PORTDbits.RD6 == 0 &&
  7575  003CC4  BCCD               	btfsc	205,6,c	;volatile
  7576  003CC6  EF67  F01E         	goto	i2u365_41
  7577  003CCA  EF69  F01E         	goto	i2u365_40
  7578  003CCE                     i2u365_41:
  7579  003CCE  EF83  F01E         	goto	i2l1345
  7580  003CD2                     i2u365_40:
  7581  003CD2  AACD               	btfss	205,5,c	;volatile
  7582  003CD4  EF6E  F01E         	goto	i2u366_41
  7583  003CD8  EF70  F01E         	goto	i2u366_40
  7584  003CDC                     i2u366_41:
  7585  003CDC  EF83  F01E         	goto	i2l1345
  7586  003CE0                     i2u366_40:
  7587  003CE0  B8CD               	btfsc	205,4,c	;volatile
  7588  003CE2  EF75  F01E         	goto	i2u367_41
  7589  003CE6  EF77  F01E         	goto	i2u367_40
  7590  003CEA                     i2u367_41:
  7591  003CEA  EF83  F01E         	goto	i2l1345
  7592  003CEE                     i2u367_40:
  7593  003CEE                     
  7594                           ;DirCCW.c: 185:             PORTDbits.RD4 == 0) {;DirCCW.c: 187:         CWG1STRbits.OVR
      +                          B = 0;
  7595  003CEE  013F               	movlb	63	; () banked
  7596  003CF0  9B5A               	bcf	90,5,b	;volatile
  7597                           
  7598                           ;DirCCW.c: 188:         CWG1STRbits.STRB = 0;
  7599  003CF2  935A               	bcf	90,1,b	;volatile
  7600                           
  7601                           ;DirCCW.c: 191:         CWG1STRbits.OVRA = 1;
  7602  003CF4  895A               	bsf	90,4,b	;volatile
  7603                           
  7604                           ;DirCCW.c: 192:         CWG1STRbits.STRA = 0;
  7605  003CF6  915A               	bcf	90,0,b	;volatile
  7606                           
  7607                           ;DirCCW.c: 195:         CWG2STRbits.STRB = 1;
  7608  003CF8  8351               	bsf	81,1,b	;volatile
  7609                           
  7610                           ;DirCCW.c: 198:         CWG2STRbits.OVRA = 0;
  7611  003CFA  9951               	bcf	81,4,b	;volatile
  7612                           
  7613                           ;DirCCW.c: 199:         CWG2STRbits.STRA = 0;
  7614  003CFC  9151               	bcf	81,0,b	;volatile
  7615                           
  7616                           ;DirCCW.c: 202:         CWG3STRbits.OVRA = 0;
  7617  003CFE  9948               	bcf	72,4,b	;volatile
  7618                           
  7619                           ;DirCCW.c: 203:         CWG3STRbits.STRA = 0;
  7620  003D00  9148               	bcf	72,0,b	;volatile
  7621                           
  7622                           ;DirCCW.c: 206:         CWG3STRbits.OVRB = 0;
  7623  003D02  9B48               	bcf	72,5,b	;volatile
  7624                           
  7625                           ;DirCCW.c: 207:         CWG3STRbits.STRB = 0;
  7626  003D04  9348               	bcf	72,1,b	;volatile
  7627  003D06                     i2l1345:
  7628  003D06  0012               	return		;funcret
  7629  003D08                     __end_of_startUpReverseMode:
  7630                           	callstack 0
  7631                           
  7632 ;; *************** function _startUpForwardMode *****************
  7633 ;; Defined at:
  7634 ;;		line 17 in file "DirCW.c"
  7635 ;; Parameters:    Size  Location     Type
  7636 ;;		None
  7637 ;; Auto vars:     Size  Location     Type
  7638 ;;		None
  7639 ;; Return value:  Size  Location     Type
  7640 ;;                  1    wreg      void 
  7641 ;; Registers used:
  7642 ;;		None
  7643 ;; Tracked objects:
  7644 ;;		On entry : 0/0
  7645 ;;		On exit  : 0/0
  7646 ;;		Unchanged: 0/0
  7647 ;; Data sizes:     COMRAM   BANK0   BANK1   BANK2   BANK3   BANK4   BANK5   BANK6   BANK7   BANK8   BANK9  BANK10  BANK1
      +1  BANK12  BANK13  BANK14  BANK15  BANK16  BANK17  BANK18  BANK19  BANK20  BANK21  BANK22  BANK23  BANK24  BANK25  BANK2
      +6  BANK27  BANK28  BANK29  BANK30  BANK31
  7648 ;;      Params:         0       0       0       0       0       0       0       0       0       0       0       0       
      +0       0       0       0       0       0       0       0       0       0       0       0       0       0       0       
      +0       0       0       0       0       0
  7649 ;;      Locals:         0       0       0       0       0       0       0       0       0       0       0       0       
      +0       0       0       0       0       0       0       0       0       0       0       0       0       0       0       
      +0       0       0       0       0       0
  7650 ;;      Temps:          0       0       0       0       0       0       0       0       0       0       0       0       
      +0       0       0       0       0       0       0       0       0       0       0       0       0       0       0       
      +0       0       0       0       0       0
  7651 ;;      Totals:         0       0       0       0       0       0       0       0       0       0       0       0       
      +0       0       0       0       0       0       0       0       0       0       0       0       0       0       0       
      +0       0       0       0       0       0
  7652 ;;Total ram usage:        0 bytes
  7653 ;; Hardware stack levels used: 1
  7654 ;; This function calls:
  7655 ;;		Nothing
  7656 ;; This function is called by:
  7657 ;;		_actualizarEstadoMotor
  7658 ;; This function uses a non-reentrant model
  7659 ;;
  7660                           
  7661                           	psect	text44
  7662  003D08                     __ptext44:
  7663                           	callstack 0
  7664  003D08                     _startUpForwardMode:
  7665                           	callstack 25
  7666  003D08                     
  7667                           ;DirCW.c: 18:     if (PORTDbits.RD6 == 0 &&
  7668  003D08  BCCD               	btfsc	205,6,c	;volatile
  7669  003D0A  EF89  F01E         	goto	i2u392_41
  7670  003D0E  EF8B  F01E         	goto	i2u392_40
  7671  003D12                     i2u392_41:
  7672  003D12  EFA5  F01E         	goto	i2l1401
  7673  003D16                     i2u392_40:
  7674  003D16  BACD               	btfsc	205,5,c	;volatile
  7675  003D18  EF90  F01E         	goto	i2u393_41
  7676  003D1C  EF92  F01E         	goto	i2u393_40
  7677  003D20                     i2u393_41:
  7678  003D20  EFA5  F01E         	goto	i2l1401
  7679  003D24                     i2u393_40:
  7680  003D24  A8CD               	btfss	205,4,c	;volatile
  7681  003D26  EF97  F01E         	goto	i2u394_41
  7682  003D2A  EF99  F01E         	goto	i2u394_40
  7683  003D2E                     i2u394_41:
  7684  003D2E  EFA5  F01E         	goto	i2l1401
  7685  003D32                     i2u394_40:
  7686  003D32                     
  7687                           ;DirCW.c: 20:             PORTDbits.RD4 == 1) {;DirCW.c: 23:         CWG1STRbits.OVRB = 
      +                          0;
  7688  003D32  013F               	movlb	63	; () banked
  7689  003D34  9B5A               	bcf	90,5,b	;volatile
  7690                           
  7691                           ;DirCW.c: 24:         CWG1STRbits.STRB = 0;
  7692  003D36  935A               	bcf	90,1,b	;volatile
  7693                           
  7694                           ;DirCW.c: 27:         CWG1STRbits.OVRA = 0;
  7695  003D38  995A               	bcf	90,4,b	;volatile
  7696                           
  7697                           ;DirCW.c: 28:         CWG1STRbits.STRA = 0;
  7698  003D3A  915A               	bcf	90,0,b	;volatile
  7699                           
  7700                           ;DirCW.c: 31:         CWG2STRbits.STRB = 1;
  7701  003D3C  8351               	bsf	81,1,b	;volatile
  7702                           
  7703                           ;DirCW.c: 34:         CWG2STRbits.OVRA = 0;
  7704  003D3E  9951               	bcf	81,4,b	;volatile
  7705                           
  7706                           ;DirCW.c: 35:         CWG2STRbits.STRA = 0;
  7707  003D40  9151               	bcf	81,0,b	;volatile
  7708                           
  7709                           ;DirCW.c: 38:         CWG3STRbits.OVRA = 0;
  7710  003D42  9948               	bcf	72,4,b	;volatile
  7711                           
  7712                           ;DirCW.c: 39:         CWG3STRbits.STRA = 0;
  7713  003D44  9148               	bcf	72,0,b	;volatile
  7714                           
  7715                           ;DirCW.c: 42:         CWG3STRbits.OVRB = 1;
  7716  003D46  8B48               	bsf	72,5,b	;volatile
  7717                           
  7718                           ;DirCW.c: 43:         CWG3STRbits.STRB = 0;
  7719  003D48  9348               	bcf	72,1,b	;volatile
  7720  003D4A                     i2l1401:
  7721                           
  7722                           ;DirCW.c: 47:     if (PORTDbits.RD6 == 0 &&
  7723  003D4A  BCCD               	btfsc	205,6,c	;volatile
  7724  003D4C  EFAA  F01E         	goto	i2u395_41
  7725  003D50  EFAC  F01E         	goto	i2u395_40
  7726  003D54                     i2u395_41:
  7727  003D54  EFC6  F01E         	goto	i2l1402
  7728  003D58                     i2u395_40:
  7729  003D58  AACD               	btfss	205,5,c	;volatile
  7730  003D5A  EFB1  F01E         	goto	i2u396_41
  7731  003D5E  EFB3  F01E         	goto	i2u396_40
  7732  003D62                     i2u396_41:
  7733  003D62  EFC6  F01E         	goto	i2l1402
  7734  003D66                     i2u396_40:
  7735  003D66  A8CD               	btfss	205,4,c	;volatile
  7736  003D68  EFB8  F01E         	goto	i2u397_41
  7737  003D6C  EFBA  F01E         	goto	i2u397_40
  7738  003D70                     i2u397_41:
  7739  003D70  EFC6  F01E         	goto	i2l1402
  7740  003D74                     i2u397_40:
  7741  003D74                     
  7742                           ;DirCW.c: 49:             PORTDbits.RD4 == 1) {;DirCW.c: 52:         CWG1STRbits.STRB = 
      +                          1;
  7743  003D74  013F               	movlb	63	; () banked
  7744  003D76  835A               	bsf	90,1,b	;volatile
  7745                           
  7746                           ;DirCW.c: 55:         CWG1STRbits.OVRA = 0;
  7747  003D78  995A               	bcf	90,4,b	;volatile
  7748                           
  7749                           ;DirCW.c: 56:         CWG1STRbits.STRA = 0;
  7750  003D7A  915A               	bcf	90,0,b	;volatile
  7751                           
  7752                           ;DirCW.c: 59:         CWG2STRbits.OVRB = 0;
  7753  003D7C  9B51               	bcf	81,5,b	;volatile
  7754                           
  7755                           ;DirCW.c: 60:         CWG2STRbits.STRB = 0;
  7756  003D7E  9351               	bcf	81,1,b	;volatile
  7757                           
  7758                           ;DirCW.c: 63:         CWG2STRbits.OVRA = 0;
  7759  003D80  9951               	bcf	81,4,b	;volatile
  7760                           
  7761                           ;DirCW.c: 64:         CWG2STRbits.STRA = 0;
  7762  003D82  9151               	bcf	81,0,b	;volatile
  7763                           
  7764                           ;DirCW.c: 67:         CWG3STRbits.OVRA = 0;
  7765  003D84  9948               	bcf	72,4,b	;volatile
  7766                           
  7767                           ;DirCW.c: 68:         CWG3STRbits.STRA = 0;
  7768  003D86  9148               	bcf	72,0,b	;volatile
  7769                           
  7770                           ;DirCW.c: 71:         CWG3STRbits.OVRB = 1;
  7771  003D88  8B48               	bsf	72,5,b	;volatile
  7772                           
  7773                           ;DirCW.c: 72:         CWG3STRbits.STRB = 0;
  7774  003D8A  9348               	bcf	72,1,b	;volatile
  7775  003D8C                     i2l1402:
  7776                           
  7777                           ;DirCW.c: 76:     if (PORTDbits.RD6 == 0 &&
  7778  003D8C  BCCD               	btfsc	205,6,c	;volatile
  7779  003D8E  EFCB  F01E         	goto	i2u398_41
  7780  003D92  EFCD  F01E         	goto	i2u398_40
  7781  003D96                     i2u398_41:
  7782  003D96  EFE7  F01E         	goto	i2l1403
  7783  003D9A                     i2u398_40:
  7784  003D9A  AACD               	btfss	205,5,c	;volatile
  7785  003D9C  EFD2  F01E         	goto	i2u399_41
  7786  003DA0  EFD4  F01E         	goto	i2u399_40
  7787  003DA4                     i2u399_41:
  7788  003DA4  EFE7  F01E         	goto	i2l1403
  7789  003DA8                     i2u399_40:
  7790  003DA8  B8CD               	btfsc	205,4,c	;volatile
  7791  003DAA  EFD9  F01E         	goto	i2u400_41
  7792  003DAE  EFDB  F01E         	goto	i2u400_40
  7793  003DB2                     i2u400_41:
  7794  003DB2  EFE7  F01E         	goto	i2l1403
  7795  003DB6                     i2u400_40:
  7796  003DB6                     
  7797                           ;DirCW.c: 78:             PORTDbits.RD4 == 0) {;DirCW.c: 80:         CWG1STRbits.STRB = 
      +                          1;
  7798  003DB6  013F               	movlb	63	; () banked
  7799  003DB8  835A               	bsf	90,1,b	;volatile
  7800                           
  7801                           ;DirCW.c: 83:         CWG1STRbits.OVRA = 0;
  7802  003DBA  995A               	bcf	90,4,b	;volatile
  7803                           
  7804                           ;DirCW.c: 84:         CWG1STRbits.STRA = 0;
  7805  003DBC  915A               	bcf	90,0,b	;volatile
  7806                           
  7807                           ;DirCW.c: 87:         CWG2STRbits.OVRB = 0;
  7808  003DBE  9B51               	bcf	81,5,b	;volatile
  7809                           
  7810                           ;DirCW.c: 88:         CWG2STRbits.STRB = 0;
  7811  003DC0  9351               	bcf	81,1,b	;volatile
  7812                           
  7813                           ;DirCW.c: 91:         CWG2STRbits.OVRA = 1;
  7814  003DC2  8951               	bsf	81,4,b	;volatile
  7815                           
  7816                           ;DirCW.c: 92:         CWG2STRbits.STRA = 0;
  7817  003DC4  9151               	bcf	81,0,b	;volatile
  7818                           
  7819                           ;DirCW.c: 95:         CWG3STRbits.OVRA = 0;
  7820  003DC6  9948               	bcf	72,4,b	;volatile
  7821                           
  7822                           ;DirCW.c: 96:         CWG3STRbits.STRA = 0;
  7823  003DC8  9148               	bcf	72,0,b	;volatile
  7824                           
  7825                           ;DirCW.c: 99:         CWG3STRbits.OVRB = 0;
  7826  003DCA  9B48               	bcf	72,5,b	;volatile
  7827                           
  7828                           ;DirCW.c: 100:         CWG3STRbits.STRB = 0;
  7829  003DCC  9348               	bcf	72,1,b	;volatile
  7830  003DCE                     i2l1403:
  7831                           
  7832                           ;DirCW.c: 104:     if (PORTDbits.RD6 == 01 &&
  7833  003DCE  ACCD               	btfss	205,6,c	;volatile
  7834  003DD0  EFEC  F01E         	goto	i2u401_41
  7835  003DD4  EFEE  F01E         	goto	i2u401_40
  7836  003DD8                     i2u401_41:
  7837  003DD8  EF08  F01F         	goto	i2l1404
  7838  003DDC                     i2u401_40:
  7839  003DDC  AACD               	btfss	205,5,c	;volatile
  7840  003DDE  EFF3  F01E         	goto	i2u402_41
  7841  003DE2  EFF5  F01E         	goto	i2u402_40
  7842  003DE6                     i2u402_41:
  7843  003DE6  EF08  F01F         	goto	i2l1404
  7844  003DEA                     i2u402_40:
  7845  003DEA  B8CD               	btfsc	205,4,c	;volatile
  7846  003DEC  EFFA  F01E         	goto	i2u403_41
  7847  003DF0  EFFC  F01E         	goto	i2u403_40
  7848  003DF4                     i2u403_41:
  7849  003DF4  EF08  F01F         	goto	i2l1404
  7850  003DF8                     i2u403_40:
  7851  003DF8                     
  7852                           ;DirCW.c: 106:             PORTDbits.RD4 == 0) {;DirCW.c: 108:         CWG1STRbits.OVRB 
      +                          = 0;
  7853  003DF8  013F               	movlb	63	; () banked
  7854  003DFA  9B5A               	bcf	90,5,b	;volatile
  7855                           
  7856                           ;DirCW.c: 109:         CWG1STRbits.STRB = 0;
  7857  003DFC  935A               	bcf	90,1,b	;volatile
  7858                           
  7859                           ;DirCW.c: 112:         CWG1STRbits.OVRA = 0;
  7860  003DFE  995A               	bcf	90,4,b	;volatile
  7861                           
  7862                           ;DirCW.c: 113:         CWG1STRbits.STRA = 0;
  7863  003E00  915A               	bcf	90,0,b	;volatile
  7864                           
  7865                           ;DirCW.c: 116:         CWG2STRbits.OVRB = 0;
  7866  003E02  9B51               	bcf	81,5,b	;volatile
  7867                           
  7868                           ;DirCW.c: 117:         CWG2STRbits.STRB = 0;
  7869  003E04  9351               	bcf	81,1,b	;volatile
  7870                           
  7871                           ;DirCW.c: 120:         CWG2STRbits.OVRA = 1;
  7872  003E06  8951               	bsf	81,4,b	;volatile
  7873                           
  7874                           ;DirCW.c: 121:         CWG2STRbits.STRA = 0;
  7875  003E08  9151               	bcf	81,0,b	;volatile
  7876                           
  7877                           ;DirCW.c: 124:         CWG3STRbits.STRA = 1;
  7878  003E0A  8148               	bsf	72,0,b	;volatile
  7879                           
  7880                           ;DirCW.c: 127:         CWG3STRbits.OVRB = 0;
  7881  003E0C  9B48               	bcf	72,5,b	;volatile
  7882                           
  7883                           ;DirCW.c: 128:         CWG3STRbits.STRB = 0;
  7884  003E0E  9348               	bcf	72,1,b	;volatile
  7885  003E10                     i2l1404:
  7886                           
  7887                           ;DirCW.c: 131:     if (PORTDbits.RD6 == 1 &&
  7888  003E10  ACCD               	btfss	205,6,c	;volatile
  7889  003E12  EF0D  F01F         	goto	i2u404_41
  7890  003E16  EF0F  F01F         	goto	i2u404_40
  7891  003E1A                     i2u404_41:
  7892  003E1A  EF29  F01F         	goto	i2l1405
  7893  003E1E                     i2u404_40:
  7894  003E1E  BACD               	btfsc	205,5,c	;volatile
  7895  003E20  EF14  F01F         	goto	i2u405_41
  7896  003E24  EF16  F01F         	goto	i2u405_40
  7897  003E28                     i2u405_41:
  7898  003E28  EF29  F01F         	goto	i2l1405
  7899  003E2C                     i2u405_40:
  7900  003E2C  B8CD               	btfsc	205,4,c	;volatile
  7901  003E2E  EF1B  F01F         	goto	i2u406_41
  7902  003E32  EF1D  F01F         	goto	i2u406_40
  7903  003E36                     i2u406_41:
  7904  003E36  EF29  F01F         	goto	i2l1405
  7905  003E3A                     i2u406_40:
  7906  003E3A                     
  7907                           ;DirCW.c: 133:             PORTDbits.RD4 == 0) {;DirCW.c: 135:         CWG1STRbits.OVRB 
      +                          = 0;
  7908  003E3A  013F               	movlb	63	; () banked
  7909  003E3C  9B5A               	bcf	90,5,b	;volatile
  7910                           
  7911                           ;DirCW.c: 136:         CWG1STRbits.STRB = 0;
  7912  003E3E  935A               	bcf	90,1,b	;volatile
  7913                           
  7914                           ;DirCW.c: 139:         CWG1STRbits.OVRA = 1;
  7915  003E40  895A               	bsf	90,4,b	;volatile
  7916                           
  7917                           ;DirCW.c: 140:         CWG1STRbits.STRA = 0;
  7918  003E42  915A               	bcf	90,0,b	;volatile
  7919                           
  7920                           ;DirCW.c: 143:         CWG2STRbits.OVRB = 0;
  7921  003E44  9B51               	bcf	81,5,b	;volatile
  7922                           
  7923                           ;DirCW.c: 144:         CWG2STRbits.STRB = 0;
  7924  003E46  9351               	bcf	81,1,b	;volatile
  7925                           
  7926                           ;DirCW.c: 147:         CWG2STRbits.OVRA = 0;
  7927  003E48  9951               	bcf	81,4,b	;volatile
  7928                           
  7929                           ;DirCW.c: 148:         CWG2STRbits.STRA = 0;
  7930  003E4A  9151               	bcf	81,0,b	;volatile
  7931                           
  7932                           ;DirCW.c: 151:         CWG3STRbits.STRA = 1;
  7933  003E4C  8148               	bsf	72,0,b	;volatile
  7934                           
  7935                           ;DirCW.c: 154:         CWG3STRbits.OVRB = 0;
  7936  003E4E  9B48               	bcf	72,5,b	;volatile
  7937                           
  7938                           ;DirCW.c: 155:         CWG3STRbits.STRB = 0;
  7939  003E50  9348               	bcf	72,1,b	;volatile
  7940  003E52                     i2l1405:
  7941                           
  7942                           ;DirCW.c: 158:     if (PORTDbits.RD6 == 1 &&
  7943  003E52  ACCD               	btfss	205,6,c	;volatile
  7944  003E54  EF2E  F01F         	goto	i2u407_41
  7945  003E58  EF30  F01F         	goto	i2u407_40
  7946  003E5C                     i2u407_41:
  7947  003E5C  EF4A  F01F         	goto	i2l1407
  7948  003E60                     i2u407_40:
  7949  003E60  BACD               	btfsc	205,5,c	;volatile
  7950  003E62  EF35  F01F         	goto	i2u408_41
  7951  003E66  EF37  F01F         	goto	i2u408_40
  7952  003E6A                     i2u408_41:
  7953  003E6A  EF4A  F01F         	goto	i2l1407
  7954  003E6E                     i2u408_40:
  7955  003E6E  A8CD               	btfss	205,4,c	;volatile
  7956  003E70  EF3C  F01F         	goto	i2u409_41
  7957  003E74  EF3E  F01F         	goto	i2u409_40
  7958  003E78                     i2u409_41:
  7959  003E78  EF4A  F01F         	goto	i2l1407
  7960  003E7C                     i2u409_40:
  7961  003E7C                     
  7962                           ;DirCW.c: 160:             PORTDbits.RD4 == 1) {;DirCW.c: 162:         CWG1STRbits.OVRB 
      +                          = 0;
  7963  003E7C  013F               	movlb	63	; () banked
  7964  003E7E  9B5A               	bcf	90,5,b	;volatile
  7965                           
  7966                           ;DirCW.c: 163:         CWG1STRbits.STRB = 0;
  7967  003E80  935A               	bcf	90,1,b	;volatile
  7968                           
  7969                           ;DirCW.c: 166:         CWG1STRbits.OVRA = 1;
  7970  003E82  895A               	bsf	90,4,b	;volatile
  7971                           
  7972                           ;DirCW.c: 167:         CWG1STRbits.STRA = 0;
  7973  003E84  915A               	bcf	90,0,b	;volatile
  7974                           
  7975                           ;DirCW.c: 170:         CWG2STRbits.STRB = 1;
  7976  003E86  8351               	bsf	81,1,b	;volatile
  7977                           
  7978                           ;DirCW.c: 173:         CWG2STRbits.OVRA = 0;
  7979  003E88  9951               	bcf	81,4,b	;volatile
  7980                           
  7981                           ;DirCW.c: 174:         CWG2STRbits.STRA = 0;
  7982  003E8A  9151               	bcf	81,0,b	;volatile
  7983                           
  7984                           ;DirCW.c: 177:         CWG3STRbits.OVRA = 0;
  7985  003E8C  9948               	bcf	72,4,b	;volatile
  7986                           
  7987                           ;DirCW.c: 178:         CWG3STRbits.STRA = 0;
  7988  003E8E  9148               	bcf	72,0,b	;volatile
  7989                           
  7990                           ;DirCW.c: 181:         CWG3STRbits.OVRB = 0;
  7991  003E90  9B48               	bcf	72,5,b	;volatile
  7992                           
  7993                           ;DirCW.c: 182:         CWG3STRbits.STRB = 0;
  7994  003E92  9348               	bcf	72,1,b	;volatile
  7995  003E94                     i2l1407:
  7996  003E94  0012               	return		;funcret
  7997  003E96                     __end_of_startUpForwardMode:
  7998                           	callstack 0
  7999                           
  8000 ;; *************** function _reverseMode *****************
  8001 ;; Defined at:
  8002 ;;		line 261 in file "DirCCW.c"
  8003 ;; Parameters:    Size  Location     Type
  8004 ;;		None
  8005 ;; Auto vars:     Size  Location     Type
  8006 ;;		None
  8007 ;; Return value:  Size  Location     Type
  8008 ;;                  1    wreg      void 
  8009 ;; Registers used:
  8010 ;;		wreg, fsr2l, fsr2h, status,2, status,0, cstack
  8011 ;; Tracked objects:
  8012 ;;		On entry : 0/0
  8013 ;;		On exit  : 0/0
  8014 ;;		Unchanged: 0/0
  8015 ;; Data sizes:     COMRAM   BANK0   BANK1   BANK2   BANK3   BANK4   BANK5   BANK6   BANK7   BANK8   BANK9  BANK10  BANK1
      +1  BANK12  BANK13  BANK14  BANK15  BANK16  BANK17  BANK18  BANK19  BANK20  BANK21  BANK22  BANK23  BANK24  BANK25  BANK2
      +6  BANK27  BANK28  BANK29  BANK30  BANK31
  8016 ;;      Params:         0       0       0       0       0       0       0       0       0       0       0       0       
      +0       0       0       0       0       0       0       0       0       0       0       0       0       0       0       
      +0       0       0       0       0       0
  8017 ;;      Locals:         0       0       0       0       0       0       0       0       0       0       0       0       
      +0       0       0       0       0       0       0       0       0       0       0       0       0       0       0       
      +0       0       0       0       0       0
  8018 ;;      Temps:          0       0       0       0       0       0       0       0       0       0       0       0       
      +0       0       0       0       0       0       0       0       0       0       0       0       0       0       0       
      +0       0       0       0       0       0
  8019 ;;      Totals:         0       0       0       0       0       0       0       0       0       0       0       0       
      +0       0       0       0       0       0       0       0       0       0       0       0       0       0       0       
      +0       0       0       0       0       0
  8020 ;;Total ram usage:        0 bytes
  8021 ;; Hardware stack levels used: 1
  8022 ;; Hardware stack levels required when called: 1
  8023 ;; This function calls:
  8024 ;;		_current
  8025 ;;		_state1
  8026 ;;		_state2
  8027 ;;		_state3
  8028 ;;		_state4
  8029 ;;		_state5
  8030 ;;		_state6
  8031 ;; This function is called by:
  8032 ;;		_actualizarEstadoMotor
  8033 ;; This function uses a non-reentrant model
  8034 ;;
  8035                           
  8036                           	psect	text45
  8037  002F0C                     __ptext45:
  8038                           	callstack 0
  8039  002F0C                     _reverseMode:
  8040                           	callstack 24
  8041  002F0C                     
  8042                           ;DirCCW.c: 263:     if (PORTDbits.RD6 == 1 &&
  8043  002F0C  ACCD               	btfss	205,6,c	;volatile
  8044  002F0E  EF8B  F017         	goto	i2u368_41
  8045  002F12  EF8D  F017         	goto	i2u368_40
  8046  002F16                     i2u368_41:
  8047  002F16  EFB9  F017         	goto	i2l5053
  8048  002F1A                     i2u368_40:
  8049  002F1A  AACD               	btfss	205,5,c	;volatile
  8050  002F1C  EF92  F017         	goto	i2u369_41
  8051  002F20  EF94  F017         	goto	i2u369_40
  8052  002F24                     i2u369_41:
  8053  002F24  EFB9  F017         	goto	i2l5053
  8054  002F28                     i2u369_40:
  8055  002F28  B8CD               	btfsc	205,4,c	;volatile
  8056  002F2A  EF99  F017         	goto	i2u370_41
  8057  002F2E  EF9B  F017         	goto	i2u370_40
  8058  002F32                     i2u370_41:
  8059  002F32  EFB9  F017         	goto	i2l5053
  8060  002F36                     i2u370_40:
  8061  002F36                     
  8062                           ;DirCCW.c: 265:             PORTDbits.RD4 == 0) {;DirCCW.c: 267:         estado=1;
  8063  002F36  0E00               	movlw	0
  8064  002F38  6E42               	movwf	(_estado+1)^0,c
  8065  002F3A  0E01               	movlw	1
  8066  002F3C  6E41               	movwf	_estado^0,c
  8067  002F3E                     
  8068                           ;DirCCW.c: 268:         if(estado!=estadoPrevio){
  8069  002F3E  503F               	movf	_estadoPrevio^0,w,c
  8070  002F40  1841               	xorwf	_estado^0,w,c
  8071  002F42  E109               	bnz	i2u371_40
  8072  002F44  5040               	movf	(_estadoPrevio+1)^0,w,c
  8073  002F46  1842               	xorwf	(_estado+1)^0,w,c
  8074  002F48  B4D8               	btfsc	status,2,c
  8075  002F4A  EFA9  F017         	goto	i2u371_41
  8076  002F4E  EFAB  F017         	goto	i2u371_40
  8077  002F52                     i2u371_41:
  8078  002F52  EFB3  F017         	goto	i2l5051
  8079  002F56                     i2u371_40:
  8080  002F56                     
  8081                           ;DirCCW.c: 269:             state1();
  8082  002F56  EC61  F026         	call	_state1	;wreg free
  8083  002F5A                     
  8084                           ;DirCCW.c: 270:             estadoPrevio = estado;
  8085  002F5A  C041  F03F         	movff	_estado,_estadoPrevio
  8086  002F5E  C042  F040         	movff	_estado+1,_estadoPrevio+1
  8087  002F62                     
  8088                           ;DirCCW.c: 271:             empezoTimer = 0;
  8089  002F62  0E00               	movlw	0
  8090  002F64  6E4B               	movwf	_empezoTimer^0,c
  8091  002F66                     i2l5051:
  8092                           
  8093                           ;DirCCW.c: 273:         current(3);
  8094  002F66  0E00               	movlw	0
  8095  002F68  6E02               	movwf	(current@current+1)^0,c
  8096  002F6A  0E03               	movlw	3
  8097  002F6C  6E01               	movwf	current@current^0,c
  8098  002F6E  EC6F  F020         	call	_current	;wreg free
  8099  002F72                     i2l5053:
  8100                           
  8101                           ;DirCCW.c: 276:     if (PORTDbits.RD6 == 1 &&
  8102  002F72  ACCD               	btfss	205,6,c	;volatile
  8103  002F74  EFBE  F017         	goto	i2u372_41
  8104  002F78  EFC0  F017         	goto	i2u372_40
  8105  002F7C                     i2u372_41:
  8106  002F7C  EFEC  F017         	goto	i2l5071
  8107  002F80                     i2u372_40:
  8108  002F80  BACD               	btfsc	205,5,c	;volatile
  8109  002F82  EFC5  F017         	goto	i2u373_41
  8110  002F86  EFC7  F017         	goto	i2u373_40
  8111  002F8A                     i2u373_41:
  8112  002F8A  EFEC  F017         	goto	i2l5071
  8113  002F8E                     i2u373_40:
  8114  002F8E  B8CD               	btfsc	205,4,c	;volatile
  8115  002F90  EFCC  F017         	goto	i2u374_41
  8116  002F94  EFCE  F017         	goto	i2u374_40
  8117  002F98                     i2u374_41:
  8118  002F98  EFEC  F017         	goto	i2l5071
  8119  002F9C                     i2u374_40:
  8120  002F9C                     
  8121                           ;DirCCW.c: 278:             PORTDbits.RD4 == 0) {;DirCCW.c: 280:         estado=2;
  8122  002F9C  0E00               	movlw	0
  8123  002F9E  6E42               	movwf	(_estado+1)^0,c
  8124  002FA0  0E02               	movlw	2
  8125  002FA2  6E41               	movwf	_estado^0,c
  8126  002FA4                     
  8127                           ;DirCCW.c: 281:         if(estado!=estadoPrevio){
  8128  002FA4  503F               	movf	_estadoPrevio^0,w,c
  8129  002FA6  1841               	xorwf	_estado^0,w,c
  8130  002FA8  E109               	bnz	i2u375_40
  8131  002FAA  5040               	movf	(_estadoPrevio+1)^0,w,c
  8132  002FAC  1842               	xorwf	(_estado+1)^0,w,c
  8133  002FAE  B4D8               	btfsc	status,2,c
  8134  002FB0  EFDC  F017         	goto	i2u375_41
  8135  002FB4  EFDE  F017         	goto	i2u375_40
  8136  002FB8                     i2u375_41:
  8137  002FB8  EFE6  F017         	goto	i2l5069
  8138  002FBC                     i2u375_40:
  8139  002FBC                     
  8140                           ;DirCCW.c: 282:             state2();
  8141  002FBC  EC83  F026         	call	_state2	;wreg free
  8142  002FC0                     
  8143                           ;DirCCW.c: 283:             estadoPrevio = estado;
  8144  002FC0  C041  F03F         	movff	_estado,_estadoPrevio
  8145  002FC4  C042  F040         	movff	_estado+1,_estadoPrevio+1
  8146  002FC8                     
  8147                           ;DirCCW.c: 284:             empezoTimer = 0;
  8148  002FC8  0E00               	movlw	0
  8149  002FCA  6E4B               	movwf	_empezoTimer^0,c
  8150  002FCC                     i2l5069:
  8151                           
  8152                           ;DirCCW.c: 286:         current(3);
  8153  002FCC  0E00               	movlw	0
  8154  002FCE  6E02               	movwf	(current@current+1)^0,c
  8155  002FD0  0E03               	movlw	3
  8156  002FD2  6E01               	movwf	current@current^0,c
  8157  002FD4  EC6F  F020         	call	_current	;wreg free
  8158  002FD8                     i2l5071:
  8159                           
  8160                           ;DirCCW.c: 290:     if (PORTDbits.RD6 == 1 &&
  8161  002FD8  ACCD               	btfss	205,6,c	;volatile
  8162  002FDA  EFF1  F017         	goto	i2u376_41
  8163  002FDE  EFF3  F017         	goto	i2u376_40
  8164  002FE2                     i2u376_41:
  8165  002FE2  EF1F  F018         	goto	i2l5089
  8166  002FE6                     i2u376_40:
  8167  002FE6  BACD               	btfsc	205,5,c	;volatile
  8168  002FE8  EFF8  F017         	goto	i2u377_41
  8169  002FEC  EFFA  F017         	goto	i2u377_40
  8170  002FF0                     i2u377_41:
  8171  002FF0  EF1F  F018         	goto	i2l5089
  8172  002FF4                     i2u377_40:
  8173  002FF4  A8CD               	btfss	205,4,c	;volatile
  8174  002FF6  EFFF  F017         	goto	i2u378_41
  8175  002FFA  EF01  F018         	goto	i2u378_40
  8176  002FFE                     i2u378_41:
  8177  002FFE  EF1F  F018         	goto	i2l5089
  8178  003002                     i2u378_40:
  8179  003002                     
  8180                           ;DirCCW.c: 292:             PORTDbits.RD4 == 1) {;DirCCW.c: 294:         estado=3;
  8181  003002  0E00               	movlw	0
  8182  003004  6E42               	movwf	(_estado+1)^0,c
  8183  003006  0E03               	movlw	3
  8184  003008  6E41               	movwf	_estado^0,c
  8185  00300A                     
  8186                           ;DirCCW.c: 295:         if(estado!=estadoPrevio){
  8187  00300A  503F               	movf	_estadoPrevio^0,w,c
  8188  00300C  1841               	xorwf	_estado^0,w,c
  8189  00300E  E109               	bnz	i2u379_40
  8190  003010  5040               	movf	(_estadoPrevio+1)^0,w,c
  8191  003012  1842               	xorwf	(_estado+1)^0,w,c
  8192  003014  B4D8               	btfsc	status,2,c
  8193  003016  EF0F  F018         	goto	i2u379_41
  8194  00301A  EF11  F018         	goto	i2u379_40
  8195  00301E                     i2u379_41:
  8196  00301E  EF19  F018         	goto	i2l5087
  8197  003022                     i2u379_40:
  8198  003022                     
  8199                           ;DirCCW.c: 296:             state3();
  8200  003022  EC5B  F026         	call	_state3	;wreg free
  8201  003026                     
  8202                           ;DirCCW.c: 297:             estadoPrevio = estado;
  8203  003026  C041  F03F         	movff	_estado,_estadoPrevio
  8204  00302A  C042  F040         	movff	_estado+1,_estadoPrevio+1
  8205  00302E                     
  8206                           ;DirCCW.c: 298:             empezoTimer = 0;
  8207  00302E  0E00               	movlw	0
  8208  003030  6E4B               	movwf	_empezoTimer^0,c
  8209  003032                     i2l5087:
  8210                           
  8211                           ;DirCCW.c: 300:         current(2);
  8212  003032  0E00               	movlw	0
  8213  003034  6E02               	movwf	(current@current+1)^0,c
  8214  003036  0E02               	movlw	2
  8215  003038  6E01               	movwf	current@current^0,c
  8216  00303A  EC6F  F020         	call	_current	;wreg free
  8217  00303E                     i2l5089:
  8218                           
  8219                           ;DirCCW.c: 303:     if (PORTDbits.RD6 == 0 &&
  8220  00303E  BCCD               	btfsc	205,6,c	;volatile
  8221  003040  EF24  F018         	goto	i2u380_41
  8222  003044  EF26  F018         	goto	i2u380_40
  8223  003048                     i2u380_41:
  8224  003048  EF52  F018         	goto	i2l5107
  8225  00304C                     i2u380_40:
  8226  00304C  BACD               	btfsc	205,5,c	;volatile
  8227  00304E  EF2B  F018         	goto	i2u381_41
  8228  003052  EF2D  F018         	goto	i2u381_40
  8229  003056                     i2u381_41:
  8230  003056  EF52  F018         	goto	i2l5107
  8231  00305A                     i2u381_40:
  8232  00305A  A8CD               	btfss	205,4,c	;volatile
  8233  00305C  EF32  F018         	goto	i2u382_41
  8234  003060  EF34  F018         	goto	i2u382_40
  8235  003064                     i2u382_41:
  8236  003064  EF52  F018         	goto	i2l5107
  8237  003068                     i2u382_40:
  8238  003068                     
  8239                           ;DirCCW.c: 305:             PORTDbits.RD4 == 1) {;DirCCW.c: 307:         estado=4;
  8240  003068  0E00               	movlw	0
  8241  00306A  6E42               	movwf	(_estado+1)^0,c
  8242  00306C  0E04               	movlw	4
  8243  00306E  6E41               	movwf	_estado^0,c
  8244  003070                     
  8245                           ;DirCCW.c: 308:         if(estado!=estadoPrevio){
  8246  003070  503F               	movf	_estadoPrevio^0,w,c
  8247  003072  1841               	xorwf	_estado^0,w,c
  8248  003074  E109               	bnz	i2u383_40
  8249  003076  5040               	movf	(_estadoPrevio+1)^0,w,c
  8250  003078  1842               	xorwf	(_estado+1)^0,w,c
  8251  00307A  B4D8               	btfsc	status,2,c
  8252  00307C  EF42  F018         	goto	i2u383_41
  8253  003080  EF44  F018         	goto	i2u383_40
  8254  003084                     i2u383_41:
  8255  003084  EF4C  F018         	goto	i2l5105
  8256  003088                     i2u383_40:
  8257  003088                     
  8258                           ;DirCCW.c: 309:             state4();
  8259  003088  EC7E  F026         	call	_state4	;wreg free
  8260  00308C                     
  8261                           ;DirCCW.c: 310:             estadoPrevio = estado;
  8262  00308C  C041  F03F         	movff	_estado,_estadoPrevio
  8263  003090  C042  F040         	movff	_estado+1,_estadoPrevio+1
  8264  003094                     
  8265                           ;DirCCW.c: 311:             empezoTimer = 0;
  8266  003094  0E00               	movlw	0
  8267  003096  6E4B               	movwf	_empezoTimer^0,c
  8268  003098                     i2l5105:
  8269                           
  8270                           ;DirCCW.c: 313:         current(2);
  8271  003098  0E00               	movlw	0
  8272  00309A  6E02               	movwf	(current@current+1)^0,c
  8273  00309C  0E02               	movlw	2
  8274  00309E  6E01               	movwf	current@current^0,c
  8275  0030A0  EC6F  F020         	call	_current	;wreg free
  8276  0030A4                     i2l5107:
  8277                           
  8278                           ;DirCCW.c: 316:     if (PORTDbits.RD6 == 0 &&
  8279  0030A4  BCCD               	btfsc	205,6,c	;volatile
  8280  0030A6  EF57  F018         	goto	i2u384_41
  8281  0030AA  EF59  F018         	goto	i2u384_40
  8282  0030AE                     i2u384_41:
  8283  0030AE  EF85  F018         	goto	i2l5125
  8284  0030B2                     i2u384_40:
  8285  0030B2  AACD               	btfss	205,5,c	;volatile
  8286  0030B4  EF5E  F018         	goto	i2u385_41
  8287  0030B8  EF60  F018         	goto	i2u385_40
  8288  0030BC                     i2u385_41:
  8289  0030BC  EF85  F018         	goto	i2l5125
  8290  0030C0                     i2u385_40:
  8291  0030C0  A8CD               	btfss	205,4,c	;volatile
  8292  0030C2  EF65  F018         	goto	i2u386_41
  8293  0030C6  EF67  F018         	goto	i2u386_40
  8294  0030CA                     i2u386_41:
  8295  0030CA  EF85  F018         	goto	i2l5125
  8296  0030CE                     i2u386_40:
  8297  0030CE                     
  8298                           ;DirCCW.c: 318:             PORTDbits.RD4 == 1) {;DirCCW.c: 320:         estado=5;
  8299  0030CE  0E00               	movlw	0
  8300  0030D0  6E42               	movwf	(_estado+1)^0,c
  8301  0030D2  0E05               	movlw	5
  8302  0030D4  6E41               	movwf	_estado^0,c
  8303  0030D6                     
  8304                           ;DirCCW.c: 321:         if(estado!=estadoPrevio){
  8305  0030D6  503F               	movf	_estadoPrevio^0,w,c
  8306  0030D8  1841               	xorwf	_estado^0,w,c
  8307  0030DA  E109               	bnz	i2u387_40
  8308  0030DC  5040               	movf	(_estadoPrevio+1)^0,w,c
  8309  0030DE  1842               	xorwf	(_estado+1)^0,w,c
  8310  0030E0  B4D8               	btfsc	status,2,c
  8311  0030E2  EF75  F018         	goto	i2u387_41
  8312  0030E6  EF77  F018         	goto	i2u387_40
  8313  0030EA                     i2u387_41:
  8314  0030EA  EF7F  F018         	goto	i2l5123
  8315  0030EE                     i2u387_40:
  8316  0030EE                     
  8317                           ;DirCCW.c: 322:             state5();
  8318  0030EE  EC55  F026         	call	_state5	;wreg free
  8319  0030F2                     
  8320                           ;DirCCW.c: 323:             estadoPrevio = estado;
  8321  0030F2  C041  F03F         	movff	_estado,_estadoPrevio
  8322  0030F6  C042  F040         	movff	_estado+1,_estadoPrevio+1
  8323  0030FA                     
  8324                           ;DirCCW.c: 324:             empezoTimer = 0;
  8325  0030FA  0E00               	movlw	0
  8326  0030FC  6E4B               	movwf	_empezoTimer^0,c
  8327  0030FE                     i2l5123:
  8328                           
  8329                           ;DirCCW.c: 326:         current(1);
  8330  0030FE  0E00               	movlw	0
  8331  003100  6E02               	movwf	(current@current+1)^0,c
  8332  003102  0E01               	movlw	1
  8333  003104  6E01               	movwf	current@current^0,c
  8334  003106  EC6F  F020         	call	_current	;wreg free
  8335  00310A                     i2l5125:
  8336                           
  8337                           ;DirCCW.c: 329:     if (PORTDbits.RD6 == 0 &&
  8338  00310A  BCCD               	btfsc	205,6,c	;volatile
  8339  00310C  EF8A  F018         	goto	i2u388_41
  8340  003110  EF8C  F018         	goto	i2u388_40
  8341  003114                     i2u388_41:
  8342  003114  EFB8  F018         	goto	i2l1378
  8343  003118                     i2u388_40:
  8344  003118  AACD               	btfss	205,5,c	;volatile
  8345  00311A  EF91  F018         	goto	i2u389_41
  8346  00311E  EF93  F018         	goto	i2u389_40
  8347  003122                     i2u389_41:
  8348  003122  EFB8  F018         	goto	i2l1378
  8349  003126                     i2u389_40:
  8350  003126  B8CD               	btfsc	205,4,c	;volatile
  8351  003128  EF98  F018         	goto	i2u390_41
  8352  00312C  EF9A  F018         	goto	i2u390_40
  8353  003130                     i2u390_41:
  8354  003130  EFB8  F018         	goto	i2l1378
  8355  003134                     i2u390_40:
  8356  003134                     
  8357                           ;DirCCW.c: 331:             PORTDbits.RD4 == 0) {;DirCCW.c: 333:         estado=6;
  8358  003134  0E00               	movlw	0
  8359  003136  6E42               	movwf	(_estado+1)^0,c
  8360  003138  0E06               	movlw	6
  8361  00313A  6E41               	movwf	_estado^0,c
  8362  00313C                     
  8363                           ;DirCCW.c: 334:         if(estado!=estadoPrevio){
  8364  00313C  503F               	movf	_estadoPrevio^0,w,c
  8365  00313E  1841               	xorwf	_estado^0,w,c
  8366  003140  E109               	bnz	i2u391_40
  8367  003142  5040               	movf	(_estadoPrevio+1)^0,w,c
  8368  003144  1842               	xorwf	(_estado+1)^0,w,c
  8369  003146  B4D8               	btfsc	status,2,c
  8370  003148  EFA8  F018         	goto	i2u391_41
  8371  00314C  EFAA  F018         	goto	i2u391_40
  8372  003150                     i2u391_41:
  8373  003150  EFB2  F018         	goto	i2l5141
  8374  003154                     i2u391_40:
  8375  003154                     
  8376                           ;DirCCW.c: 335:             state6();
  8377  003154  EC79  F026         	call	_state6	;wreg free
  8378  003158                     
  8379                           ;DirCCW.c: 336:             estadoPrevio = estado;
  8380  003158  C041  F03F         	movff	_estado,_estadoPrevio
  8381  00315C  C042  F040         	movff	_estado+1,_estadoPrevio+1
  8382  003160                     
  8383                           ;DirCCW.c: 337:             empezoTimer = 0;
  8384  003160  0E00               	movlw	0
  8385  003162  6E4B               	movwf	_empezoTimer^0,c
  8386  003164                     i2l5141:
  8387                           
  8388                           ;DirCCW.c: 339:         current(1);
  8389  003164  0E00               	movlw	0
  8390  003166  6E02               	movwf	(current@current+1)^0,c
  8391  003168  0E01               	movlw	1
  8392  00316A  6E01               	movwf	current@current^0,c
  8393  00316C  EC6F  F020         	call	_current	;wreg free
  8394  003170                     i2l1378:
  8395  003170  0012               	return		;funcret
  8396  003172                     __end_of_reverseMode:
  8397                           	callstack 0
  8398                           
  8399 ;; *************** function _state6 *****************
  8400 ;; Defined at:
  8401 ;;		line 252 in file "DirCCW.c"
  8402 ;; Parameters:    Size  Location     Type
  8403 ;;		None
  8404 ;; Auto vars:     Size  Location     Type
  8405 ;;		None
  8406 ;; Return value:  Size  Location     Type
  8407 ;;                  1    wreg      void 
  8408 ;; Registers used:
  8409 ;;		None
  8410 ;; Tracked objects:
  8411 ;;		On entry : 0/0
  8412 ;;		On exit  : 0/0
  8413 ;;		Unchanged: 0/0
  8414 ;; Data sizes:     COMRAM   BANK0   BANK1   BANK2   BANK3   BANK4   BANK5   BANK6   BANK7   BANK8   BANK9  BANK10  BANK1
      +1  BANK12  BANK13  BANK14  BANK15  BANK16  BANK17  BANK18  BANK19  BANK20  BANK21  BANK22  BANK23  BANK24  BANK25  BANK2
      +6  BANK27  BANK28  BANK29  BANK30  BANK31
  8415 ;;      Params:         0       0       0       0       0       0       0       0       0       0       0       0       
      +0       0       0       0       0       0       0       0       0       0       0       0       0       0       0       
      +0       0       0       0       0       0
  8416 ;;      Locals:         0       0       0       0       0       0       0       0       0       0       0       0       
      +0       0       0       0       0       0       0       0       0       0       0       0       0       0       0       
      +0       0       0       0       0       0
  8417 ;;      Temps:          0       0       0       0       0       0       0       0       0       0       0       0       
      +0       0       0       0       0       0       0       0       0       0       0       0       0       0       0       
      +0       0       0       0       0       0
  8418 ;;      Totals:         0       0       0       0       0       0       0       0       0       0       0       0       
      +0       0       0       0       0       0       0       0       0       0       0       0       0       0       0       
      +0       0       0       0       0       0
  8419 ;;Total ram usage:        0 bytes
  8420 ;; Hardware stack levels used: 1
  8421 ;; This function calls:
  8422 ;;		Nothing
  8423 ;; This function is called by:
  8424 ;;		_reverseMode
  8425 ;; This function uses a non-reentrant model
  8426 ;;
  8427                           
  8428                           	psect	text46
  8429  004CF2                     __ptext46:
  8430                           	callstack 0
  8431  004CF2                     _state6:
  8432                           	callstack 24
  8433  004CF2                     
  8434                           ;DirCCW.c: 253:     CWG3STRbits.OVRA = 0;
  8435  004CF2  013F               	movlb	63	; () banked
  8436  004CF4  9948               	bcf	72,4,b	;volatile
  8437                           
  8438                           ;DirCCW.c: 254:     CWG3STRbits.STRA = 0;
  8439  004CF6  9148               	bcf	72,0,b	;volatile
  8440                           
  8441                           ;DirCCW.c: 256:     CWG2STRbits.STRB = 1;
  8442  004CF8  8351               	bsf	81,1,b	;volatile
  8443  004CFA                     
  8444                           ; BSR set to: 63
  8445  004CFA  0012               	return		;funcret
  8446  004CFC                     __end_of_state6:
  8447                           	callstack 0
  8448                           
  8449 ;; *************** function _state5 *****************
  8450 ;; Defined at:
  8451 ;;		line 244 in file "DirCCW.c"
  8452 ;; Parameters:    Size  Location     Type
  8453 ;;		None
  8454 ;; Auto vars:     Size  Location     Type
  8455 ;;		None
  8456 ;; Return value:  Size  Location     Type
  8457 ;;                  1    wreg      void 
  8458 ;; Registers used:
  8459 ;;		None
  8460 ;; Tracked objects:
  8461 ;;		On entry : 0/0
  8462 ;;		On exit  : 0/0
  8463 ;;		Unchanged: 0/0
  8464 ;; Data sizes:     COMRAM   BANK0   BANK1   BANK2   BANK3   BANK4   BANK5   BANK6   BANK7   BANK8   BANK9  BANK10  BANK1
      +1  BANK12  BANK13  BANK14  BANK15  BANK16  BANK17  BANK18  BANK19  BANK20  BANK21  BANK22  BANK23  BANK24  BANK25  BANK2
      +6  BANK27  BANK28  BANK29  BANK30  BANK31
  8465 ;;      Params:         0       0       0       0       0       0       0       0       0       0       0       0       
      +0       0       0       0       0       0       0       0       0       0       0       0       0       0       0       
      +0       0       0       0       0       0
  8466 ;;      Locals:         0       0       0       0       0       0       0       0       0       0       0       0       
      +0       0       0       0       0       0       0       0       0       0       0       0       0       0       0       
      +0       0       0       0       0       0
  8467 ;;      Temps:          0       0       0       0       0       0       0       0       0       0       0       0       
      +0       0       0       0       0       0       0       0       0       0       0       0       0       0       0       
      +0       0       0       0       0       0
  8468 ;;      Totals:         0       0       0       0       0       0       0       0       0       0       0       0       
      +0       0       0       0       0       0       0       0       0       0       0       0       0       0       0       
      +0       0       0       0       0       0
  8469 ;;Total ram usage:        0 bytes
  8470 ;; Hardware stack levels used: 1
  8471 ;; This function calls:
  8472 ;;		Nothing
  8473 ;; This function is called by:
  8474 ;;		_reverseMode
  8475 ;; This function uses a non-reentrant model
  8476 ;;
  8477                           
  8478                           	psect	text47
  8479  004CAA                     __ptext47:
  8480                           	callstack 0
  8481  004CAA                     _state5:
  8482                           	callstack 24
  8483  004CAA                     
  8484                           ;DirCCW.c: 245:     CWG2STRbits.OVRA = 0;
  8485  004CAA  013F               	movlb	63	; () banked
  8486  004CAC  9951               	bcf	81,4,b	;volatile
  8487                           
  8488                           ;DirCCW.c: 246:     CWG2STRbits.STRA = 0;
  8489  004CAE  9151               	bcf	81,0,b	;volatile
  8490                           
  8491                           ;DirCCW.c: 248:     CWG1STRbits.OVRA = 1;
  8492  004CB0  895A               	bsf	90,4,b	;volatile
  8493                           
  8494                           ;DirCCW.c: 249:     CWG1STRbits.STRA = 0;
  8495  004CB2  915A               	bcf	90,0,b	;volatile
  8496  004CB4                     
  8497                           ; BSR set to: 63
  8498  004CB4  0012               	return		;funcret
  8499  004CB6                     __end_of_state5:
  8500                           	callstack 0
  8501                           
  8502 ;; *************** function _state4 *****************
  8503 ;; Defined at:
  8504 ;;		line 237 in file "DirCCW.c"
  8505 ;; Parameters:    Size  Location     Type
  8506 ;;		None
  8507 ;; Auto vars:     Size  Location     Type
  8508 ;;		None
  8509 ;; Return value:  Size  Location     Type
  8510 ;;                  1    wreg      void 
  8511 ;; Registers used:
  8512 ;;		None
  8513 ;; Tracked objects:
  8514 ;;		On entry : 0/0
  8515 ;;		On exit  : 0/0
  8516 ;;		Unchanged: 0/0
  8517 ;; Data sizes:     COMRAM   BANK0   BANK1   BANK2   BANK3   BANK4   BANK5   BANK6   BANK7   BANK8   BANK9  BANK10  BANK1
      +1  BANK12  BANK13  BANK14  BANK15  BANK16  BANK17  BANK18  BANK19  BANK20  BANK21  BANK22  BANK23  BANK24  BANK25  BANK2
      +6  BANK27  BANK28  BANK29  BANK30  BANK31
  8518 ;;      Params:         0       0       0       0       0       0       0       0       0       0       0       0       
      +0       0       0       0       0       0       0       0       0       0       0       0       0       0       0       
      +0       0       0       0       0       0
  8519 ;;      Locals:         0       0       0       0       0       0       0       0       0       0       0       0       
      +0       0       0       0       0       0       0       0       0       0       0       0       0       0       0       
      +0       0       0       0       0       0
  8520 ;;      Temps:          0       0       0       0       0       0       0       0       0       0       0       0       
      +0       0       0       0       0       0       0       0       0       0       0       0       0       0       0       
      +0       0       0       0       0       0
  8521 ;;      Totals:         0       0       0       0       0       0       0       0       0       0       0       0       
      +0       0       0       0       0       0       0       0       0       0       0       0       0       0       0       
      +0       0       0       0       0       0
  8522 ;;Total ram usage:        0 bytes
  8523 ;; Hardware stack levels used: 1
  8524 ;; This function calls:
  8525 ;;		Nothing
  8526 ;; This function is called by:
  8527 ;;		_reverseMode
  8528 ;; This function uses a non-reentrant model
  8529 ;;
  8530                           
  8531                           	psect	text48
  8532  004CFC                     __ptext48:
  8533                           	callstack 0
  8534  004CFC                     _state4:
  8535                           	callstack 24
  8536  004CFC                     
  8537                           ;DirCCW.c: 238:     CWG1STRbits.OVRB = 0;
  8538  004CFC  013F               	movlb	63	; () banked
  8539  004CFE  9B5A               	bcf	90,5,b	;volatile
  8540                           
  8541                           ;DirCCW.c: 239:     CWG1STRbits.STRB = 0;
  8542  004D00  935A               	bcf	90,1,b	;volatile
  8543                           
  8544                           ;DirCCW.c: 241:     CWG3STRbits.STRA = 1;
  8545  004D02  8148               	bsf	72,0,b	;volatile
  8546  004D04                     
  8547                           ; BSR set to: 63
  8548  004D04  0012               	return		;funcret
  8549  004D06                     __end_of_state4:
  8550                           	callstack 0
  8551                           
  8552 ;; *************** function _state3 *****************
  8553 ;; Defined at:
  8554 ;;		line 229 in file "DirCCW.c"
  8555 ;; Parameters:    Size  Location     Type
  8556 ;;		None
  8557 ;; Auto vars:     Size  Location     Type
  8558 ;;		None
  8559 ;; Return value:  Size  Location     Type
  8560 ;;                  1    wreg      void 
  8561 ;; Registers used:
  8562 ;;		None
  8563 ;; Tracked objects:
  8564 ;;		On entry : 0/0
  8565 ;;		On exit  : 0/0
  8566 ;;		Unchanged: 0/0
  8567 ;; Data sizes:     COMRAM   BANK0   BANK1   BANK2   BANK3   BANK4   BANK5   BANK6   BANK7   BANK8   BANK9  BANK10  BANK1
      +1  BANK12  BANK13  BANK14  BANK15  BANK16  BANK17  BANK18  BANK19  BANK20  BANK21  BANK22  BANK23  BANK24  BANK25  BANK2
      +6  BANK27  BANK28  BANK29  BANK30  BANK31
  8568 ;;      Params:         0       0       0       0       0       0       0       0       0       0       0       0       
      +0       0       0       0       0       0       0       0       0       0       0       0       0       0       0       
      +0       0       0       0       0       0
  8569 ;;      Locals:         0       0       0       0       0       0       0       0       0       0       0       0       
      +0       0       0       0       0       0       0       0       0       0       0       0       0       0       0       
      +0       0       0       0       0       0
  8570 ;;      Temps:          0       0       0       0       0       0       0       0       0       0       0       0       
      +0       0       0       0       0       0       0       0       0       0       0       0       0       0       0       
      +0       0       0       0       0       0
  8571 ;;      Totals:         0       0       0       0       0       0       0       0       0       0       0       0       
      +0       0       0       0       0       0       0       0       0       0       0       0       0       0       0       
      +0       0       0       0       0       0
  8572 ;;Total ram usage:        0 bytes
  8573 ;; Hardware stack levels used: 1
  8574 ;; This function calls:
  8575 ;;		Nothing
  8576 ;; This function is called by:
  8577 ;;		_reverseMode
  8578 ;; This function uses a non-reentrant model
  8579 ;;
  8580                           
  8581                           	psect	text49
  8582  004CB6                     __ptext49:
  8583                           	callstack 0
  8584  004CB6                     _state3:
  8585                           	callstack 24
  8586  004CB6                     
  8587                           ;DirCCW.c: 230:     CWG3STRbits.OVRB = 0;
  8588  004CB6  013F               	movlb	63	; () banked
  8589  004CB8  9B48               	bcf	72,5,b	;volatile
  8590                           
  8591                           ;DirCCW.c: 231:     CWG3STRbits.STRB = 0;
  8592  004CBA  9348               	bcf	72,1,b	;volatile
  8593                           
  8594                           ;DirCCW.c: 233:     CWG2STRbits.OVRA = 1;
  8595  004CBC  8951               	bsf	81,4,b	;volatile
  8596                           
  8597                           ;DirCCW.c: 234:     CWG2STRbits.STRA = 0;
  8598  004CBE  9151               	bcf	81,0,b	;volatile
  8599  004CC0                     
  8600                           ; BSR set to: 63
  8601  004CC0  0012               	return		;funcret
  8602  004CC2                     __end_of_state3:
  8603                           	callstack 0
  8604                           
  8605 ;; *************** function _state2 *****************
  8606 ;; Defined at:
  8607 ;;		line 222 in file "DirCCW.c"
  8608 ;; Parameters:    Size  Location     Type
  8609 ;;		None
  8610 ;; Auto vars:     Size  Location     Type
  8611 ;;		None
  8612 ;; Return value:  Size  Location     Type
  8613 ;;                  1    wreg      void 
  8614 ;; Registers used:
  8615 ;;		None
  8616 ;; Tracked objects:
  8617 ;;		On entry : 0/0
  8618 ;;		On exit  : 0/0
  8619 ;;		Unchanged: 0/0
  8620 ;; Data sizes:     COMRAM   BANK0   BANK1   BANK2   BANK3   BANK4   BANK5   BANK6   BANK7   BANK8   BANK9  BANK10  BANK1
      +1  BANK12  BANK13  BANK14  BANK15  BANK16  BANK17  BANK18  BANK19  BANK20  BANK21  BANK22  BANK23  BANK24  BANK25  BANK2
      +6  BANK27  BANK28  BANK29  BANK30  BANK31
  8621 ;;      Params:         0       0       0       0       0       0       0       0       0       0       0       0       
      +0       0       0       0       0       0       0       0       0       0       0       0       0       0       0       
      +0       0       0       0       0       0
  8622 ;;      Locals:         0       0       0       0       0       0       0       0       0       0       0       0       
      +0       0       0       0       0       0       0       0       0       0       0       0       0       0       0       
      +0       0       0       0       0       0
  8623 ;;      Temps:          0       0       0       0       0       0       0       0       0       0       0       0       
      +0       0       0       0       0       0       0       0       0       0       0       0       0       0       0       
      +0       0       0       0       0       0
  8624 ;;      Totals:         0       0       0       0       0       0       0       0       0       0       0       0       
      +0       0       0       0       0       0       0       0       0       0       0       0       0       0       0       
      +0       0       0       0       0       0
  8625 ;;Total ram usage:        0 bytes
  8626 ;; Hardware stack levels used: 1
  8627 ;; This function calls:
  8628 ;;		Nothing
  8629 ;; This function is called by:
  8630 ;;		_reverseMode
  8631 ;; This function uses a non-reentrant model
  8632 ;;
  8633                           
  8634                           	psect	text50
  8635  004D06                     __ptext50:
  8636                           	callstack 0
  8637  004D06                     _state2:
  8638                           	callstack 24
  8639  004D06                     
  8640                           ;DirCCW.c: 223:     CWG2STRbits.OVRB = 0;
  8641  004D06  013F               	movlb	63	; () banked
  8642  004D08  9B51               	bcf	81,5,b	;volatile
  8643                           
  8644                           ;DirCCW.c: 224:     CWG2STRbits.STRB = 0;
  8645  004D0A  9351               	bcf	81,1,b	;volatile
  8646                           
  8647                           ;DirCCW.c: 226:     CWG1STRbits.STRB = 1;
  8648  004D0C  835A               	bsf	90,1,b	;volatile
  8649  004D0E                     
  8650                           ; BSR set to: 63
  8651  004D0E  0012               	return		;funcret
  8652  004D10                     __end_of_state2:
  8653                           	callstack 0
  8654                           
  8655 ;; *************** function _state1 *****************
  8656 ;; Defined at:
  8657 ;;		line 214 in file "DirCCW.c"
  8658 ;; Parameters:    Size  Location     Type
  8659 ;;		None
  8660 ;; Auto vars:     Size  Location     Type
  8661 ;;		None
  8662 ;; Return value:  Size  Location     Type
  8663 ;;                  1    wreg      void 
  8664 ;; Registers used:
  8665 ;;		None
  8666 ;; Tracked objects:
  8667 ;;		On entry : 0/0
  8668 ;;		On exit  : 0/0
  8669 ;;		Unchanged: 0/0
  8670 ;; Data sizes:     COMRAM   BANK0   BANK1   BANK2   BANK3   BANK4   BANK5   BANK6   BANK7   BANK8   BANK9  BANK10  BANK1
      +1  BANK12  BANK13  BANK14  BANK15  BANK16  BANK17  BANK18  BANK19  BANK20  BANK21  BANK22  BANK23  BANK24  BANK25  BANK2
      +6  BANK27  BANK28  BANK29  BANK30  BANK31
  8671 ;;      Params:         0       0       0       0       0       0       0       0       0       0       0       0       
      +0       0       0       0       0       0       0       0       0       0       0       0       0       0       0       
      +0       0       0       0       0       0
  8672 ;;      Locals:         0       0       0       0       0       0       0       0       0       0       0       0       
      +0       0       0       0       0       0       0       0       0       0       0       0       0       0       0       
      +0       0       0       0       0       0
  8673 ;;      Temps:          0       0       0       0       0       0       0       0       0       0       0       0       
      +0       0       0       0       0       0       0       0       0       0       0       0       0       0       0       
      +0       0       0       0       0       0
  8674 ;;      Totals:         0       0       0       0       0       0       0       0       0       0       0       0       
      +0       0       0       0       0       0       0       0       0       0       0       0       0       0       0       
      +0       0       0       0       0       0
  8675 ;;Total ram usage:        0 bytes
  8676 ;; Hardware stack levels used: 1
  8677 ;; This function calls:
  8678 ;;		Nothing
  8679 ;; This function is called by:
  8680 ;;		_reverseMode
  8681 ;; This function uses a non-reentrant model
  8682 ;;
  8683                           
  8684                           	psect	text51
  8685  004CC2                     __ptext51:
  8686                           	callstack 0
  8687  004CC2                     _state1:
  8688                           	callstack 24
  8689  004CC2                     
  8690                           ;DirCCW.c: 215:     CWG1STRbits.OVRA = 0;
  8691  004CC2  013F               	movlb	63	; () banked
  8692  004CC4  995A               	bcf	90,4,b	;volatile
  8693                           
  8694                           ;DirCCW.c: 216:     CWG1STRbits.STRA = 0;
  8695  004CC6  915A               	bcf	90,0,b	;volatile
  8696                           
  8697                           ;DirCCW.c: 218:     CWG3STRbits.OVRB = 1;
  8698  004CC8  8B48               	bsf	72,5,b	;volatile
  8699                           
  8700                           ;DirCCW.c: 219:     CWG3STRbits.STRB = 0;
  8701  004CCA  9348               	bcf	72,1,b	;volatile
  8702  004CCC                     
  8703                           ; BSR set to: 63
  8704  004CCC  0012               	return		;funcret
  8705  004CCE                     __end_of_state1:
  8706                           	callstack 0
  8707                           
  8708 ;; *************** function _forwardMode *****************
  8709 ;; Defined at:
  8710 ;;		line 234 in file "DirCW.c"
  8711 ;; Parameters:    Size  Location     Type
  8712 ;;		None
  8713 ;; Auto vars:     Size  Location     Type
  8714 ;;		None
  8715 ;; Return value:  Size  Location     Type
  8716 ;;                  1    wreg      void 
  8717 ;; Registers used:
  8718 ;;		wreg, fsr2l, fsr2h, status,2, status,0, cstack
  8719 ;; Tracked objects:
  8720 ;;		On entry : 0/0
  8721 ;;		On exit  : 0/0
  8722 ;;		Unchanged: 0/0
  8723 ;; Data sizes:     COMRAM   BANK0   BANK1   BANK2   BANK3   BANK4   BANK5   BANK6   BANK7   BANK8   BANK9  BANK10  BANK1
      +1  BANK12  BANK13  BANK14  BANK15  BANK16  BANK17  BANK18  BANK19  BANK20  BANK21  BANK22  BANK23  BANK24  BANK25  BANK2
      +6  BANK27  BANK28  BANK29  BANK30  BANK31
  8724 ;;      Params:         0       0       0       0       0       0       0       0       0       0       0       0       
      +0       0       0       0       0       0       0       0       0       0       0       0       0       0       0       
      +0       0       0       0       0       0
  8725 ;;      Locals:         0       0       0       0       0       0       0       0       0       0       0       0       
      +0       0       0       0       0       0       0       0       0       0       0       0       0       0       0       
      +0       0       0       0       0       0
  8726 ;;      Temps:          0       0       0       0       0       0       0       0       0       0       0       0       
      +0       0       0       0       0       0       0       0       0       0       0       0       0       0       0       
      +0       0       0       0       0       0
  8727 ;;      Totals:         0       0       0       0       0       0       0       0       0       0       0       0       
      +0       0       0       0       0       0       0       0       0       0       0       0       0       0       0       
      +0       0       0       0       0       0
  8728 ;;Total ram usage:        0 bytes
  8729 ;; Hardware stack levels used: 1
  8730 ;; Hardware stack levels required when called: 1
  8731 ;; This function calls:
  8732 ;;		_current
  8733 ;;		_state1F
  8734 ;;		_state2F
  8735 ;;		_state3F
  8736 ;;		_state4F
  8737 ;;		_state5F
  8738 ;;		_state6F
  8739 ;; This function is called by:
  8740 ;;		_actualizarEstadoMotor
  8741 ;; This function uses a non-reentrant model
  8742 ;;
  8743                           
  8744                           	psect	text52
  8745  003172                     __ptext52:
  8746                           	callstack 0
  8747  003172                     _forwardMode:
  8748                           	callstack 24
  8749  003172                     
  8750                           ;DirCW.c: 236:     if (PORTDbits.RD6 == 0 &&
  8751  003172  BCCD               	btfsc	205,6,c	;volatile
  8752  003174  EFBE  F018         	goto	i2u410_41
  8753  003178  EFC0  F018         	goto	i2u410_40
  8754  00317C                     i2u410_41:
  8755  00317C  EFEC  F018         	goto	i2l5199
  8756  003180                     i2u410_40:
  8757  003180  BACD               	btfsc	205,5,c	;volatile
  8758  003182  EFC5  F018         	goto	i2u411_41
  8759  003186  EFC7  F018         	goto	i2u411_40
  8760  00318A                     i2u411_41:
  8761  00318A  EFEC  F018         	goto	i2l5199
  8762  00318E                     i2u411_40:
  8763  00318E  A8CD               	btfss	205,4,c	;volatile
  8764  003190  EFCC  F018         	goto	i2u412_41
  8765  003194  EFCE  F018         	goto	i2u412_40
  8766  003198                     i2u412_41:
  8767  003198  EFEC  F018         	goto	i2l5199
  8768  00319C                     i2u412_40:
  8769  00319C                     
  8770                           ;DirCW.c: 238:             PORTDbits.RD4 == 1) {;DirCW.c: 239:         estado = 1;
  8771  00319C  0E00               	movlw	0
  8772  00319E  6E42               	movwf	(_estado+1)^0,c
  8773  0031A0  0E01               	movlw	1
  8774  0031A2  6E41               	movwf	_estado^0,c
  8775  0031A4                     
  8776                           ;DirCW.c: 240:         if (estado != estadoPrevio) {
  8777  0031A4  503F               	movf	_estadoPrevio^0,w,c
  8778  0031A6  1841               	xorwf	_estado^0,w,c
  8779  0031A8  E109               	bnz	i2u413_40
  8780  0031AA  5040               	movf	(_estadoPrevio+1)^0,w,c
  8781  0031AC  1842               	xorwf	(_estado+1)^0,w,c
  8782  0031AE  B4D8               	btfsc	status,2,c
  8783  0031B0  EFDC  F018         	goto	i2u413_41
  8784  0031B4  EFDE  F018         	goto	i2u413_40
  8785  0031B8                     i2u413_41:
  8786  0031B8  EFE6  F018         	goto	i2l5197
  8787  0031BC                     i2u413_40:
  8788  0031BC                     
  8789                           ;DirCW.c: 241:             state1F();
  8790  0031BC  EC92  F026         	call	_state1F	;wreg free
  8791  0031C0                     
  8792                           ;DirCW.c: 242:             estadoPrevio = estado;
  8793  0031C0  C041  F03F         	movff	_estado,_estadoPrevio
  8794  0031C4  C042  F040         	movff	_estado+1,_estadoPrevio+1
  8795  0031C8                     
  8796                           ;DirCW.c: 243:             empezoTimer = 0;
  8797  0031C8  0E00               	movlw	0
  8798  0031CA  6E4B               	movwf	_empezoTimer^0,c
  8799  0031CC                     i2l5197:
  8800                           
  8801                           ;DirCW.c: 245:         current(1);
  8802  0031CC  0E00               	movlw	0
  8803  0031CE  6E02               	movwf	(current@current+1)^0,c
  8804  0031D0  0E01               	movlw	1
  8805  0031D2  6E01               	movwf	current@current^0,c
  8806  0031D4  EC6F  F020         	call	_current	;wreg free
  8807  0031D8                     i2l5199:
  8808                           
  8809                           ;DirCW.c: 249:     if (PORTDbits.RD6 == 0 &&
  8810  0031D8  BCCD               	btfsc	205,6,c	;volatile
  8811  0031DA  EFF1  F018         	goto	i2u414_41
  8812  0031DE  EFF3  F018         	goto	i2u414_40
  8813  0031E2                     i2u414_41:
  8814  0031E2  EF1F  F019         	goto	i2l5217
  8815  0031E6                     i2u414_40:
  8816  0031E6  AACD               	btfss	205,5,c	;volatile
  8817  0031E8  EFF8  F018         	goto	i2u415_41
  8818  0031EC  EFFA  F018         	goto	i2u415_40
  8819  0031F0                     i2u415_41:
  8820  0031F0  EF1F  F019         	goto	i2l5217
  8821  0031F4                     i2u415_40:
  8822  0031F4  A8CD               	btfss	205,4,c	;volatile
  8823  0031F6  EFFF  F018         	goto	i2u416_41
  8824  0031FA  EF01  F019         	goto	i2u416_40
  8825  0031FE                     i2u416_41:
  8826  0031FE  EF1F  F019         	goto	i2l5217
  8827  003202                     i2u416_40:
  8828  003202                     
  8829                           ;DirCW.c: 251:             PORTDbits.RD4 == 1) {;DirCW.c: 252:         estado = 2;
  8830  003202  0E00               	movlw	0
  8831  003204  6E42               	movwf	(_estado+1)^0,c
  8832  003206  0E02               	movlw	2
  8833  003208  6E41               	movwf	_estado^0,c
  8834  00320A                     
  8835                           ;DirCW.c: 253:         if (estado != estadoPrevio) {
  8836  00320A  503F               	movf	_estadoPrevio^0,w,c
  8837  00320C  1841               	xorwf	_estado^0,w,c
  8838  00320E  E109               	bnz	i2u417_40
  8839  003210  5040               	movf	(_estadoPrevio+1)^0,w,c
  8840  003212  1842               	xorwf	(_estado+1)^0,w,c
  8841  003214  B4D8               	btfsc	status,2,c
  8842  003216  EF0F  F019         	goto	i2u417_41
  8843  00321A  EF11  F019         	goto	i2u417_40
  8844  00321E                     i2u417_41:
  8845  00321E  EF19  F019         	goto	i2l5215
  8846  003222                     i2u417_40:
  8847  003222                     
  8848                           ;DirCW.c: 254:             state2F();
  8849  003222  EC73  F026         	call	_state2F	;wreg free
  8850  003226                     
  8851                           ;DirCW.c: 255:             estadoPrevio = estado;
  8852  003226  C041  F03F         	movff	_estado,_estadoPrevio
  8853  00322A  C042  F040         	movff	_estado+1,_estadoPrevio+1
  8854  00322E                     
  8855                           ;DirCW.c: 256:             empezoTimer = 0;
  8856  00322E  0E00               	movlw	0
  8857  003230  6E4B               	movwf	_empezoTimer^0,c
  8858  003232                     i2l5215:
  8859                           
  8860                           ;DirCW.c: 258:         current(1);
  8861  003232  0E00               	movlw	0
  8862  003234  6E02               	movwf	(current@current+1)^0,c
  8863  003236  0E01               	movlw	1
  8864  003238  6E01               	movwf	current@current^0,c
  8865  00323A  EC6F  F020         	call	_current	;wreg free
  8866  00323E                     i2l5217:
  8867                           
  8868                           ;DirCW.c: 261:     if (PORTDbits.RD6 == 0 &&
  8869  00323E  BCCD               	btfsc	205,6,c	;volatile
  8870  003240  EF24  F019         	goto	i2u418_41
  8871  003244  EF26  F019         	goto	i2u418_40
  8872  003248                     i2u418_41:
  8873  003248  EF52  F019         	goto	i2l5235
  8874  00324C                     i2u418_40:
  8875  00324C  AACD               	btfss	205,5,c	;volatile
  8876  00324E  EF2B  F019         	goto	i2u419_41
  8877  003252  EF2D  F019         	goto	i2u419_40
  8878  003256                     i2u419_41:
  8879  003256  EF52  F019         	goto	i2l5235
  8880  00325A                     i2u419_40:
  8881  00325A  B8CD               	btfsc	205,4,c	;volatile
  8882  00325C  EF32  F019         	goto	i2u420_41
  8883  003260  EF34  F019         	goto	i2u420_40
  8884  003264                     i2u420_41:
  8885  003264  EF52  F019         	goto	i2l5235
  8886  003268                     i2u420_40:
  8887  003268                     
  8888                           ;DirCW.c: 263:             PORTDbits.RD4 == 0) {;DirCW.c: 264:         estado = 3;
  8889  003268  0E00               	movlw	0
  8890  00326A  6E42               	movwf	(_estado+1)^0,c
  8891  00326C  0E03               	movlw	3
  8892  00326E  6E41               	movwf	_estado^0,c
  8893  003270                     
  8894                           ;DirCW.c: 265:         if (estado != estadoPrevio) {
  8895  003270  503F               	movf	_estadoPrevio^0,w,c
  8896  003272  1841               	xorwf	_estado^0,w,c
  8897  003274  E109               	bnz	i2u421_40
  8898  003276  5040               	movf	(_estadoPrevio+1)^0,w,c
  8899  003278  1842               	xorwf	(_estado+1)^0,w,c
  8900  00327A  B4D8               	btfsc	status,2,c
  8901  00327C  EF42  F019         	goto	i2u421_41
  8902  003280  EF44  F019         	goto	i2u421_40
  8903  003284                     i2u421_41:
  8904  003284  EF4C  F019         	goto	i2l5233
  8905  003288                     i2u421_40:
  8906  003288                     
  8907                           ;DirCW.c: 266:             state3F();
  8908  003288  EC8D  F026         	call	_state3F	;wreg free
  8909  00328C                     
  8910                           ;DirCW.c: 267:             estadoPrevio = estado;
  8911  00328C  C041  F03F         	movff	_estado,_estadoPrevio
  8912  003290  C042  F040         	movff	_estado+1,_estadoPrevio+1
  8913  003294                     
  8914                           ;DirCW.c: 268:             empezoTimer = 0;
  8915  003294  0E00               	movlw	0
  8916  003296  6E4B               	movwf	_empezoTimer^0,c
  8917  003298                     i2l5233:
  8918                           
  8919                           ;DirCW.c: 270:         current(2);
  8920  003298  0E00               	movlw	0
  8921  00329A  6E02               	movwf	(current@current+1)^0,c
  8922  00329C  0E02               	movlw	2
  8923  00329E  6E01               	movwf	current@current^0,c
  8924  0032A0  EC6F  F020         	call	_current	;wreg free
  8925  0032A4                     i2l5235:
  8926                           
  8927                           ;DirCW.c: 273:     if (PORTDbits.RD6 == 1 &&
  8928  0032A4  ACCD               	btfss	205,6,c	;volatile
  8929  0032A6  EF57  F019         	goto	i2u422_41
  8930  0032AA  EF59  F019         	goto	i2u422_40
  8931  0032AE                     i2u422_41:
  8932  0032AE  EF85  F019         	goto	i2l5253
  8933  0032B2                     i2u422_40:
  8934  0032B2  AACD               	btfss	205,5,c	;volatile
  8935  0032B4  EF5E  F019         	goto	i2u423_41
  8936  0032B8  EF60  F019         	goto	i2u423_40
  8937  0032BC                     i2u423_41:
  8938  0032BC  EF85  F019         	goto	i2l5253
  8939  0032C0                     i2u423_40:
  8940  0032C0  B8CD               	btfsc	205,4,c	;volatile
  8941  0032C2  EF65  F019         	goto	i2u424_41
  8942  0032C6  EF67  F019         	goto	i2u424_40
  8943  0032CA                     i2u424_41:
  8944  0032CA  EF85  F019         	goto	i2l5253
  8945  0032CE                     i2u424_40:
  8946  0032CE                     
  8947                           ;DirCW.c: 275:             PORTDbits.RD4 == 0) {;DirCW.c: 276:         estado = 4;
  8948  0032CE  0E00               	movlw	0
  8949  0032D0  6E42               	movwf	(_estado+1)^0,c
  8950  0032D2  0E04               	movlw	4
  8951  0032D4  6E41               	movwf	_estado^0,c
  8952  0032D6                     
  8953                           ;DirCW.c: 277:         if (estado != estadoPrevio) {
  8954  0032D6  503F               	movf	_estadoPrevio^0,w,c
  8955  0032D8  1841               	xorwf	_estado^0,w,c
  8956  0032DA  E109               	bnz	i2u425_40
  8957  0032DC  5040               	movf	(_estadoPrevio+1)^0,w,c
  8958  0032DE  1842               	xorwf	(_estado+1)^0,w,c
  8959  0032E0  B4D8               	btfsc	status,2,c
  8960  0032E2  EF75  F019         	goto	i2u425_41
  8961  0032E6  EF77  F019         	goto	i2u425_40
  8962  0032EA                     i2u425_41:
  8963  0032EA  EF7F  F019         	goto	i2l5251
  8964  0032EE                     i2u425_40:
  8965  0032EE                     
  8966                           ;DirCW.c: 278:             state4F();
  8967  0032EE  EC6D  F026         	call	_state4F	;wreg free
  8968  0032F2                     
  8969                           ;DirCW.c: 279:             estadoPrevio = estado;
  8970  0032F2  C041  F03F         	movff	_estado,_estadoPrevio
  8971  0032F6  C042  F040         	movff	_estado+1,_estadoPrevio+1
  8972  0032FA                     
  8973                           ;DirCW.c: 280:             empezoTimer = 0;
  8974  0032FA  0E00               	movlw	0
  8975  0032FC  6E4B               	movwf	_empezoTimer^0,c
  8976  0032FE                     i2l5251:
  8977                           
  8978                           ;DirCW.c: 282:         current(2);
  8979  0032FE  0E00               	movlw	0
  8980  003300  6E02               	movwf	(current@current+1)^0,c
  8981  003302  0E02               	movlw	2
  8982  003304  6E01               	movwf	current@current^0,c
  8983  003306  EC6F  F020         	call	_current	;wreg free
  8984  00330A                     i2l5253:
  8985                           
  8986                           ;DirCW.c: 285:     if (PORTDbits.RD6 == 1 &&
  8987  00330A  ACCD               	btfss	205,6,c	;volatile
  8988  00330C  EF8A  F019         	goto	i2u426_41
  8989  003310  EF8C  F019         	goto	i2u426_40
  8990  003314                     i2u426_41:
  8991  003314  EFB8  F019         	goto	i2l5271
  8992  003318                     i2u426_40:
  8993  003318  BACD               	btfsc	205,5,c	;volatile
  8994  00331A  EF91  F019         	goto	i2u427_41
  8995  00331E  EF93  F019         	goto	i2u427_40
  8996  003322                     i2u427_41:
  8997  003322  EFB8  F019         	goto	i2l5271
  8998  003326                     i2u427_40:
  8999  003326  B8CD               	btfsc	205,4,c	;volatile
  9000  003328  EF98  F019         	goto	i2u428_41
  9001  00332C  EF9A  F019         	goto	i2u428_40
  9002  003330                     i2u428_41:
  9003  003330  EFB8  F019         	goto	i2l5271
  9004  003334                     i2u428_40:
  9005  003334                     
  9006                           ;DirCW.c: 287:             PORTDbits.RD4 == 0) {;DirCW.c: 288:         estado = 5;
  9007  003334  0E00               	movlw	0
  9008  003336  6E42               	movwf	(_estado+1)^0,c
  9009  003338  0E05               	movlw	5
  9010  00333A  6E41               	movwf	_estado^0,c
  9011  00333C                     
  9012                           ;DirCW.c: 289:         if (estado != estadoPrevio) {
  9013  00333C  503F               	movf	_estadoPrevio^0,w,c
  9014  00333E  1841               	xorwf	_estado^0,w,c
  9015  003340  E109               	bnz	i2u429_40
  9016  003342  5040               	movf	(_estadoPrevio+1)^0,w,c
  9017  003344  1842               	xorwf	(_estado+1)^0,w,c
  9018  003346  B4D8               	btfsc	status,2,c
  9019  003348  EFA8  F019         	goto	i2u429_41
  9020  00334C  EFAA  F019         	goto	i2u429_40
  9021  003350                     i2u429_41:
  9022  003350  EFB2  F019         	goto	i2l5269
  9023  003354                     i2u429_40:
  9024  003354                     
  9025                           ;DirCW.c: 290:             state5F();
  9026  003354  EC88  F026         	call	_state5F	;wreg free
  9027  003358                     
  9028                           ;DirCW.c: 291:             estadoPrevio = estado;
  9029  003358  C041  F03F         	movff	_estado,_estadoPrevio
  9030  00335C  C042  F040         	movff	_estado+1,_estadoPrevio+1
  9031  003360                     
  9032                           ;DirCW.c: 292:             empezoTimer = 0;
  9033  003360  0E00               	movlw	0
  9034  003362  6E4B               	movwf	_empezoTimer^0,c
  9035  003364                     i2l5269:
  9036                           
  9037                           ;DirCW.c: 294:         current(3);
  9038  003364  0E00               	movlw	0
  9039  003366  6E02               	movwf	(current@current+1)^0,c
  9040  003368  0E03               	movlw	3
  9041  00336A  6E01               	movwf	current@current^0,c
  9042  00336C  EC6F  F020         	call	_current	;wreg free
  9043  003370                     i2l5271:
  9044                           
  9045                           ;DirCW.c: 297:     if (PORTDbits.RD6 == 1 &&
  9046  003370  ACCD               	btfss	205,6,c	;volatile
  9047  003372  EFBD  F019         	goto	i2u430_41
  9048  003376  EFBF  F019         	goto	i2u430_40
  9049  00337A                     i2u430_41:
  9050  00337A  EFEB  F019         	goto	i2l1440
  9051  00337E                     i2u430_40:
  9052  00337E  BACD               	btfsc	205,5,c	;volatile
  9053  003380  EFC4  F019         	goto	i2u431_41
  9054  003384  EFC6  F019         	goto	i2u431_40
  9055  003388                     i2u431_41:
  9056  003388  EFEB  F019         	goto	i2l1440
  9057  00338C                     i2u431_40:
  9058  00338C  A8CD               	btfss	205,4,c	;volatile
  9059  00338E  EFCB  F019         	goto	i2u432_41
  9060  003392  EFCD  F019         	goto	i2u432_40
  9061  003396                     i2u432_41:
  9062  003396  EFEB  F019         	goto	i2l1440
  9063  00339A                     i2u432_40:
  9064  00339A                     
  9065                           ;DirCW.c: 299:             PORTDbits.RD4 == 1) {;DirCW.c: 300:         estado = 6;
  9066  00339A  0E00               	movlw	0
  9067  00339C  6E42               	movwf	(_estado+1)^0,c
  9068  00339E  0E06               	movlw	6
  9069  0033A0  6E41               	movwf	_estado^0,c
  9070  0033A2                     
  9071                           ;DirCW.c: 301:         if (estado != estadoPrevio) {
  9072  0033A2  503F               	movf	_estadoPrevio^0,w,c
  9073  0033A4  1841               	xorwf	_estado^0,w,c
  9074  0033A6  E109               	bnz	i2u433_40
  9075  0033A8  5040               	movf	(_estadoPrevio+1)^0,w,c
  9076  0033AA  1842               	xorwf	(_estado+1)^0,w,c
  9077  0033AC  B4D8               	btfsc	status,2,c
  9078  0033AE  EFDB  F019         	goto	i2u433_41
  9079  0033B2  EFDD  F019         	goto	i2u433_40
  9080  0033B6                     i2u433_41:
  9081  0033B6  EFE5  F019         	goto	i2l5287
  9082  0033BA                     i2u433_40:
  9083  0033BA                     
  9084                           ;DirCW.c: 302:             state6F();
  9085  0033BA  EC67  F026         	call	_state6F	;wreg free
  9086  0033BE                     
  9087                           ;DirCW.c: 303:             estadoPrevio = estado;
  9088  0033BE  C041  F03F         	movff	_estado,_estadoPrevio
  9089  0033C2  C042  F040         	movff	_estado+1,_estadoPrevio+1
  9090  0033C6                     
  9091                           ;DirCW.c: 304:             empezoTimer = 0;
  9092  0033C6  0E00               	movlw	0
  9093  0033C8  6E4B               	movwf	_empezoTimer^0,c
  9094  0033CA                     i2l5287:
  9095                           
  9096                           ;DirCW.c: 306:         current(3);
  9097  0033CA  0E00               	movlw	0
  9098  0033CC  6E02               	movwf	(current@current+1)^0,c
  9099  0033CE  0E03               	movlw	3
  9100  0033D0  6E01               	movwf	current@current^0,c
  9101  0033D2  EC6F  F020         	call	_current	;wreg free
  9102  0033D6                     i2l1440:
  9103  0033D6  0012               	return		;funcret
  9104  0033D8                     __end_of_forwardMode:
  9105                           	callstack 0
  9106                           
  9107 ;; *************** function _state6F *****************
  9108 ;; Defined at:
  9109 ;;		line 226 in file "DirCW.c"
  9110 ;; Parameters:    Size  Location     Type
  9111 ;;		None
  9112 ;; Auto vars:     Size  Location     Type
  9113 ;;		None
  9114 ;; Return value:  Size  Location     Type
  9115 ;;                  1    wreg      void 
  9116 ;; Registers used:
  9117 ;;		None
  9118 ;; Tracked objects:
  9119 ;;		On entry : 0/0
  9120 ;;		On exit  : 0/0
  9121 ;;		Unchanged: 0/0
  9122 ;; Data sizes:     COMRAM   BANK0   BANK1   BANK2   BANK3   BANK4   BANK5   BANK6   BANK7   BANK8   BANK9  BANK10  BANK1
      +1  BANK12  BANK13  BANK14  BANK15  BANK16  BANK17  BANK18  BANK19  BANK20  BANK21  BANK22  BANK23  BANK24  BANK25  BANK2
      +6  BANK27  BANK28  BANK29  BANK30  BANK31
  9123 ;;      Params:         0       0       0       0       0       0       0       0       0       0       0       0       
      +0       0       0       0       0       0       0       0       0       0       0       0       0       0       0       
      +0       0       0       0       0       0
  9124 ;;      Locals:         0       0       0       0       0       0       0       0       0       0       0       0       
      +0       0       0       0       0       0       0       0       0       0       0       0       0       0       0       
      +0       0       0       0       0       0
  9125 ;;      Temps:          0       0       0       0       0       0       0       0       0       0       0       0       
      +0       0       0       0       0       0       0       0       0       0       0       0       0       0       0       
      +0       0       0       0       0       0
  9126 ;;      Totals:         0       0       0       0       0       0       0       0       0       0       0       0       
      +0       0       0       0       0       0       0       0       0       0       0       0       0       0       0       
      +0       0       0       0       0       0
  9127 ;;Total ram usage:        0 bytes
  9128 ;; Hardware stack levels used: 1
  9129 ;; This function calls:
  9130 ;;		Nothing
  9131 ;; This function is called by:
  9132 ;;		_forwardMode
  9133 ;; This function uses a non-reentrant model
  9134 ;;
  9135                           
  9136                           	psect	text53
  9137  004CCE                     __ptext53:
  9138                           	callstack 0
  9139  004CCE                     _state6F:
  9140                           	callstack 24
  9141  004CCE                     
  9142                           ;DirCW.c: 227:     CWG3STRbits.OVRB = 0;
  9143  004CCE  013F               	movlb	63	; () banked
  9144  004CD0  9B48               	bcf	72,5,b	;volatile
  9145                           
  9146                           ;DirCW.c: 228:     CWG3STRbits.STRB = 0;
  9147  004CD2  9348               	bcf	72,1,b	;volatile
  9148                           
  9149                           ;DirCW.c: 230:     CWG1STRbits.OVRA = 1;
  9150  004CD4  895A               	bsf	90,4,b	;volatile
  9151                           
  9152                           ;DirCW.c: 231:     CWG1STRbits.STRA = 0;
  9153  004CD6  915A               	bcf	90,0,b	;volatile
  9154  004CD8                     
  9155                           ; BSR set to: 63
  9156  004CD8  0012               	return		;funcret
  9157  004CDA                     __end_of_state6F:
  9158                           	callstack 0
  9159                           
  9160 ;; *************** function _state5F *****************
  9161 ;; Defined at:
  9162 ;;		line 219 in file "DirCW.c"
  9163 ;; Parameters:    Size  Location     Type
  9164 ;;		None
  9165 ;; Auto vars:     Size  Location     Type
  9166 ;;		None
  9167 ;; Return value:  Size  Location     Type
  9168 ;;                  1    wreg      void 
  9169 ;; Registers used:
  9170 ;;		None
  9171 ;; Tracked objects:
  9172 ;;		On entry : 0/0
  9173 ;;		On exit  : 0/0
  9174 ;;		Unchanged: 0/0
  9175 ;; Data sizes:     COMRAM   BANK0   BANK1   BANK2   BANK3   BANK4   BANK5   BANK6   BANK7   BANK8   BANK9  BANK10  BANK1
      +1  BANK12  BANK13  BANK14  BANK15  BANK16  BANK17  BANK18  BANK19  BANK20  BANK21  BANK22  BANK23  BANK24  BANK25  BANK2
      +6  BANK27  BANK28  BANK29  BANK30  BANK31
  9176 ;;      Params:         0       0       0       0       0       0       0       0       0       0       0       0       
      +0       0       0       0       0       0       0       0       0       0       0       0       0       0       0       
      +0       0       0       0       0       0
  9177 ;;      Locals:         0       0       0       0       0       0       0       0       0       0       0       0       
      +0       0       0       0       0       0       0       0       0       0       0       0       0       0       0       
      +0       0       0       0       0       0
  9178 ;;      Temps:          0       0       0       0       0       0       0       0       0       0       0       0       
      +0       0       0       0       0       0       0       0       0       0       0       0       0       0       0       
      +0       0       0       0       0       0
  9179 ;;      Totals:         0       0       0       0       0       0       0       0       0       0       0       0       
      +0       0       0       0       0       0       0       0       0       0       0       0       0       0       0       
      +0       0       0       0       0       0
  9180 ;;Total ram usage:        0 bytes
  9181 ;; Hardware stack levels used: 1
  9182 ;; This function calls:
  9183 ;;		Nothing
  9184 ;; This function is called by:
  9185 ;;		_forwardMode
  9186 ;; This function uses a non-reentrant model
  9187 ;;
  9188                           
  9189                           	psect	text54
  9190  004D10                     __ptext54:
  9191                           	callstack 0
  9192  004D10                     _state5F:
  9193                           	callstack 24
  9194  004D10                     
  9195                           ;DirCW.c: 220:     CWG2STRbits.OVRB = 0;
  9196  004D10  013F               	movlb	63	; () banked
  9197  004D12  9B51               	bcf	81,5,b	;volatile
  9198                           
  9199                           ;DirCW.c: 221:     CWG2STRbits.STRB = 0;
  9200  004D14  9351               	bcf	81,1,b	;volatile
  9201                           
  9202                           ;DirCW.c: 223:     CWG3STRbits.STRA = 1;
  9203  004D16  8148               	bsf	72,0,b	;volatile
  9204  004D18                     
  9205                           ; BSR set to: 63
  9206  004D18  0012               	return		;funcret
  9207  004D1A                     __end_of_state5F:
  9208                           	callstack 0
  9209                           
  9210 ;; *************** function _state4F *****************
  9211 ;; Defined at:
  9212 ;;		line 211 in file "DirCW.c"
  9213 ;; Parameters:    Size  Location     Type
  9214 ;;		None
  9215 ;; Auto vars:     Size  Location     Type
  9216 ;;		None
  9217 ;; Return value:  Size  Location     Type
  9218 ;;                  1    wreg      void 
  9219 ;; Registers used:
  9220 ;;		None
  9221 ;; Tracked objects:
  9222 ;;		On entry : 0/0
  9223 ;;		On exit  : 0/0
  9224 ;;		Unchanged: 0/0
  9225 ;; Data sizes:     COMRAM   BANK0   BANK1   BANK2   BANK3   BANK4   BANK5   BANK6   BANK7   BANK8   BANK9  BANK10  BANK1
      +1  BANK12  BANK13  BANK14  BANK15  BANK16  BANK17  BANK18  BANK19  BANK20  BANK21  BANK22  BANK23  BANK24  BANK25  BANK2
      +6  BANK27  BANK28  BANK29  BANK30  BANK31
  9226 ;;      Params:         0       0       0       0       0       0       0       0       0       0       0       0       
      +0       0       0       0       0       0       0       0       0       0       0       0       0       0       0       
      +0       0       0       0       0       0
  9227 ;;      Locals:         0       0       0       0       0       0       0       0       0       0       0       0       
      +0       0       0       0       0       0       0       0       0       0       0       0       0       0       0       
      +0       0       0       0       0       0
  9228 ;;      Temps:          0       0       0       0       0       0       0       0       0       0       0       0       
      +0       0       0       0       0       0       0       0       0       0       0       0       0       0       0       
      +0       0       0       0       0       0
  9229 ;;      Totals:         0       0       0       0       0       0       0       0       0       0       0       0       
      +0       0       0       0       0       0       0       0       0       0       0       0       0       0       0       
      +0       0       0       0       0       0
  9230 ;;Total ram usage:        0 bytes
  9231 ;; Hardware stack levels used: 1
  9232 ;; This function calls:
  9233 ;;		Nothing
  9234 ;; This function is called by:
  9235 ;;		_forwardMode
  9236 ;; This function uses a non-reentrant model
  9237 ;;
  9238                           
  9239                           	psect	text55
  9240  004CDA                     __ptext55:
  9241                           	callstack 0
  9242  004CDA                     _state4F:
  9243                           	callstack 24
  9244  004CDA                     
  9245                           ;DirCW.c: 212:     CWG1STRbits.OVRA = 0;
  9246  004CDA  013F               	movlb	63	; () banked
  9247  004CDC  995A               	bcf	90,4,b	;volatile
  9248                           
  9249                           ;DirCW.c: 213:     CWG1STRbits.STRA = 0;
  9250  004CDE  915A               	bcf	90,0,b	;volatile
  9251                           
  9252                           ;DirCW.c: 215:     CWG2STRbits.OVRA = 1;
  9253  004CE0  8951               	bsf	81,4,b	;volatile
  9254                           
  9255                           ;DirCW.c: 216:     CWG2STRbits.STRA = 0;
  9256  004CE2  9151               	bcf	81,0,b	;volatile
  9257  004CE4                     
  9258                           ; BSR set to: 63
  9259  004CE4  0012               	return		;funcret
  9260  004CE6                     __end_of_state4F:
  9261                           	callstack 0
  9262                           
  9263 ;; *************** function _state3F *****************
  9264 ;; Defined at:
  9265 ;;		line 204 in file "DirCW.c"
  9266 ;; Parameters:    Size  Location     Type
  9267 ;;		None
  9268 ;; Auto vars:     Size  Location     Type
  9269 ;;		None
  9270 ;; Return value:  Size  Location     Type
  9271 ;;                  1    wreg      void 
  9272 ;; Registers used:
  9273 ;;		None
  9274 ;; Tracked objects:
  9275 ;;		On entry : 0/0
  9276 ;;		On exit  : 0/0
  9277 ;;		Unchanged: 0/0
  9278 ;; Data sizes:     COMRAM   BANK0   BANK1   BANK2   BANK3   BANK4   BANK5   BANK6   BANK7   BANK8   BANK9  BANK10  BANK1
      +1  BANK12  BANK13  BANK14  BANK15  BANK16  BANK17  BANK18  BANK19  BANK20  BANK21  BANK22  BANK23  BANK24  BANK25  BANK2
      +6  BANK27  BANK28  BANK29  BANK30  BANK31
  9279 ;;      Params:         0       0       0       0       0       0       0       0       0       0       0       0       
      +0       0       0       0       0       0       0       0       0       0       0       0       0       0       0       
      +0       0       0       0       0       0
  9280 ;;      Locals:         0       0       0       0       0       0       0       0       0       0       0       0       
      +0       0       0       0       0       0       0       0       0       0       0       0       0       0       0       
      +0       0       0       0       0       0
  9281 ;;      Temps:          0       0       0       0       0       0       0       0       0       0       0       0       
      +0       0       0       0       0       0       0       0       0       0       0       0       0       0       0       
      +0       0       0       0       0       0
  9282 ;;      Totals:         0       0       0       0       0       0       0       0       0       0       0       0       
      +0       0       0       0       0       0       0       0       0       0       0       0       0       0       0       
      +0       0       0       0       0       0
  9283 ;;Total ram usage:        0 bytes
  9284 ;; Hardware stack levels used: 1
  9285 ;; This function calls:
  9286 ;;		Nothing
  9287 ;; This function is called by:
  9288 ;;		_forwardMode
  9289 ;; This function uses a non-reentrant model
  9290 ;;
  9291                           
  9292                           	psect	text56
  9293  004D1A                     __ptext56:
  9294                           	callstack 0
  9295  004D1A                     _state3F:
  9296                           	callstack 24
  9297  004D1A                     
  9298                           ;DirCW.c: 205:     CWG3STRbits.OVRA = 0;
  9299  004D1A  013F               	movlb	63	; () banked
  9300  004D1C  9948               	bcf	72,4,b	;volatile
  9301                           
  9302                           ;DirCW.c: 206:     CWG3STRbits.STRA = 0;
  9303  004D1E  9148               	bcf	72,0,b	;volatile
  9304                           
  9305                           ;DirCW.c: 208:     CWG1STRbits.STRB = 1;
  9306  004D20  835A               	bsf	90,1,b	;volatile
  9307  004D22                     
  9308                           ; BSR set to: 63
  9309  004D22  0012               	return		;funcret
  9310  004D24                     __end_of_state3F:
  9311                           	callstack 0
  9312                           
  9313 ;; *************** function _state2F *****************
  9314 ;; Defined at:
  9315 ;;		line 196 in file "DirCW.c"
  9316 ;; Parameters:    Size  Location     Type
  9317 ;;		None
  9318 ;; Auto vars:     Size  Location     Type
  9319 ;;		None
  9320 ;; Return value:  Size  Location     Type
  9321 ;;                  1    wreg      void 
  9322 ;; Registers used:
  9323 ;;		None
  9324 ;; Tracked objects:
  9325 ;;		On entry : 0/0
  9326 ;;		On exit  : 0/0
  9327 ;;		Unchanged: 0/0
  9328 ;; Data sizes:     COMRAM   BANK0   BANK1   BANK2   BANK3   BANK4   BANK5   BANK6   BANK7   BANK8   BANK9  BANK10  BANK1
      +1  BANK12  BANK13  BANK14  BANK15  BANK16  BANK17  BANK18  BANK19  BANK20  BANK21  BANK22  BANK23  BANK24  BANK25  BANK2
      +6  BANK27  BANK28  BANK29  BANK30  BANK31
  9329 ;;      Params:         0       0       0       0       0       0       0       0       0       0       0       0       
      +0       0       0       0       0       0       0       0       0       0       0       0       0       0       0       
      +0       0       0       0       0       0
  9330 ;;      Locals:         0       0       0       0       0       0       0       0       0       0       0       0       
      +0       0       0       0       0       0       0       0       0       0       0       0       0       0       0       
      +0       0       0       0       0       0
  9331 ;;      Temps:          0       0       0       0       0       0       0       0       0       0       0       0       
      +0       0       0       0       0       0       0       0       0       0       0       0       0       0       0       
      +0       0       0       0       0       0
  9332 ;;      Totals:         0       0       0       0       0       0       0       0       0       0       0       0       
      +0       0       0       0       0       0       0       0       0       0       0       0       0       0       0       
      +0       0       0       0       0       0
  9333 ;;Total ram usage:        0 bytes
  9334 ;; Hardware stack levels used: 1
  9335 ;; This function calls:
  9336 ;;		Nothing
  9337 ;; This function is called by:
  9338 ;;		_forwardMode
  9339 ;; This function uses a non-reentrant model
  9340 ;;
  9341                           
  9342                           	psect	text57
  9343  004CE6                     __ptext57:
  9344                           	callstack 0
  9345  004CE6                     _state2F:
  9346                           	callstack 24
  9347  004CE6                     
  9348                           ;DirCW.c: 197:     CWG2STRbits.OVRA = 0;
  9349  004CE6  013F               	movlb	63	; () banked
  9350  004CE8  9951               	bcf	81,4,b	;volatile
  9351                           
  9352                           ;DirCW.c: 198:     CWG2STRbits.STRA = 0;
  9353  004CEA  9151               	bcf	81,0,b	;volatile
  9354                           
  9355                           ;DirCW.c: 200:     CWG3STRbits.OVRB = 1;
  9356  004CEC  8B48               	bsf	72,5,b	;volatile
  9357                           
  9358                           ;DirCW.c: 201:     CWG3STRbits.STRB = 0;
  9359  004CEE  9348               	bcf	72,1,b	;volatile
  9360  004CF0                     
  9361                           ; BSR set to: 63
  9362  004CF0  0012               	return		;funcret
  9363  004CF2                     __end_of_state2F:
  9364                           	callstack 0
  9365                           
  9366 ;; *************** function _state1F *****************
  9367 ;; Defined at:
  9368 ;;		line 189 in file "DirCW.c"
  9369 ;; Parameters:    Size  Location     Type
  9370 ;;		None
  9371 ;; Auto vars:     Size  Location     Type
  9372 ;;		None
  9373 ;; Return value:  Size  Location     Type
  9374 ;;                  1    wreg      void 
  9375 ;; Registers used:
  9376 ;;		None
  9377 ;; Tracked objects:
  9378 ;;		On entry : 0/0
  9379 ;;		On exit  : 0/0
  9380 ;;		Unchanged: 0/0
  9381 ;; Data sizes:     COMRAM   BANK0   BANK1   BANK2   BANK3   BANK4   BANK5   BANK6   BANK7   BANK8   BANK9  BANK10  BANK1
      +1  BANK12  BANK13  BANK14  BANK15  BANK16  BANK17  BANK18  BANK19  BANK20  BANK21  BANK22  BANK23  BANK24  BANK25  BANK2
      +6  BANK27  BANK28  BANK29  BANK30  BANK31
  9382 ;;      Params:         0       0       0       0       0       0       0       0       0       0       0       0       
      +0       0       0       0       0       0       0       0       0       0       0       0       0       0       0       
      +0       0       0       0       0       0
  9383 ;;      Locals:         0       0       0       0       0       0       0       0       0       0       0       0       
      +0       0       0       0       0       0       0       0       0       0       0       0       0       0       0       
      +0       0       0       0       0       0
  9384 ;;      Temps:          0       0       0       0       0       0       0       0       0       0       0       0       
      +0       0       0       0       0       0       0       0       0       0       0       0       0       0       0       
      +0       0       0       0       0       0
  9385 ;;      Totals:         0       0       0       0       0       0       0       0       0       0       0       0       
      +0       0       0       0       0       0       0       0       0       0       0       0       0       0       0       
      +0       0       0       0       0       0
  9386 ;;Total ram usage:        0 bytes
  9387 ;; Hardware stack levels used: 1
  9388 ;; This function calls:
  9389 ;;		Nothing
  9390 ;; This function is called by:
  9391 ;;		_forwardMode
  9392 ;; This function uses a non-reentrant model
  9393 ;;
  9394                           
  9395                           	psect	text58
  9396  004D24                     __ptext58:
  9397                           	callstack 0
  9398  004D24                     _state1F:
  9399                           	callstack 24
  9400  004D24                     
  9401                           ;DirCW.c: 190:     CWG1STRbits.OVRB = 0;
  9402  004D24  013F               	movlb	63	; () banked
  9403  004D26  9B5A               	bcf	90,5,b	;volatile
  9404                           
  9405                           ;DirCW.c: 191:     CWG1STRbits.STRB = 0;
  9406  004D28  935A               	bcf	90,1,b	;volatile
  9407                           
  9408                           ;DirCW.c: 193:     CWG2STRbits.STRB = 1;
  9409  004D2A  8351               	bsf	81,1,b	;volatile
  9410  004D2C                     
  9411                           ; BSR set to: 63
  9412  004D2C  0012               	return		;funcret
  9413  004D2E                     __end_of_state1F:
  9414                           	callstack 0
  9415                           
  9416 ;; *************** function _current *****************
  9417 ;; Defined at:
  9418 ;;		line 96 in file "Joystick.c"
  9419 ;; Parameters:    Size  Location     Type
  9420 ;;  current         2    0[COMRAM] int 
  9421 ;; Auto vars:     Size  Location     Type
  9422 ;;		None
  9423 ;; Return value:  Size  Location     Type
  9424 ;;                  1    wreg      void 
  9425 ;; Registers used:
  9426 ;;		wreg, fsr2l, fsr2h, status,2, status,0
  9427 ;; Tracked objects:
  9428 ;;		On entry : 0/0
  9429 ;;		On exit  : 0/0
  9430 ;;		Unchanged: 0/0
  9431 ;; Data sizes:     COMRAM   BANK0   BANK1   BANK2   BANK3   BANK4   BANK5   BANK6   BANK7   BANK8   BANK9  BANK10  BANK1
      +1  BANK12  BANK13  BANK14  BANK15  BANK16  BANK17  BANK18  BANK19  BANK20  BANK21  BANK22  BANK23  BANK24  BANK25  BANK2
      +6  BANK27  BANK28  BANK29  BANK30  BANK31
  9432 ;;      Params:         2       0       0       0       0       0       0       0       0       0       0       0       
      +0       0       0       0       0       0       0       0       0       0       0       0       0       0       0       
      +0       0       0       0       0       0
  9433 ;;      Locals:         0       0       0       0       0       0       0       0       0       0       0       0       
      +0       0       0       0       0       0       0       0       0       0       0       0       0       0       0       
      +0       0       0       0       0       0
  9434 ;;      Temps:          2       0       0       0       0       0       0       0       0       0       0       0       
      +0       0       0       0       0       0       0       0       0       0       0       0       0       0       0       
      +0       0       0       0       0       0
  9435 ;;      Totals:         4       0       0       0       0       0       0       0       0       0       0       0       
      +0       0       0       0       0       0       0       0       0       0       0       0       0       0       0       
      +0       0       0       0       0       0
  9436 ;;Total ram usage:        4 bytes
  9437 ;; Hardware stack levels used: 1
  9438 ;; This function calls:
  9439 ;;		Nothing
  9440 ;; This function is called by:
  9441 ;;		_reverseMode
  9442 ;;		_forwardMode
  9443 ;; This function uses a non-reentrant model
  9444 ;;
  9445                           
  9446                           	psect	text59
  9447  0040DE                     __ptext59:
  9448                           	callstack 0
  9449  0040DE                     _current:
  9450                           	callstack 24
  9451  0040DE                     
  9452                           ;Joystick.c: 106:     if (index && !acelerando) {
  9453  0040DE  5053               	movf	_index^0,w,c
  9454  0040E0  B4D8               	btfsc	status,2,c
  9455  0040E2  EF75  F020         	goto	i2u302_41
  9456  0040E6  EF77  F020         	goto	i2u302_40
  9457  0040EA                     i2u302_41:
  9458  0040EA  EFFA  F020         	goto	i2l1635
  9459  0040EE                     i2u302_40:
  9460  0040EE  5045               	movf	_acelerando^0,w,c
  9461  0040F0  A4D8               	btfss	status,2,c
  9462  0040F2  EF7D  F020         	goto	i2u303_41
  9463  0040F6  EF7F  F020         	goto	i2u303_40
  9464  0040FA                     i2u303_41:
  9465  0040FA  EFFA  F020         	goto	i2l1635
  9466  0040FE                     i2u303_40:
  9467  0040FE                     
  9468                           ;Joystick.c: 108:         if (!empezoTimer) {
  9469  0040FE  504B               	movf	_empezoTimer^0,w,c
  9470  004100  A4D8               	btfss	status,2,c
  9471  004102  EF85  F020         	goto	i2u304_41
  9472  004106  EF87  F020         	goto	i2u304_40
  9473  00410A                     i2u304_41:
  9474  00410A  EF8F  F020         	goto	i2l1626
  9475  00410E                     i2u304_40:
  9476  00410E                     
  9477                           ;Joystick.c: 109:             PIE9bits.TMR6IE = 1;
  9478  00410E  0139               	movlb	57	; () banked
  9479  004110  8199               	bsf	153,0,b	;volatile
  9480  004112                     
  9481                           ; BSR set to: 57
  9482                           ;Joystick.c: 110:             TMR6 = 0;
  9483  004112  0E00               	movlw	0
  9484  004114  6E92               	movwf	146,c	;volatile
  9485  004116                     
  9486                           ; BSR set to: 57
  9487                           ;Joystick.c: 111:             PIR9bits.TMR6IF = 0;
  9488  004116  91A9               	bcf	169,0,b	;volatile
  9489  004118                     
  9490                           ; BSR set to: 57
  9491                           ;Joystick.c: 112:             T6CONbits.TMR6ON = 1;
  9492  004118  8E94               	bsf	148,7,c	;volatile
  9493                           
  9494                           ;Joystick.c: 113:             empezoTimer = 1;
  9495  00411A  0E01               	movlw	1
  9496  00411C  6E4B               	movwf	_empezoTimer^0,c
  9497  00411E                     i2l1626:
  9498                           
  9499                           ;Joystick.c: 116:         if (timer6) {
  9500  00411E  5052               	movf	_timer6^0,w,c
  9501  004120  B4D8               	btfsc	status,2,c
  9502  004122  EF95  F020         	goto	i2u305_41
  9503  004126  EF97  F020         	goto	i2u305_40
  9504  00412A                     i2u305_41:
  9505  00412A  EFFA  F020         	goto	i2l1635
  9506  00412E                     i2u305_40:
  9507  00412E                     
  9508                           ;Joystick.c: 117:             timer6 = 0;
  9509  00412E  0E00               	movlw	0
  9510  004130  6E52               	movwf	_timer6^0,c
  9511  004132                     
  9512                           ;Joystick.c: 119:             contConm++;
  9513  004132  4A58               	infsnz	_contConm^0,f,c
  9514  004134  2A59               	incf	(_contConm+1)^0,f,c
  9515  004136                     
  9516                           ;Joystick.c: 121:             if (contConm>-1 && contConm < 6) {
  9517  004136  BE59               	btfsc	(_contConm+1)^0,7,c
  9518  004138  EFA0  F020         	goto	i2u306_41
  9519  00413C  EFA2  F020         	goto	i2u306_40
  9520  004140                     i2u306_41:
  9521  004140  EFFA  F020         	goto	i2l1635
  9522  004144                     i2u306_40:
  9523  004144  BE59               	btfsc	(_contConm+1)^0,7,c
  9524  004146  EFB0  F020         	goto	i2u307_40
  9525  00414A  5059               	movf	(_contConm+1)^0,w,c
  9526  00414C  E107               	bnz	i2u307_41
  9527  00414E  0E06               	movlw	6
  9528  004150  5C58               	subwf	_contConm^0,w,c
  9529  004152  B0D8               	btfsc	status,0,c
  9530  004154  EFAE  F020         	goto	i2u307_41
  9531  004158  EFB0  F020         	goto	i2u307_40
  9532  00415C                     i2u307_41:
  9533  00415C  EFFA  F020         	goto	i2l1635
  9534  004160                     i2u307_40:
  9535  004160                     
  9536                           ;Joystick.c: 122:                 if (current == 1) ADPCH = channel_ANA7;
  9537  004160  0401               	decf	current@current^0,w,c
  9538  004162  1002               	iorwf	(current@current+1)^0,w,c
  9539  004164  A4D8               	btfss	status,2,c
  9540  004166  EFB7  F020         	goto	i2u308_41
  9541  00416A  EFB9  F020         	goto	i2u308_40
  9542  00416E                     i2u308_41:
  9543  00416E  EFBC  F020         	goto	i2l4557
  9544  004172                     i2u308_40:
  9545  004172  0E07               	movlw	7
  9546  004174  013E               	movlb	62	; () banked
  9547  004176  6FF1               	movwf	241,b	;volatile
  9548  004178                     i2l4557:
  9549                           
  9550                           ;Joystick.c: 123:                 if (current == 2) ADPCH = channel_ANA6;
  9551  004178  0E02               	movlw	2
  9552  00417A  1801               	xorwf	current@current^0,w,c
  9553  00417C  1002               	iorwf	(current@current+1)^0,w,c
  9554  00417E  A4D8               	btfss	status,2,c
  9555  004180  EFC4  F020         	goto	i2u309_41
  9556  004184  EFC6  F020         	goto	i2u309_40
  9557  004188                     i2u309_41:
  9558  004188  EFC9  F020         	goto	i2l4561
  9559  00418C                     i2u309_40:
  9560  00418C  0E06               	movlw	6
  9561  00418E  013E               	movlb	62	; () banked
  9562  004190  6FF1               	movwf	241,b	;volatile
  9563  004192                     i2l4561:
  9564                           
  9565                           ;Joystick.c: 124:                 if (current == 3) ADPCH = channel_ANC0;
  9566  004192  0E03               	movlw	3
  9567  004194  1801               	xorwf	current@current^0,w,c
  9568  004196  1002               	iorwf	(current@current+1)^0,w,c
  9569  004198  A4D8               	btfss	status,2,c
  9570  00419A  EFD1  F020         	goto	i2u310_41
  9571  00419E  EFD3  F020         	goto	i2u310_40
  9572  0041A2                     i2u310_41:
  9573  0041A2  EFD6  F020         	goto	i2l4565
  9574  0041A6                     i2u310_40:
  9575  0041A6  0E10               	movlw	16
  9576  0041A8  013E               	movlb	62	; () banked
  9577  0041AA  6FF1               	movwf	241,b	;volatile
  9578  0041AC                     i2l4565:
  9579                           
  9580                           ;Joystick.c: 127:                 ADCON0bits.ADON = 1;
  9581  0041AC  013E               	movlb	62	; () banked
  9582  0041AE  8FF8               	bsf	248,7,b	;volatile
  9583  0041B0                     
  9584                           ; BSR set to: 62
  9585                           ;Joystick.c: 130:                 ADCON0bits.ADGO = 1;
  9586  0041B0  81F8               	bsf	248,0,b	;volatile
  9587  0041B2                     i2l1632:
  9588                           
  9589                           ; BSR set to: 62
  9590  0041B2  B1F8               	btfsc	248,0,b	;volatile
  9591  0041B4  EFDE  F020         	goto	i2u311_41
  9592  0041B8  EFE0  F020         	goto	i2u311_40
  9593  0041BC                     i2u311_41:
  9594  0041BC  EFD9  F020         	goto	i2l1632
  9595  0041C0                     i2u311_40:
  9596  0041C0                     
  9597                           ; BSR set to: 62
  9598                           ;Joystick.c: 133:                 corriente[contConm] = (uint16_t) ((ADRESH << 8) + ADRE
      +                          SL);
  9599  0041C0  51EF               	movf	239,w,b	;volatile
  9600  0041C2  006F FBC0  F003    	movff	16112,??_current	;volatile
  9601  0041C8  6A04               	clrf	(??_current+1)^0,c
  9602  0041CA  C003  F004         	movff	??_current,??_current+1
  9603  0041CE  6A03               	clrf	??_current^0,c
  9604  0041D0  2603               	addwf	??_current^0,f,c
  9605  0041D2  0E00               	movlw	0
  9606  0041D4  2204               	addwfc	(??_current+1)^0,f,c
  9607  0041D6  90D8               	bcf	status,0,c
  9608  0041D8  3458               	rlcf	_contConm^0,w,c
  9609  0041DA  6ED9               	movwf	fsr2l,c
  9610  0041DC  3459               	rlcf	(_contConm+1)^0,w,c
  9611  0041DE  6EDA               	movwf	fsr2h,c
  9612  0041E0  0E00               	movlw	low _corriente
  9613  0041E2  26D9               	addwf	fsr2l,f,c
  9614  0041E4  0E01               	movlw	high _corriente
  9615  0041E6  22DA               	addwfc	fsr2h,f,c
  9616  0041E8  0060  F00F  FFDE   	movff	??_current,postinc2
  9617  0041EE  0060  F013  FFDD   	movff	??_current+1,postdec2
  9618  0041F4                     i2l1635:
  9619  0041F4  0012               	return		;funcret
  9620  0041F6                     __end_of_current:
  9621                           	callstack 0
  9622                           
  9623 ;; *************** function _STOP *****************
  9624 ;; Defined at:
  9625 ;;		line 16 in file "DirCCW.c"
  9626 ;; Parameters:    Size  Location     Type
  9627 ;;		None
  9628 ;; Auto vars:     Size  Location     Type
  9629 ;;		None
  9630 ;; Return value:  Size  Location     Type
  9631 ;;                  1    wreg      void 
  9632 ;; Registers used:
  9633 ;;		None
  9634 ;; Tracked objects:
  9635 ;;		On entry : 0/0
  9636 ;;		On exit  : 0/0
  9637 ;;		Unchanged: 0/0
  9638 ;; Data sizes:     COMRAM   BANK0   BANK1   BANK2   BANK3   BANK4   BANK5   BANK6   BANK7   BANK8   BANK9  BANK10  BANK1
      +1  BANK12  BANK13  BANK14  BANK15  BANK16  BANK17  BANK18  BANK19  BANK20  BANK21  BANK22  BANK23  BANK24  BANK25  BANK2
      +6  BANK27  BANK28  BANK29  BANK30  BANK31
  9639 ;;      Params:         0       0       0       0       0       0       0       0       0       0       0       0       
      +0       0       0       0       0       0       0       0       0       0       0       0       0       0       0       
      +0       0       0       0       0       0
  9640 ;;      Locals:         0       0       0       0       0       0       0       0       0       0       0       0       
      +0       0       0       0       0       0       0       0       0       0       0       0       0       0       0       
      +0       0       0       0       0       0
  9641 ;;      Temps:          0       0       0       0       0       0       0       0       0       0       0       0       
      +0       0       0       0       0       0       0       0       0       0       0       0       0       0       0       
      +0       0       0       0       0       0
  9642 ;;      Totals:         0       0       0       0       0       0       0       0       0       0       0       0       
      +0       0       0       0       0       0       0       0       0       0       0       0       0       0       0       
      +0       0       0       0       0       0
  9643 ;;Total ram usage:        0 bytes
  9644 ;; Hardware stack levels used: 1
  9645 ;; This function calls:
  9646 ;;		Nothing
  9647 ;; This function is called by:
  9648 ;;		_actualizarEstadoMotor
  9649 ;; This function uses a non-reentrant model
  9650 ;;
  9651                           
  9652                           	psect	text60
  9653  004BC4                     __ptext60:
  9654                           	callstack 0
  9655  004BC4                     _STOP:
  9656                           	callstack 25
  9657  004BC4                     
  9658                           ;DirCCW.c: 19:         CWG1STRbits.OVRB = 0;
  9659  004BC4  013F               	movlb	63	; () banked
  9660  004BC6  9B5A               	bcf	90,5,b	;volatile
  9661                           
  9662                           ;DirCCW.c: 20:         CWG1STRbits.STRB = 0;
  9663  004BC8  935A               	bcf	90,1,b	;volatile
  9664                           
  9665                           ;DirCCW.c: 23:         CWG1STRbits.OVRA = 0;
  9666  004BCA  995A               	bcf	90,4,b	;volatile
  9667                           
  9668                           ;DirCCW.c: 24:         CWG1STRbits.STRA = 0;
  9669  004BCC  915A               	bcf	90,0,b	;volatile
  9670                           
  9671                           ;DirCCW.c: 27:         CWG2STRbits.STRB = 0;
  9672  004BCE  9351               	bcf	81,1,b	;volatile
  9673                           
  9674                           ;DirCCW.c: 30:         CWG2STRbits.OVRA = 0;
  9675  004BD0  9951               	bcf	81,4,b	;volatile
  9676                           
  9677                           ;DirCCW.c: 31:         CWG2STRbits.STRA = 0;
  9678  004BD2  9151               	bcf	81,0,b	;volatile
  9679                           
  9680                           ;DirCCW.c: 34:         CWG3STRbits.OVRA = 0;
  9681  004BD4  9948               	bcf	72,4,b	;volatile
  9682                           
  9683                           ;DirCCW.c: 35:         CWG3STRbits.STRA = 0;
  9684  004BD6  9148               	bcf	72,0,b	;volatile
  9685                           
  9686                           ;DirCCW.c: 38:         CWG3STRbits.OVRB = 0;
  9687  004BD8  9B48               	bcf	72,5,b	;volatile
  9688                           
  9689                           ;DirCCW.c: 39:         CWG3STRbits.STRB = 0;
  9690  004BDA  9348               	bcf	72,1,b	;volatile
  9691  004BDC                     
  9692                           ; BSR set to: 63
  9693  004BDC  0012               	return		;funcret
  9694  004BDE                     __end_of_STOP:
  9695                           	callstack 0
  9696                           
  9697 ;; *************** function ___fldiv *****************
  9698 ;; Defined at:
  9699 ;;		line 11 in file "C:\Program Files\Microchip\xc8\v2.36\pic\sources\c99\common\sprcdiv.c"
  9700 ;; Parameters:    Size  Location     Type
  9701 ;;  b               4   14[COMRAM] void 
  9702 ;;  a               4   18[COMRAM] void 
  9703 ;; Auto vars:     Size  Location     Type
  9704 ;;  grs             4   33[COMRAM] unsigned long 
  9705 ;;  rem             4   26[COMRAM] unsigned long 
  9706 ;;  new_exp         2   31[COMRAM] short 
  9707 ;;  aexp            1   38[COMRAM] unsigned char 
  9708 ;;  bexp            1   37[COMRAM] unsigned char 
  9709 ;;  sign            1   30[COMRAM] unsigned char 
  9710 ;; Return value:  Size  Location     Type
  9711 ;;                  4   14[COMRAM] unsigned char 
  9712 ;; Registers used:
  9713 ;;		wreg, status,2, status,0
  9714 ;; Tracked objects:
  9715 ;;		On entry : 0/0
  9716 ;;		On exit  : 0/0
  9717 ;;		Unchanged: 0/0
  9718 ;; Data sizes:     COMRAM   BANK0   BANK1   BANK2   BANK3   BANK4   BANK5   BANK6   BANK7   BANK8   BANK9  BANK10  BANK1
      +1  BANK12  BANK13  BANK14  BANK15  BANK16  BANK17  BANK18  BANK19  BANK20  BANK21  BANK22  BANK23  BANK24  BANK25  BANK2
      +6  BANK27  BANK28  BANK29  BANK30  BANK31
  9719 ;;      Params:         8       0       0       0       0       0       0       0       0       0       0       0       
      +0       0       0       0       0       0       0       0       0       0       0       0       0       0       0       
      +0       0       0       0       0       0
  9720 ;;      Locals:        13       0       0       0       0       0       0       0       0       0       0       0       
      +0       0       0       0       0       0       0       0       0       0       0       0       0       0       0       
      +0       0       0       0       0       0
  9721 ;;      Temps:          4       0       0       0       0       0       0       0       0       0       0       0       
      +0       0       0       0       0       0       0       0       0       0       0       0       0       0       0       
      +0       0       0       0       0       0
  9722 ;;      Totals:        25       0       0       0       0       0       0       0       0       0       0       0       
      +0       0       0       0       0       0       0       0       0       0       0       0       0       0       0       
      +0       0       0       0       0       0
  9723 ;;Total ram usage:       25 bytes
  9724 ;; Hardware stack levels used: 1
  9725 ;; This function calls:
  9726 ;;		Nothing
  9727 ;; This function is called by:
  9728 ;;		_INTERRUPT_InterruptManager
  9729 ;; This function uses a non-reentrant model
  9730 ;;
  9731                           
  9732                           	psect	text61
  9733  0028A6                     __ptext61:
  9734                           	callstack 0
  9735  0028A6                     ___fldiv:
  9736                           	callstack 26
  9737  0028A6  5012               	movf	(___fldiv@b+3)^0,w,c
  9738  0028A8  0B80               	andlw	128
  9739  0028AA  6E1F               	movwf	___fldiv@sign^0,c
  9740  0028AC  5012               	movf	(___fldiv@b+3)^0,w,c
  9741  0028AE  2412               	addwf	(___fldiv@b+3)^0,w,c
  9742  0028B0  6E26               	movwf	___fldiv@bexp^0,c
  9743  0028B2  AE11               	btfss	(___fldiv@b+2)^0,7,c
  9744  0028B4  EF5E  F014         	goto	i2u477_41
  9745  0028B8  EF60  F014         	goto	i2u477_40
  9746  0028BC                     i2u477_41:
  9747  0028BC  EF61  F014         	goto	i2l5591
  9748  0028C0                     i2u477_40:
  9749  0028C0  8026               	bsf	___fldiv@bexp^0,0,c
  9750  0028C2                     i2l5591:
  9751  0028C2  5026               	movf	___fldiv@bexp^0,w,c
  9752  0028C4  B4D8               	btfsc	status,2,c
  9753  0028C6  EF67  F014         	goto	i2u478_41
  9754  0028CA  EF69  F014         	goto	i2u478_40
  9755  0028CE                     i2u478_41:
  9756  0028CE  EF7E  F014         	goto	i2l5601
  9757  0028D2                     i2u478_40:
  9758  0028D2  2826               	incf	___fldiv@bexp^0,w,c
  9759  0028D4  A4D8               	btfss	status,2,c
  9760  0028D6  EF6F  F014         	goto	i2u479_41
  9761  0028DA  EF71  F014         	goto	i2u479_40
  9762  0028DE                     i2u479_41:
  9763  0028DE  EF79  F014         	goto	i2l5597
  9764  0028E2                     i2u479_40:
  9765  0028E2  0E00               	movlw	0
  9766  0028E4  6E0F               	movwf	___fldiv@b^0,c
  9767  0028E6  0E00               	movlw	0
  9768  0028E8  6E10               	movwf	(___fldiv@b+1)^0,c
  9769  0028EA  0E00               	movlw	0
  9770  0028EC  6E11               	movwf	(___fldiv@b+2)^0,c
  9771  0028EE  0E00               	movlw	0
  9772  0028F0  6E12               	movwf	(___fldiv@b+3)^0,c
  9773  0028F2                     i2l5597:
  9774  0028F2  8E11               	bsf	(___fldiv@b+2)^0,7,c
  9775  0028F4  0E00               	movlw	0
  9776  0028F6  6E12               	movwf	(___fldiv@b+3)^0,c
  9777  0028F8  EF86  F014         	goto	i2l5603
  9778  0028FC                     i2l5601:
  9779  0028FC  0E00               	movlw	0
  9780  0028FE  6E0F               	movwf	___fldiv@b^0,c
  9781  002900  0E00               	movlw	0
  9782  002902  6E10               	movwf	(___fldiv@b+1)^0,c
  9783  002904  0E00               	movlw	0
  9784  002906  6E11               	movwf	(___fldiv@b+2)^0,c
  9785  002908  0E00               	movlw	0
  9786  00290A  6E12               	movwf	(___fldiv@b+3)^0,c
  9787  00290C                     i2l5603:
  9788  00290C  5016               	movf	(___fldiv@a+3)^0,w,c
  9789  00290E  0B80               	andlw	128
  9790  002910  1A1F               	xorwf	___fldiv@sign^0,f,c
  9791  002912  5016               	movf	(___fldiv@a+3)^0,w,c
  9792  002914  2416               	addwf	(___fldiv@a+3)^0,w,c
  9793  002916  6E27               	movwf	___fldiv@aexp^0,c
  9794  002918  AE15               	btfss	(___fldiv@a+2)^0,7,c
  9795  00291A  EF91  F014         	goto	i2u480_41
  9796  00291E  EF93  F014         	goto	i2u480_40
  9797  002922                     i2u480_41:
  9798  002922  EF94  F014         	goto	i2l5611
  9799  002926                     i2u480_40:
  9800  002926  8027               	bsf	___fldiv@aexp^0,0,c
  9801  002928                     i2l5611:
  9802  002928  5027               	movf	___fldiv@aexp^0,w,c
  9803  00292A  B4D8               	btfsc	status,2,c
  9804  00292C  EF9A  F014         	goto	i2u481_41
  9805  002930  EF9C  F014         	goto	i2u481_40
  9806  002934                     i2u481_41:
  9807  002934  EFB1  F014         	goto	i2l5621
  9808  002938                     i2u481_40:
  9809  002938  2827               	incf	___fldiv@aexp^0,w,c
  9810  00293A  A4D8               	btfss	status,2,c
  9811  00293C  EFA2  F014         	goto	i2u482_41
  9812  002940  EFA4  F014         	goto	i2u482_40
  9813  002944                     i2u482_41:
  9814  002944  EFAC  F014         	goto	i2l5617
  9815  002948                     i2u482_40:
  9816  002948  0E00               	movlw	0
  9817  00294A  6E13               	movwf	___fldiv@a^0,c
  9818  00294C  0E00               	movlw	0
  9819  00294E  6E14               	movwf	(___fldiv@a+1)^0,c
  9820  002950  0E00               	movlw	0
  9821  002952  6E15               	movwf	(___fldiv@a+2)^0,c
  9822  002954  0E00               	movlw	0
  9823  002956  6E16               	movwf	(___fldiv@a+3)^0,c
  9824  002958                     i2l5617:
  9825  002958  8E15               	bsf	(___fldiv@a+2)^0,7,c
  9826  00295A  0E00               	movlw	0
  9827  00295C  6E16               	movwf	(___fldiv@a+3)^0,c
  9828  00295E  EFB9  F014         	goto	i2l5623
  9829  002962                     i2l5621:
  9830  002962  0E00               	movlw	0
  9831  002964  6E13               	movwf	___fldiv@a^0,c
  9832  002966  0E00               	movlw	0
  9833  002968  6E14               	movwf	(___fldiv@a+1)^0,c
  9834  00296A  0E00               	movlw	0
  9835  00296C  6E15               	movwf	(___fldiv@a+2)^0,c
  9836  00296E  0E00               	movlw	0
  9837  002970  6E16               	movwf	(___fldiv@a+3)^0,c
  9838  002972                     i2l5623:
  9839  002972  5013               	movf	___fldiv@a^0,w,c
  9840  002974  1014               	iorwf	(___fldiv@a+1)^0,w,c
  9841  002976  1015               	iorwf	(___fldiv@a+2)^0,w,c
  9842  002978  1016               	iorwf	(___fldiv@a+3)^0,w,c
  9843  00297A  A4D8               	btfss	status,2,c
  9844  00297C  EFC2  F014         	goto	i2u483_41
  9845  002980  EFC4  F014         	goto	i2u483_40
  9846  002984                     i2u483_41:
  9847  002984  EFDC  F014         	goto	i2l5635
  9848  002988                     i2u483_40:
  9849  002988  0E00               	movlw	0
  9850  00298A  6E0F               	movwf	___fldiv@b^0,c
  9851  00298C  0E00               	movlw	0
  9852  00298E  6E10               	movwf	(___fldiv@b+1)^0,c
  9853  002990  0E00               	movlw	0
  9854  002992  6E11               	movwf	(___fldiv@b+2)^0,c
  9855  002994  0E00               	movlw	0
  9856  002996  6E12               	movwf	(___fldiv@b+3)^0,c
  9857  002998  0E80               	movlw	128
  9858  00299A  1211               	iorwf	(___fldiv@b+2)^0,f,c
  9859  00299C  0E7F               	movlw	127
  9860  00299E  1212               	iorwf	(___fldiv@b+3)^0,f,c
  9861  0029A0                     i2l5629:
  9862  0029A0  501F               	movf	___fldiv@sign^0,w,c
  9863  0029A2  1212               	iorwf	(___fldiv@b+3)^0,f,c
  9864  0029A4  C00F  F00F         	movff	___fldiv@b,?___fldiv
  9865  0029A8  C010  F010         	movff	___fldiv@b+1,?___fldiv+1
  9866  0029AC  C011  F011         	movff	___fldiv@b+2,?___fldiv+2
  9867  0029B0  C012  F012         	movff	___fldiv@b+3,?___fldiv+3
  9868  0029B4  EF1F  F016         	goto	i2l2282
  9869  0029B8                     i2l5635:
  9870  0029B8  5026               	movf	___fldiv@bexp^0,w,c
  9871  0029BA  A4D8               	btfss	status,2,c
  9872  0029BC  EFE2  F014         	goto	i2u484_41
  9873  0029C0  EFE4  F014         	goto	i2u484_40
  9874  0029C4                     i2u484_41:
  9875  0029C4  EFEE  F014         	goto	i2l5643
  9876  0029C8                     i2u484_40:
  9877  0029C8  0E00               	movlw	0
  9878  0029CA  6E0F               	movwf	?___fldiv^0,c
  9879  0029CC  0E00               	movlw	0
  9880  0029CE  6E10               	movwf	(?___fldiv+1)^0,c
  9881  0029D0  0E00               	movlw	0
  9882  0029D2  6E11               	movwf	(?___fldiv+2)^0,c
  9883  0029D4  0E00               	movlw	0
  9884  0029D6  6E12               	movwf	(?___fldiv+3)^0,c
  9885  0029D8  EF1F  F016         	goto	i2l2282
  9886  0029DC                     i2l5643:
  9887  0029DC  5027               	movf	___fldiv@aexp^0,w,c
  9888  0029DE  C026  F017         	movff	___fldiv@bexp,??___fldiv
  9889  0029E2  6A18               	clrf	(??___fldiv+1)^0,c
  9890  0029E4  5E17               	subwf	??___fldiv^0,f,c
  9891  0029E6  0E00               	movlw	0
  9892  0029E8  5A18               	subwfb	(??___fldiv+1)^0,f,c
  9893  0029EA  0E7F               	movlw	127
  9894  0029EC  2417               	addwf	??___fldiv^0,w,c
  9895  0029EE  6E20               	movwf	___fldiv@new_exp^0,c
  9896  0029F0  0E00               	movlw	0
  9897  0029F2  2018               	addwfc	(??___fldiv+1)^0,w,c
  9898  0029F4  6E21               	movwf	(___fldiv@new_exp+1)^0,c
  9899  0029F6  C00F  F01B         	movff	___fldiv@b,___fldiv@rem
  9900  0029FA  C010  F01C         	movff	___fldiv@b+1,___fldiv@rem+1
  9901  0029FE  C011  F01D         	movff	___fldiv@b+2,___fldiv@rem+2
  9902  002A02  C012  F01E         	movff	___fldiv@b+3,___fldiv@rem+3
  9903  002A06  0E00               	movlw	0
  9904  002A08  6E0F               	movwf	___fldiv@b^0,c
  9905  002A0A  0E00               	movlw	0
  9906  002A0C  6E10               	movwf	(___fldiv@b+1)^0,c
  9907  002A0E  0E00               	movlw	0
  9908  002A10  6E11               	movwf	(___fldiv@b+2)^0,c
  9909  002A12  0E00               	movlw	0
  9910  002A14  6E12               	movwf	(___fldiv@b+3)^0,c
  9911  002A16  0E00               	movlw	0
  9912  002A18  6E22               	movwf	___fldiv@grs^0,c
  9913  002A1A  0E00               	movlw	0
  9914  002A1C  6E23               	movwf	(___fldiv@grs+1)^0,c
  9915  002A1E  0E00               	movlw	0
  9916  002A20  6E24               	movwf	(___fldiv@grs+2)^0,c
  9917  002A22  0E00               	movlw	0
  9918  002A24  6E25               	movwf	(___fldiv@grs+3)^0,c
  9919  002A26  0E00               	movlw	0
  9920  002A28  6E27               	movwf	___fldiv@aexp^0,c
  9921  002A2A  EF4F  F015         	goto	i2l2284
  9922  002A2E                     i2l5653:
  9923  002A2E  5027               	movf	___fldiv@aexp^0,w,c
  9924  002A30  B4D8               	btfsc	status,2,c
  9925  002A32  EF1D  F015         	goto	i2u485_41
  9926  002A36  EF1F  F015         	goto	i2u485_40
  9927  002A3A                     i2u485_41:
  9928  002A3A  EF36  F015         	goto	i2l5661
  9929  002A3E                     i2u485_40:
  9930  002A3E  90D8               	bcf	status,0,c
  9931  002A40  361B               	rlcf	___fldiv@rem^0,f,c
  9932  002A42  361C               	rlcf	(___fldiv@rem+1)^0,f,c
  9933  002A44  361D               	rlcf	(___fldiv@rem+2)^0,f,c
  9934  002A46  361E               	rlcf	(___fldiv@rem+3)^0,f,c
  9935  002A48  90D8               	bcf	status,0,c
  9936  002A4A  360F               	rlcf	___fldiv@b^0,f,c
  9937  002A4C  3610               	rlcf	(___fldiv@b+1)^0,f,c
  9938  002A4E  3611               	rlcf	(___fldiv@b+2)^0,f,c
  9939  002A50  3612               	rlcf	(___fldiv@b+3)^0,f,c
  9940  002A52  AE25               	btfss	(___fldiv@grs+3)^0,7,c
  9941  002A54  EF2E  F015         	goto	i2u486_41
  9942  002A58  EF30  F015         	goto	i2u486_40
  9943  002A5C                     i2u486_41:
  9944  002A5C  EF31  F015         	goto	i2l2287
  9945  002A60                     i2u486_40:
  9946  002A60  800F               	bsf	___fldiv@b^0,0,c
  9947  002A62                     i2l2287:
  9948  002A62  90D8               	bcf	status,0,c
  9949  002A64  3622               	rlcf	___fldiv@grs^0,f,c
  9950  002A66  3623               	rlcf	(___fldiv@grs+1)^0,f,c
  9951  002A68  3624               	rlcf	(___fldiv@grs+2)^0,f,c
  9952  002A6A  3625               	rlcf	(___fldiv@grs+3)^0,f,c
  9953  002A6C                     i2l5661:
  9954  002A6C  5013               	movf	___fldiv@a^0,w,c
  9955  002A6E  5C1B               	subwf	___fldiv@rem^0,w,c
  9956  002A70  5014               	movf	(___fldiv@a+1)^0,w,c
  9957  002A72  581C               	subwfb	(___fldiv@rem+1)^0,w,c
  9958  002A74  5015               	movf	(___fldiv@a+2)^0,w,c
  9959  002A76  581D               	subwfb	(___fldiv@rem+2)^0,w,c
  9960  002A78  5016               	movf	(___fldiv@a+3)^0,w,c
  9961  002A7A  581E               	subwfb	(___fldiv@rem+3)^0,w,c
  9962  002A7C  A0D8               	btfss	status,0,c
  9963  002A7E  EF43  F015         	goto	i2u487_41
  9964  002A82  EF45  F015         	goto	i2u487_40
  9965  002A86                     i2u487_41:
  9966  002A86  EF4E  F015         	goto	i2l5667
  9967  002A8A                     i2u487_40:
  9968  002A8A  8C25               	bsf	(___fldiv@grs+3)^0,6,c
  9969  002A8C  5013               	movf	___fldiv@a^0,w,c
  9970  002A8E  5E1B               	subwf	___fldiv@rem^0,f,c
  9971  002A90  5014               	movf	(___fldiv@a+1)^0,w,c
  9972  002A92  5A1C               	subwfb	(___fldiv@rem+1)^0,f,c
  9973  002A94  5015               	movf	(___fldiv@a+2)^0,w,c
  9974  002A96  5A1D               	subwfb	(___fldiv@rem+2)^0,f,c
  9975  002A98  5016               	movf	(___fldiv@a+3)^0,w,c
  9976  002A9A  5A1E               	subwfb	(___fldiv@rem+3)^0,f,c
  9977  002A9C                     i2l5667:
  9978  002A9C  2A27               	incf	___fldiv@aexp^0,f,c
  9979  002A9E                     i2l2284:
  9980  002A9E  0E19               	movlw	25
  9981  002AA0  6427               	cpfsgt	___fldiv@aexp^0,c
  9982  002AA2  EF55  F015         	goto	i2u488_41
  9983  002AA6  EF57  F015         	goto	i2u488_40
  9984  002AAA                     i2u488_41:
  9985  002AAA  EF17  F015         	goto	i2l5653
  9986  002AAE                     i2u488_40:
  9987  002AAE  501B               	movf	___fldiv@rem^0,w,c
  9988  002AB0  101C               	iorwf	(___fldiv@rem+1)^0,w,c
  9989  002AB2  101D               	iorwf	(___fldiv@rem+2)^0,w,c
  9990  002AB4  101E               	iorwf	(___fldiv@rem+3)^0,w,c
  9991  002AB6  B4D8               	btfsc	status,2,c
  9992  002AB8  EF60  F015         	goto	i2u489_41
  9993  002ABC  EF62  F015         	goto	i2u489_40
  9994  002AC0                     i2u489_41:
  9995  002AC0  EF7A  F015         	goto	i2l5679
  9996  002AC4                     i2u489_40:
  9997  002AC4  8022               	bsf	___fldiv@grs^0,0,c
  9998  002AC6  EF7A  F015         	goto	i2l5679
  9999  002ACA                     i2l5673:
 10000  002ACA  90D8               	bcf	status,0,c
 10001  002ACC  360F               	rlcf	___fldiv@b^0,f,c
 10002  002ACE  3610               	rlcf	(___fldiv@b+1)^0,f,c
 10003  002AD0  3611               	rlcf	(___fldiv@b+2)^0,f,c
 10004  002AD2  3612               	rlcf	(___fldiv@b+3)^0,f,c
 10005  002AD4  AE25               	btfss	(___fldiv@grs+3)^0,7,c
 10006  002AD6  EF6F  F015         	goto	i2u490_41
 10007  002ADA  EF71  F015         	goto	i2u490_40
 10008  002ADE                     i2u490_41:
 10009  002ADE  EF72  F015         	goto	i2l2293
 10010  002AE2                     i2u490_40:
 10011  002AE2  800F               	bsf	___fldiv@b^0,0,c
 10012  002AE4                     i2l2293:
 10013  002AE4  90D8               	bcf	status,0,c
 10014  002AE6  3622               	rlcf	___fldiv@grs^0,f,c
 10015  002AE8  3623               	rlcf	(___fldiv@grs+1)^0,f,c
 10016  002AEA  3624               	rlcf	(___fldiv@grs+2)^0,f,c
 10017  002AEC  3625               	rlcf	(___fldiv@grs+3)^0,f,c
 10018  002AEE  0620               	decf	___fldiv@new_exp^0,f,c
 10019  002AF0  A0D8               	btfss	status,0,c
 10020  002AF2  0621               	decf	(___fldiv@new_exp+1)^0,f,c
 10021  002AF4                     i2l5679:
 10022  002AF4  AE11               	btfss	(___fldiv@b+2)^0,7,c
 10023  002AF6  EF7F  F015         	goto	i2u491_41
 10024  002AFA  EF81  F015         	goto	i2u491_40
 10025  002AFE                     i2u491_41:
 10026  002AFE  EF65  F015         	goto	i2l5673
 10027  002B02                     i2u491_40:
 10028  002B02  0E00               	movlw	0
 10029  002B04  6E27               	movwf	___fldiv@aexp^0,c
 10030  002B06  AE25               	btfss	(___fldiv@grs+3)^0,7,c
 10031  002B08  EF88  F015         	goto	i2u492_41
 10032  002B0C  EF8A  F015         	goto	i2u492_40
 10033  002B10                     i2u492_41:
 10034  002B10  EFAE  F015         	goto	i2l2295
 10035  002B14                     i2u492_40:
 10036  002B14  0EFF               	movlw	255
 10037  002B16  1422               	andwf	___fldiv@grs^0,w,c
 10038  002B18  6E17               	movwf	??___fldiv^0,c
 10039  002B1A  0EFF               	movlw	255
 10040  002B1C  1423               	andwf	(___fldiv@grs+1)^0,w,c
 10041  002B1E  6E18               	movwf	(??___fldiv+1)^0,c
 10042  002B20  0EFF               	movlw	255
 10043  002B22  1424               	andwf	(___fldiv@grs+2)^0,w,c
 10044  002B24  6E19               	movwf	(??___fldiv+2)^0,c
 10045  002B26  0E7F               	movlw	127
 10046  002B28  1425               	andwf	(___fldiv@grs+3)^0,w,c
 10047  002B2A  6E1A               	movwf	(??___fldiv+3)^0,c
 10048  002B2C  5017               	movf	??___fldiv^0,w,c
 10049  002B2E  1018               	iorwf	(??___fldiv+1)^0,w,c
 10050  002B30  1019               	iorwf	(??___fldiv+2)^0,w,c
 10051  002B32  101A               	iorwf	(??___fldiv+3)^0,w,c
 10052  002B34  B4D8               	btfsc	status,2,c
 10053  002B36  EF9F  F015         	goto	i2u493_41
 10054  002B3A  EFA1  F015         	goto	i2u493_40
 10055  002B3E                     i2u493_41:
 10056  002B3E  EFA5  F015         	goto	i2l2296
 10057  002B42                     i2u493_40:
 10058  002B42                     i2l5687:
 10059  002B42  0E01               	movlw	1
 10060  002B44  6E27               	movwf	___fldiv@aexp^0,c
 10061  002B46  EFAE  F015         	goto	i2l2295
 10062  002B4A                     i2l2296:
 10063  002B4A  A00F               	btfss	___fldiv@b^0,0,c
 10064  002B4C  EFAA  F015         	goto	i2u494_41
 10065  002B50  EFAC  F015         	goto	i2u494_40
 10066  002B54                     i2u494_41:
 10067  002B54  EFAE  F015         	goto	i2l2295
 10068  002B58                     i2u494_40:
 10069  002B58  EFA1  F015         	goto	i2l5687
 10070  002B5C                     i2l2295:
 10071  002B5C  5027               	movf	___fldiv@aexp^0,w,c
 10072  002B5E  B4D8               	btfsc	status,2,c
 10073  002B60  EFB4  F015         	goto	i2u495_41
 10074  002B64  EFB6  F015         	goto	i2u495_40
 10075  002B68                     i2u495_41:
 10076  002B68  EFDA  F015         	goto	i2l5699
 10077  002B6C                     i2u495_40:
 10078  002B6C  0E01               	movlw	1
 10079  002B6E  260F               	addwf	___fldiv@b^0,f,c
 10080  002B70  0E00               	movlw	0
 10081  002B72  2210               	addwfc	(___fldiv@b+1)^0,f,c
 10082  002B74  2211               	addwfc	(___fldiv@b+2)^0,f,c
 10083  002B76  2212               	addwfc	(___fldiv@b+3)^0,f,c
 10084  002B78  A012               	btfss	(___fldiv@b+3)^0,0,c
 10085  002B7A  EFC1  F015         	goto	i2u496_41
 10086  002B7E  EFC3  F015         	goto	i2u496_40
 10087  002B82                     i2u496_41:
 10088  002B82  EFDA  F015         	goto	i2l5699
 10089  002B86                     i2u496_40:
 10090  002B86  C00F  F017         	movff	___fldiv@b,??___fldiv
 10091  002B8A  C010  F018         	movff	___fldiv@b+1,??___fldiv+1
 10092  002B8E  C011  F019         	movff	___fldiv@b+2,??___fldiv+2
 10093  002B92  C012  F01A         	movff	___fldiv@b+3,??___fldiv+3
 10094  002B96  341A               	rlcf	(??___fldiv+3)^0,w,c
 10095  002B98  321A               	rrcf	(??___fldiv+3)^0,f,c
 10096  002B9A  3219               	rrcf	(??___fldiv+2)^0,f,c
 10097  002B9C  3218               	rrcf	(??___fldiv+1)^0,f,c
 10098  002B9E  3217               	rrcf	??___fldiv^0,f,c
 10099  002BA0  C017  F00F         	movff	??___fldiv,___fldiv@b
 10100  002BA4  C018  F010         	movff	??___fldiv+1,___fldiv@b+1
 10101  002BA8  C019  F011         	movff	??___fldiv+2,___fldiv@b+2
 10102  002BAC  C01A  F012         	movff	??___fldiv+3,___fldiv@b+3
 10103  002BB0  4A20               	infsnz	___fldiv@new_exp^0,f,c
 10104  002BB2  2A21               	incf	(___fldiv@new_exp+1)^0,f,c
 10105  002BB4                     i2l5699:
 10106  002BB4  BE21               	btfsc	(___fldiv@new_exp+1)^0,7,c
 10107  002BB6  EFE5  F015         	goto	i2u497_41
 10108  002BBA  5021               	movf	(___fldiv@new_exp+1)^0,w,c
 10109  002BBC  E108               	bnz	i2u497_40
 10110  002BBE  2820               	incf	___fldiv@new_exp^0,w,c
 10111  002BC0  A0D8               	btfss	status,0,c
 10112  002BC2  EFE5  F015         	goto	i2u497_41
 10113  002BC6  EFE7  F015         	goto	i2u497_40
 10114  002BCA                     i2u497_41:
 10115  002BCA  EFF2  F015         	goto	i2l5703
 10116  002BCE                     i2u497_40:
 10117  002BCE  0E00               	movlw	0
 10118  002BD0  6E21               	movwf	(___fldiv@new_exp+1)^0,c
 10119  002BD2  6820               	setf	___fldiv@new_exp^0,c
 10120  002BD4  0E00               	movlw	0
 10121  002BD6  6E0F               	movwf	___fldiv@b^0,c
 10122  002BD8  0E00               	movlw	0
 10123  002BDA  6E10               	movwf	(___fldiv@b+1)^0,c
 10124  002BDC  0E00               	movlw	0
 10125  002BDE  6E11               	movwf	(___fldiv@b+2)^0,c
 10126  002BE0  0E00               	movlw	0
 10127  002BE2  6E12               	movwf	(___fldiv@b+3)^0,c
 10128  002BE4                     i2l5703:
 10129  002BE4  BE21               	btfsc	(___fldiv@new_exp+1)^0,7,c
 10130  002BE6  EFFF  F015         	goto	i2u498_40
 10131  002BEA  5021               	movf	(___fldiv@new_exp+1)^0,w,c
 10132  002BEC  E106               	bnz	i2u498_41
 10133  002BEE  0420               	decf	___fldiv@new_exp^0,w,c
 10134  002BF0  B0D8               	btfsc	status,0,c
 10135  002BF2  EFFD  F015         	goto	i2u498_41
 10136  002BF6  EFFF  F015         	goto	i2u498_40
 10137  002BFA                     i2u498_41:
 10138  002BFA  EF0D  F016         	goto	i2l5707
 10139  002BFE                     i2u498_40:
 10140  002BFE  0E00               	movlw	0
 10141  002C00  6E21               	movwf	(___fldiv@new_exp+1)^0,c
 10142  002C02  0E00               	movlw	0
 10143  002C04  6E20               	movwf	___fldiv@new_exp^0,c
 10144  002C06  0E00               	movlw	0
 10145  002C08  6E0F               	movwf	___fldiv@b^0,c
 10146  002C0A  0E00               	movlw	0
 10147  002C0C  6E10               	movwf	(___fldiv@b+1)^0,c
 10148  002C0E  0E00               	movlw	0
 10149  002C10  6E11               	movwf	(___fldiv@b+2)^0,c
 10150  002C12  0E00               	movlw	0
 10151  002C14  6E12               	movwf	(___fldiv@b+3)^0,c
 10152  002C16  0E00               	movlw	0
 10153  002C18  6E1F               	movwf	___fldiv@sign^0,c
 10154  002C1A                     i2l5707:
 10155  002C1A  C020  F026         	movff	___fldiv@new_exp,___fldiv@bexp
 10156  002C1E  A026               	btfss	___fldiv@bexp^0,0,c
 10157  002C20  EF14  F016         	goto	i2u499_41
 10158  002C24  EF16  F016         	goto	i2u499_40
 10159  002C28                     i2u499_41:
 10160  002C28  EF19  F016         	goto	i2l5713
 10161  002C2C                     i2u499_40:
 10162  002C2C  8E11               	bsf	(___fldiv@b+2)^0,7,c
 10163  002C2E  EF1A  F016         	goto	i2l5715
 10164  002C32                     i2l5713:
 10165  002C32  9E11               	bcf	(___fldiv@b+2)^0,7,c
 10166  002C34                     i2l5715:
 10167  002C34  90D8               	bcf	status,0,c
 10168  002C36  3026               	rrcf	___fldiv@bexp^0,w,c
 10169  002C38  6E12               	movwf	(___fldiv@b+3)^0,c
 10170  002C3A  EFD0  F014         	goto	i2l5629
 10171  002C3E                     i2l2282:
 10172  002C3E  0012               	return		;funcret
 10173  002C40                     __end_of___fldiv:
 10174                           	callstack 0
 10175                           
 10176 ;; *************** function _UART1_Receive *****************
 10177 ;; Defined at:
 10178 ;;		line 184 in file "mcc_generated_files/uart1.c"
 10179 ;; Parameters:    Size  Location     Type
 10180 ;;		None
 10181 ;; Auto vars:     Size  Location     Type
 10182 ;;  tempRxHead      1    3[COMRAM] unsigned char 
 10183 ;;  regValue        1    2[COMRAM] unsigned char 
 10184 ;; Return value:  Size  Location     Type
 10185 ;;                  1    wreg      void 
 10186 ;; Registers used:
 10187 ;;		wreg, fsr2l, fsr2h, status,2, status,0, pcl, pclath, pclatu, tosl, cstack
 10188 ;; Tracked objects:
 10189 ;;		On entry : 0/0
 10190 ;;		On exit  : 0/0
 10191 ;;		Unchanged: 0/0
 10192 ;; Data sizes:     COMRAM   BANK0   BANK1   BANK2   BANK3   BANK4   BANK5   BANK6   BANK7   BANK8   BANK9  BANK10  BANK1
      +1  BANK12  BANK13  BANK14  BANK15  BANK16  BANK17  BANK18  BANK19  BANK20  BANK21  BANK22  BANK23  BANK24  BANK25  BANK2
      +6  BANK27  BANK28  BANK29  BANK30  BANK31
 10193 ;;      Params:         0       0       0       0       0       0       0       0       0       0       0       0       
      +0       0       0       0       0       0       0       0       0       0       0       0       0       0       0       
      +0       0       0       0       0       0
 10194 ;;      Locals:         2       0       0       0       0       0       0       0       0       0       0       0       
      +0       0       0       0       0       0       0       0       0       0       0       0       0       0       0       
      +0       0       0       0       0       0
 10195 ;;      Temps:          0       0       0       0       0       0       0       0       0       0       0       0       
      +0       0       0       0       0       0       0       0       0       0       0       0       0       0       0       
      +0       0       0       0       0       0
 10196 ;;      Totals:         2       0       0       0       0       0       0       0       0       0       0       0       
      +0       0       0       0       0       0       0       0       0       0       0       0       0       0       0       
      +0       0       0       0       0       0
 10197 ;;Total ram usage:        2 bytes
 10198 ;; Hardware stack levels used: 1
 10199 ;; Hardware stack levels required when called: 1
 10200 ;; This function calls:
 10201 ;;		Absolute function
 10202 ;;		_UART1_DefaultFramingErrorHandler
 10203 ;;		_UART1_DefaultOverrunErrorHandler
 10204 ;;		_UART1_Read
 10205 ;; This function is called by:
 10206 ;;		_INTERRUPT_InterruptManager
 10207 ;; This function uses a non-reentrant model
 10208 ;;
 10209                           
 10210                           	psect	text62
 10211  00360E                     __ptext62:
 10212                           	callstack 0
 10213  00360E                     _UART1_Receive:
 10214                           	callstack 25
 10215  00360E                     
 10216                           ;mcc_generated_files/uart1.c: 185:     uint8_t regValue;;mcc_generated_files/uart1.c: 18
      +                          6:     uint8_t tempRxHead;;mcc_generated_files/uart1.c: 188:     uart1RxStatusBuffer[uar
      +                          t1RxHead].status = 0;
 10217  00360E  0E60               	movlw	low _uart1RxStatusBuffer
 10218  003610  244F               	addwf	_uart1RxHead^0,w,c	;volatile
 10219  003612  6ED9               	movwf	fsr2l,c
 10220  003614  6ADA               	clrf	fsr2h,c
 10221  003616  0E00               	movlw	high _uart1RxStatusBuffer
 10222  003618  22DA               	addwfc	fsr2h,f,c
 10223  00361A  0E00               	movlw	0
 10224  00361C  6EDF               	movwf	indf2,c
 10225  00361E                     
 10226                           ;mcc_generated_files/uart1.c: 190:     if (U1ERRIRbits.FERIF) {
 10227  00361E  013D               	movlb	61	; () banked
 10228  003620  A7F9               	btfss	249,3,b	;volatile
 10229  003622  EF15  F01B         	goto	i2u440_41
 10230  003626  EF17  F01B         	goto	i2u440_40
 10231  00362A                     i2u440_41:
 10232  00362A  EF36  F01B         	goto	i2l5365
 10233  00362E                     i2u440_40:
 10234  00362E                     
 10235                           ; BSR set to: 61
 10236                           ;mcc_generated_files/uart1.c: 191:         uart1RxStatusBuffer[uart1RxHead].ferr = 1;
 10237  00362E  0E60               	movlw	low _uart1RxStatusBuffer
 10238  003630  244F               	addwf	_uart1RxHead^0,w,c	;volatile
 10239  003632  6ED9               	movwf	fsr2l,c
 10240  003634  6ADA               	clrf	fsr2h,c
 10241  003636  0E00               	movlw	high _uart1RxStatusBuffer
 10242  003638  22DA               	addwfc	fsr2h,f,c
 10243  00363A  0100               	movlb	0	; () banked
 10244  00363C  82DF               	bsf	indf2,1,c
 10245  00363E                     
 10246                           ; BSR set to: 0
 10247                           ;mcc_generated_files/uart1.c: 192:         if (((void*)0) != UART1_FramingErrorHandler) 
      +                          {
 10248  00363E  51E6               	movf	_UART1_FramingErrorHandler& (0+255),w,b
 10249  003640  11E7               	iorwf	(_UART1_FramingErrorHandler+1)& (0+255),w,b
 10250  003642  11E8               	iorwf	(_UART1_FramingErrorHandler+2)& (0+255),w,b
 10251  003644  B4D8               	btfsc	status,2,c
 10252  003646  EF27  F01B         	goto	i2u441_41
 10253  00364A  EF29  F01B         	goto	i2u441_40
 10254  00364E                     i2u441_41:
 10255  00364E  EF36  F01B         	goto	i2l5365
 10256  003652                     i2u441_40:
 10257  003652                     
 10258                           ; BSR set to: 0
 10259                           ;mcc_generated_files/uart1.c: 193:             UART1_FramingErrorHandler();
 10260  003652  D802               	call	i2u442_48
 10261  003654  EF36  F01B         	goto	i2u442_49
 10262  003658                     i2u442_48:
 10263  003658  0005               	push	
 10264  00365A  6EFA               	movwf	pclath,c
 10265  00365C  51E6               	movf	_UART1_FramingErrorHandler& (0+255),w,b
 10266  00365E  6EFD               	movwf	tosl,c
 10267  003660  51E7               	movf	(_UART1_FramingErrorHandler+1)& (0+255),w,b
 10268  003662  6EFE               	movwf	tosh,c
 10269  003664  51E8               	movf	(_UART1_FramingErrorHandler+2)& (0+255),w,b
 10270  003666  6EFF               	movwf	tosu,c
 10271  003668  50FA               	movf	pclath,w,c
 10272  00366A  0012               	return		;indir
 10273  00366C                     i2u442_49:
 10274  00366C                     i2l5365:
 10275                           
 10276                           ;mcc_generated_files/uart1.c: 196:     if (U1ERRIRbits.RXFOIF) {
 10277  00366C  013D               	movlb	61	; () banked
 10278  00366E  A3F9               	btfss	249,1,b	;volatile
 10279  003670  EF3C  F01B         	goto	i2u443_41
 10280  003674  EF3E  F01B         	goto	i2u443_40
 10281  003678                     i2u443_41:
 10282  003678  EF5D  F01B         	goto	i2l5373
 10283  00367C                     i2u443_40:
 10284  00367C                     
 10285                           ; BSR set to: 61
 10286                           ;mcc_generated_files/uart1.c: 197:         uart1RxStatusBuffer[uart1RxHead].oerr = 1;
 10287  00367C  0E60               	movlw	low _uart1RxStatusBuffer
 10288  00367E  244F               	addwf	_uart1RxHead^0,w,c	;volatile
 10289  003680  6ED9               	movwf	fsr2l,c
 10290  003682  6ADA               	clrf	fsr2h,c
 10291  003684  0E00               	movlw	high _uart1RxStatusBuffer
 10292  003686  22DA               	addwfc	fsr2h,f,c
 10293  003688  0100               	movlb	0	; () banked
 10294  00368A  84DF               	bsf	indf2,2,c
 10295  00368C                     
 10296                           ; BSR set to: 0
 10297                           ;mcc_generated_files/uart1.c: 198:         if (((void*)0) != UART1_OverrunErrorHandler) 
      +                          {
 10298  00368C  51E3               	movf	_UART1_OverrunErrorHandler& (0+255),w,b
 10299  00368E  11E4               	iorwf	(_UART1_OverrunErrorHandler+1)& (0+255),w,b
 10300  003690  11E5               	iorwf	(_UART1_OverrunErrorHandler+2)& (0+255),w,b
 10301  003692  B4D8               	btfsc	status,2,c
 10302  003694  EF4E  F01B         	goto	i2u444_41
 10303  003698  EF50  F01B         	goto	i2u444_40
 10304  00369C                     i2u444_41:
 10305  00369C  EF5D  F01B         	goto	i2l5373
 10306  0036A0                     i2u444_40:
 10307  0036A0                     
 10308                           ; BSR set to: 0
 10309                           ;mcc_generated_files/uart1.c: 199:             UART1_OverrunErrorHandler();
 10310  0036A0  D802               	call	i2u445_48
 10311  0036A2  EF5D  F01B         	goto	i2u445_49
 10312  0036A6                     i2u445_48:
 10313  0036A6  0005               	push	
 10314  0036A8  6EFA               	movwf	pclath,c
 10315  0036AA  51E3               	movf	_UART1_OverrunErrorHandler& (0+255),w,b
 10316  0036AC  6EFD               	movwf	tosl,c
 10317  0036AE  51E4               	movf	(_UART1_OverrunErrorHandler+1)& (0+255),w,b
 10318  0036B0  6EFE               	movwf	tosh,c
 10319  0036B2  51E5               	movf	(_UART1_OverrunErrorHandler+2)& (0+255),w,b
 10320  0036B4  6EFF               	movwf	tosu,c
 10321  0036B6  50FA               	movf	pclath,w,c
 10322  0036B8  0012               	return		;indir
 10323  0036BA                     i2u445_49:
 10324  0036BA                     i2l5373:
 10325                           
 10326                           ;mcc_generated_files/uart1.c: 203:     regValue = U1RXB;
 10327  0036BA  006F F7A0  F003    	movff	15848,UART1_Receive@regValue	;volatile
 10328  0036C0                     
 10329                           ;mcc_generated_files/uart1.c: 205:     tempRxHead = (uart1RxHead + 1) & (8 - 1);
 10330  0036C0  284F               	incf	_uart1RxHead^0,w,c	;volatile
 10331  0036C2  0B07               	andlw	7
 10332  0036C4  6E04               	movwf	UART1_Receive@tempRxHead^0,c
 10333  0036C6                     
 10334                           ;mcc_generated_files/uart1.c: 206:     if (tempRxHead == uart1RxTail) {
 10335  0036C6  504E               	movf	_uart1RxTail^0,w,c	;volatile
 10336  0036C8  1804               	xorwf	UART1_Receive@tempRxHead^0,w,c
 10337  0036CA  A4D8               	btfss	status,2,c
 10338  0036CC  EF6A  F01B         	goto	i2u446_41
 10339  0036D0  EF6C  F01B         	goto	i2u446_40
 10340  0036D4                     i2u446_41:
 10341  0036D4  EF6E  F01B         	goto	i2l5381
 10342  0036D8                     i2u446_40:
 10343  0036D8  EF7A  F01B         	goto	i2l5389
 10344  0036DC                     i2l5381:
 10345                           
 10346                           ;mcc_generated_files/uart1.c: 209:         uart1RxBuffer[uart1RxHead] = regValue;
 10347  0036DC  0E68               	movlw	low _uart1RxBuffer
 10348  0036DE  244F               	addwf	_uart1RxHead^0,w,c	;volatile
 10349  0036E0  6ED9               	movwf	fsr2l,c
 10350  0036E2  6ADA               	clrf	fsr2h,c
 10351  0036E4  0E00               	movlw	high _uart1RxBuffer
 10352  0036E6  22DA               	addwfc	fsr2h,f,c
 10353  0036E8  0060  F00F  FFDF   	movff	UART1_Receive@regValue,indf2
 10354  0036EE                     
 10355                           ;mcc_generated_files/uart1.c: 210:         uart1RxHead = tempRxHead;
 10356  0036EE  C004  F04F         	movff	UART1_Receive@tempRxHead,_uart1RxHead	;volatile
 10357  0036F2                     
 10358                           ;mcc_generated_files/uart1.c: 211:         uart1RxCount++;
 10359  0036F2  2A4D               	incf	_uart1RxCount^0,f,c	;volatile
 10360  0036F4                     i2l5389:
 10361                           
 10362                           ;mcc_generated_files/uart1.c: 219:     dato = UART1_Read();
 10363  0036F4  ECFC  F024         	call	_UART1_Read	;wreg free
 10364  0036F8  6E50               	movwf	_dato^0,c
 10365  0036FA                     
 10366                           ;mcc_generated_files/uart1.c: 222:     if ((dato > 0x2A && dato < 0x30) || (dato == 0x55
      +                          ) || (dato == 0x44) || (dato == 0x4E)) {
 10367  0036FA  0E2A               	movlw	42
 10368  0036FC  6450               	cpfsgt	_dato^0,c
 10369  0036FE  EF83  F01B         	goto	i2u447_41
 10370  003702  EF85  F01B         	goto	i2u447_40
 10371  003706                     i2u447_41:
 10372  003706  EF8D  F01B         	goto	i2l5395
 10373  00370A                     i2u447_40:
 10374  00370A  0E2F               	movlw	47
 10375  00370C  6450               	cpfsgt	_dato^0,c
 10376  00370E  EF8B  F01B         	goto	i2u448_41
 10377  003712  EF8D  F01B         	goto	i2u448_40
 10378  003716                     i2u448_41:
 10379  003716  EFA8  F01B         	goto	i2l999
 10380  00371A                     i2u448_40:
 10381  00371A                     i2l5395:
 10382  00371A  0E55               	movlw	85
 10383  00371C  1850               	xorwf	_dato^0,w,c
 10384  00371E  B4D8               	btfsc	status,2,c
 10385  003720  EF94  F01B         	goto	i2u449_41
 10386  003724  EF96  F01B         	goto	i2u449_40
 10387  003728                     i2u449_41:
 10388  003728  EFA8  F01B         	goto	i2l999
 10389  00372C                     i2u449_40:
 10390  00372C  0E44               	movlw	68
 10391  00372E  1850               	xorwf	_dato^0,w,c
 10392  003730  B4D8               	btfsc	status,2,c
 10393  003732  EF9D  F01B         	goto	i2u450_41
 10394  003736  EF9F  F01B         	goto	i2u450_40
 10395  00373A                     i2u450_41:
 10396  00373A  EFA8  F01B         	goto	i2l999
 10397  00373E                     i2u450_40:
 10398  00373E  0E4E               	movlw	78
 10399  003740  1850               	xorwf	_dato^0,w,c
 10400  003742  A4D8               	btfss	status,2,c
 10401  003744  EFA6  F01B         	goto	i2u451_41
 10402  003748  EFA8  F01B         	goto	i2u451_40
 10403  00374C                     i2u451_41:
 10404  00374C  EFB0  F01B         	goto	i2l5403
 10405  003750                     i2u451_40:
 10406  003750                     i2l999:
 10407                           
 10408                           ;mcc_generated_files/uart1.c: 224:         leidos[0] = dato;
 10409  003750  C050  F080         	movff	_dato,_leidos
 10410  003754                     
 10411                           ;mcc_generated_files/uart1.c: 226:         leidos_ptr = 0;
 10412  003754  0E00               	movlw	0
 10413  003756  6E44               	movwf	(_leidos_ptr+1)^0,c	;volatile
 10414  003758  0E00               	movlw	0
 10415  00375A  6E43               	movwf	_leidos_ptr^0,c	;volatile
 10416                           
 10417                           ;mcc_generated_files/uart1.c: 228:     } else if (dato == 0x56) {
 10418  00375C  EF06  F01C         	goto	i2l1008
 10419  003760                     i2l5403:
 10420  003760  0E56               	movlw	86
 10421  003762  1850               	xorwf	_dato^0,w,c
 10422  003764  A4D8               	btfss	status,2,c
 10423  003766  EFB7  F01B         	goto	i2u452_41
 10424  00376A  EFB9  F01B         	goto	i2u452_40
 10425  00376E                     i2u452_41:
 10426  00376E  EFBF  F01B         	goto	i2l5409
 10427  003772                     i2u452_40:
 10428  003772                     
 10429                           ;mcc_generated_files/uart1.c: 229:         leidos[0] = dato;
 10430  003772  C050  F080         	movff	_dato,_leidos
 10431  003776                     
 10432                           ;mcc_generated_files/uart1.c: 230:         leidos_ptr++;
 10433  003776  4A43               	infsnz	_leidos_ptr^0,f,c	;volatile
 10434  003778  2A44               	incf	(_leidos_ptr+1)^0,f,c	;volatile
 10435                           
 10436                           ;mcc_generated_files/uart1.c: 231:     } else {
 10437  00377A  EF06  F01C         	goto	i2l1008
 10438  00377E                     i2l5409:
 10439                           
 10440                           ;mcc_generated_files/uart1.c: 233:         if ((dato > 0x2F && dato < 0x3A))leidos[leido
      +                          s_ptr++] = dato - 48;
 10441  00377E  0E2F               	movlw	47
 10442  003780  6450               	cpfsgt	_dato^0,c
 10443  003782  EFC5  F01B         	goto	i2u453_41
 10444  003786  EFC7  F01B         	goto	i2u453_40
 10445  00378A                     i2u453_41:
 10446  00378A  EFDA  F01B         	goto	i2l5417
 10447  00378E                     i2u453_40:
 10448  00378E  0E3A               	movlw	58
 10449  003790  6050               	cpfslt	_dato^0,c
 10450  003792  EFCD  F01B         	goto	i2u454_41
 10451  003796  EFCF  F01B         	goto	i2u454_40
 10452  00379A                     i2u454_41:
 10453  00379A  EFDA  F01B         	goto	i2l5417
 10454  00379E                     i2u454_40:
 10455  00379E  0E80               	movlw	low _leidos
 10456  0037A0  2443               	addwf	_leidos_ptr^0,w,c	;volatile
 10457  0037A2  6ED9               	movwf	fsr2l,c
 10458  0037A4  0E00               	movlw	high _leidos
 10459  0037A6  2044               	addwfc	(_leidos_ptr+1)^0,w,c	;volatile
 10460  0037A8  6EDA               	movwf	fsr2h,c
 10461  0037AA  5050               	movf	_dato^0,w,c
 10462  0037AC  0FD0               	addlw	208
 10463  0037AE  6EDF               	movwf	indf2,c
 10464  0037B0  4A43               	infsnz	_leidos_ptr^0,f,c	;volatile
 10465  0037B2  2A44               	incf	(_leidos_ptr+1)^0,f,c	;volatile
 10466  0037B4                     i2l5417:
 10467                           
 10468                           ;mcc_generated_files/uart1.c: 234:         if ((dato > 0x40 && dato < 0x47))leidos[leido
      +                          s_ptr++] = dato - 55;
 10469  0037B4  0E40               	movlw	64
 10470  0037B6  6450               	cpfsgt	_dato^0,c
 10471  0037B8  EFE0  F01B         	goto	i2u455_41
 10472  0037BC  EFE2  F01B         	goto	i2u455_40
 10473  0037C0                     i2u455_41:
 10474  0037C0  EFF5  F01B         	goto	i2l5425
 10475  0037C4                     i2u455_40:
 10476  0037C4  0E47               	movlw	71
 10477  0037C6  6050               	cpfslt	_dato^0,c
 10478  0037C8  EFE8  F01B         	goto	i2u456_41
 10479  0037CC  EFEA  F01B         	goto	i2u456_40
 10480  0037D0                     i2u456_41:
 10481  0037D0  EFF5  F01B         	goto	i2l5425
 10482  0037D4                     i2u456_40:
 10483  0037D4  0E80               	movlw	low _leidos
 10484  0037D6  2443               	addwf	_leidos_ptr^0,w,c	;volatile
 10485  0037D8  6ED9               	movwf	fsr2l,c
 10486  0037DA  0E00               	movlw	high _leidos
 10487  0037DC  2044               	addwfc	(_leidos_ptr+1)^0,w,c	;volatile
 10488  0037DE  6EDA               	movwf	fsr2h,c
 10489  0037E0  5050               	movf	_dato^0,w,c
 10490  0037E2  0FC9               	addlw	201
 10491  0037E4  6EDF               	movwf	indf2,c
 10492  0037E6  4A43               	infsnz	_leidos_ptr^0,f,c	;volatile
 10493  0037E8  2A44               	incf	(_leidos_ptr+1)^0,f,c	;volatile
 10494  0037EA                     i2l5425:
 10495                           
 10496                           ;mcc_generated_files/uart1.c: 237:         if (leidos_ptr == 4) {
 10497  0037EA  0E04               	movlw	4
 10498  0037EC  1843               	xorwf	_leidos_ptr^0,w,c	;volatile
 10499  0037EE  1044               	iorwf	(_leidos_ptr+1)^0,w,c	;volatile
 10500  0037F0  A4D8               	btfss	status,2,c
 10501  0037F2  EFFD  F01B         	goto	i2u457_41
 10502  0037F6  EFFF  F01B         	goto	i2u457_40
 10503  0037FA                     i2u457_41:
 10504  0037FA  EF06  F01C         	goto	i2l1008
 10505  0037FE                     i2u457_40:
 10506  0037FE                     
 10507                           ;mcc_generated_files/uart1.c: 238:             cambioVelocidad = 1;
 10508  0037FE  0E01               	movlw	1
 10509  003800  0100               	movlb	0	; () banked
 10510  003802  6FA5               	movwf	_cambioVelocidad& (0+255),b
 10511                           
 10512                           ;mcc_generated_files/uart1.c: 239:             leidos_ptr = 0;
 10513  003804  0E00               	movlw	0
 10514  003806  6E44               	movwf	(_leidos_ptr+1)^0,c	;volatile
 10515  003808  0E00               	movlw	0
 10516  00380A  6E43               	movwf	_leidos_ptr^0,c	;volatile
 10517  00380C                     i2l1008:
 10518  00380C  0012               	return		;funcret
 10519  00380E                     __end_of_UART1_Receive:
 10520                           	callstack 0
 10521                           
 10522 ;; *************** function _UART1_Read *****************
 10523 ;; Defined at:
 10524 ;;		line 244 in file "mcc_generated_files/uart1.c"
 10525 ;; Parameters:    Size  Location     Type
 10526 ;;		None
 10527 ;; Auto vars:     Size  Location     Type
 10528 ;;  readValue       1    1[COMRAM] unsigned char 
 10529 ;;  tempRxTail      1    0[COMRAM] unsigned char 
 10530 ;; Return value:  Size  Location     Type
 10531 ;;                  1    wreg      unsigned char 
 10532 ;; Registers used:
 10533 ;;		wreg, fsr2l, fsr2h, status,2, status,0
 10534 ;; Tracked objects:
 10535 ;;		On entry : 0/0
 10536 ;;		On exit  : 0/0
 10537 ;;		Unchanged: 0/0
 10538 ;; Data sizes:     COMRAM   BANK0   BANK1   BANK2   BANK3   BANK4   BANK5   BANK6   BANK7   BANK8   BANK9  BANK10  BANK1
      +1  BANK12  BANK13  BANK14  BANK15  BANK16  BANK17  BANK18  BANK19  BANK20  BANK21  BANK22  BANK23  BANK24  BANK25  BANK2
      +6  BANK27  BANK28  BANK29  BANK30  BANK31
 10539 ;;      Params:         0       0       0       0       0       0       0       0       0       0       0       0       
      +0       0       0       0       0       0       0       0       0       0       0       0       0       0       0       
      +0       0       0       0       0       0
 10540 ;;      Locals:         2       0       0       0       0       0       0       0       0       0       0       0       
      +0       0       0       0       0       0       0       0       0       0       0       0       0       0       0       
      +0       0       0       0       0       0
 10541 ;;      Temps:          0       0       0       0       0       0       0       0       0       0       0       0       
      +0       0       0       0       0       0       0       0       0       0       0       0       0       0       0       
      +0       0       0       0       0       0
 10542 ;;      Totals:         2       0       0       0       0       0       0       0       0       0       0       0       
      +0       0       0       0       0       0       0       0       0       0       0       0       0       0       0       
      +0       0       0       0       0       0
 10543 ;;Total ram usage:        2 bytes
 10544 ;; Hardware stack levels used: 1
 10545 ;; This function calls:
 10546 ;;		Nothing
 10547 ;; This function is called by:
 10548 ;;		_UART1_Receive
 10549 ;; This function uses a non-reentrant model
 10550 ;;
 10551                           
 10552                           	psect	text63
 10553  0049F8                     __ptext63:
 10554                           	callstack 0
 10555  0049F8                     _UART1_Read:
 10556                           	callstack 25
 10557  0049F8                     
 10558                           ;mcc_generated_files/uart1.c: 246:     uint8_t tempRxTail;;mcc_generated_files/uart1.c: 
      +                          248:     readValue = uart1RxBuffer[uart1RxTail];
 10559  0049F8  0E68               	movlw	low _uart1RxBuffer
 10560  0049FA  244E               	addwf	_uart1RxTail^0,w,c	;volatile
 10561  0049FC  6ED9               	movwf	fsr2l,c
 10562  0049FE  6ADA               	clrf	fsr2h,c
 10563  004A00  0E00               	movlw	high _uart1RxBuffer
 10564  004A02  22DA               	addwfc	fsr2h,f,c
 10565  004A04  50DF               	movf	indf2,w,c
 10566  004A06  6E02               	movwf	UART1_Read@readValue^0,c
 10567  004A08                     
 10568                           ;mcc_generated_files/uart1.c: 249:     tempRxTail = (uart1RxTail + 1) & (8 - 1);
 10569  004A08  284E               	incf	_uart1RxTail^0,w,c	;volatile
 10570  004A0A  0B07               	andlw	7
 10571  004A0C  6E01               	movwf	UART1_Read@tempRxTail^0,c
 10572  004A0E                     
 10573                           ;mcc_generated_files/uart1.c: 250:     uart1RxTail = tempRxTail;
 10574  004A0E  C001  F04E         	movff	UART1_Read@tempRxTail,_uart1RxTail	;volatile
 10575  004A12                     
 10576                           ;mcc_generated_files/uart1.c: 251:     PIE3bits.U1RXIE = 0;
 10577  004A12  0139               	movlb	57	; () banked
 10578  004A14  9793               	bcf	147,3,b	;volatile
 10579  004A16                     
 10580                           ; BSR set to: 57
 10581                           ;mcc_generated_files/uart1.c: 252:     if (uart1RxCount != 0) {
 10582  004A16  504D               	movf	_uart1RxCount^0,w,c	;volatile
 10583  004A18  B4D8               	btfsc	status,2,c
 10584  004A1A  EF11  F025         	goto	i2u349_41
 10585  004A1E  EF13  F025         	goto	i2u349_40
 10586  004A22                     i2u349_41:
 10587  004A22  EF14  F025         	goto	i2l4989
 10588  004A26                     i2u349_40:
 10589  004A26                     
 10590                           ; BSR set to: 57
 10591                           ;mcc_generated_files/uart1.c: 253:         uart1RxCount--;
 10592  004A26  064D               	decf	_uart1RxCount^0,f,c	;volatile
 10593  004A28                     i2l4989:
 10594                           
 10595                           ; BSR set to: 57
 10596                           ;mcc_generated_files/uart1.c: 255:     PIE3bits.U1RXIE = 1;
 10597  004A28  8793               	bsf	147,3,b	;volatile
 10598  004A2A                     
 10599                           ; BSR set to: 57
 10600                           ;mcc_generated_files/uart1.c: 256:     return readValue;
 10601  004A2A  5002               	movf	UART1_Read@readValue^0,w,c
 10602  004A2C                     
 10603                           ; BSR set to: 57
 10604  004A2C  0012               	return		;funcret
 10605  004A2E                     __end_of_UART1_Read:
 10606                           	callstack 0
 10607                           
 10608 ;; *************** function _UART1_DefaultOverrunErrorHandler *****************
 10609 ;; Defined at:
 10610 ;;		line 326 in file "mcc_generated_files/uart1.c"
 10611 ;; Parameters:    Size  Location     Type
 10612 ;;		None
 10613 ;; Auto vars:     Size  Location     Type
 10614 ;;		None
 10615 ;; Return value:  Size  Location     Type
 10616 ;;                  1    wreg      void 
 10617 ;; Registers used:
 10618 ;;		None
 10619 ;; Tracked objects:
 10620 ;;		On entry : 0/0
 10621 ;;		On exit  : 0/0
 10622 ;;		Unchanged: 0/0
 10623 ;; Data sizes:     COMRAM   BANK0   BANK1   BANK2   BANK3   BANK4   BANK5   BANK6   BANK7   BANK8   BANK9  BANK10  BANK1
      +1  BANK12  BANK13  BANK14  BANK15  BANK16  BANK17  BANK18  BANK19  BANK20  BANK21  BANK22  BANK23  BANK24  BANK25  BANK2
      +6  BANK27  BANK28  BANK29  BANK30  BANK31
 10624 ;;      Params:         0       0       0       0       0       0       0       0       0       0       0       0       
      +0       0       0       0       0       0       0       0       0       0       0       0       0       0       0       
      +0       0       0       0       0       0
 10625 ;;      Locals:         0       0       0       0       0       0       0       0       0       0       0       0       
      +0       0       0       0       0       0       0       0       0       0       0       0       0       0       0       
      +0       0       0       0       0       0
 10626 ;;      Temps:          0       0       0       0       0       0       0       0       0       0       0       0       
      +0       0       0       0       0       0       0       0       0       0       0       0       0       0       0       
      +0       0       0       0       0       0
 10627 ;;      Totals:         0       0       0       0       0       0       0       0       0       0       0       0       
      +0       0       0       0       0       0       0       0       0       0       0       0       0       0       0       
      +0       0       0       0       0       0
 10628 ;;Total ram usage:        0 bytes
 10629 ;; Hardware stack levels used: 1
 10630 ;; This function calls:
 10631 ;;		Nothing
 10632 ;; This function is called by:
 10633 ;;		_UART1_Initialize
 10634 ;;		_UART1_Receive
 10635 ;;		_UART1_Receive_ISR
 10636 ;; This function uses a non-reentrant model
 10637 ;;
 10638                           
 10639                           	psect	text64
 10640  004D3A                     __ptext64:
 10641                           	callstack 0
 10642  004D3A                     _UART1_DefaultOverrunErrorHandler:
 10643                           	callstack 25
 10644  004D3A  0012               	return		;funcret
 10645  004D3C                     __end_of_UART1_DefaultOverrunErrorHandler:
 10646                           	callstack 0
 10647                           
 10648 ;; *************** function _UART1_DefaultFramingErrorHandler *****************
 10649 ;; Defined at:
 10650 ;;		line 323 in file "mcc_generated_files/uart1.c"
 10651 ;; Parameters:    Size  Location     Type
 10652 ;;		None
 10653 ;; Auto vars:     Size  Location     Type
 10654 ;;		None
 10655 ;; Return value:  Size  Location     Type
 10656 ;;                  1    wreg      void 
 10657 ;; Registers used:
 10658 ;;		None
 10659 ;; Tracked objects:
 10660 ;;		On entry : 0/0
 10661 ;;		On exit  : 0/0
 10662 ;;		Unchanged: 0/0
 10663 ;; Data sizes:     COMRAM   BANK0   BANK1   BANK2   BANK3   BANK4   BANK5   BANK6   BANK7   BANK8   BANK9  BANK10  BANK1
      +1  BANK12  BANK13  BANK14  BANK15  BANK16  BANK17  BANK18  BANK19  BANK20  BANK21  BANK22  BANK23  BANK24  BANK25  BANK2
      +6  BANK27  BANK28  BANK29  BANK30  BANK31
 10664 ;;      Params:         0       0       0       0       0       0       0       0       0       0       0       0       
      +0       0       0       0       0       0       0       0       0       0       0       0       0       0       0       
      +0       0       0       0       0       0
 10665 ;;      Locals:         0       0       0       0       0       0       0       0       0       0       0       0       
      +0       0       0       0       0       0       0       0       0       0       0       0       0       0       0       
      +0       0       0       0       0       0
 10666 ;;      Temps:          0       0       0       0       0       0       0       0       0       0       0       0       
      +0       0       0       0       0       0       0       0       0       0       0       0       0       0       0       
      +0       0       0       0       0       0
 10667 ;;      Totals:         0       0       0       0       0       0       0       0       0       0       0       0       
      +0       0       0       0       0       0       0       0       0       0       0       0       0       0       0       
      +0       0       0       0       0       0
 10668 ;;Total ram usage:        0 bytes
 10669 ;; Hardware stack levels used: 1
 10670 ;; This function calls:
 10671 ;;		Nothing
 10672 ;; This function is called by:
 10673 ;;		_UART1_Initialize
 10674 ;;		_UART1_Receive
 10675 ;;		_UART1_Receive_ISR
 10676 ;; This function uses a non-reentrant model
 10677 ;;
 10678                           
 10679                           	psect	text65
 10680  004D3C                     __ptext65:
 10681                           	callstack 0
 10682  004D3C                     _UART1_DefaultFramingErrorHandler:
 10683                           	callstack 25
 10684  004D3C  0012               	return		;funcret
 10685  004D3E                     __end_of_UART1_DefaultFramingErrorHandler:
 10686                           	callstack 0
 10687                           
 10688 ;; *************** function _Temp *****************
 10689 ;; Defined at:
 10690 ;;		line 143 in file "Joystick.c"
 10691 ;; Parameters:    Size  Location     Type
 10692 ;;		None
 10693 ;; Auto vars:     Size  Location     Type
 10694 ;;		None
 10695 ;; Return value:  Size  Location     Type
 10696 ;;                  1    wreg      void 
 10697 ;; Registers used:
 10698 ;;		wreg, status,2, status,0
 10699 ;; Tracked objects:
 10700 ;;		On entry : 0/0
 10701 ;;		On exit  : 0/0
 10702 ;;		Unchanged: 0/0
 10703 ;; Data sizes:     COMRAM   BANK0   BANK1   BANK2   BANK3   BANK4   BANK5   BANK6   BANK7   BANK8   BANK9  BANK10  BANK1
      +1  BANK12  BANK13  BANK14  BANK15  BANK16  BANK17  BANK18  BANK19  BANK20  BANK21  BANK22  BANK23  BANK24  BANK25  BANK2
      +6  BANK27  BANK28  BANK29  BANK30  BANK31
 10704 ;;      Params:         0       0       0       0       0       0       0       0       0       0       0       0       
      +0       0       0       0       0       0       0       0       0       0       0       0       0       0       0       
      +0       0       0       0       0       0
 10705 ;;      Locals:         0       0       0       0       0       0       0       0       0       0       0       0       
      +0       0       0       0       0       0       0       0       0       0       0       0       0       0       0       
      +0       0       0       0       0       0
 10706 ;;      Temps:          2       0       0       0       0       0       0       0       0       0       0       0       
      +0       0       0       0       0       0       0       0       0       0       0       0       0       0       0       
      +0       0       0       0       0       0
 10707 ;;      Totals:         2       0       0       0       0       0       0       0       0       0       0       0       
      +0       0       0       0       0       0       0       0       0       0       0       0       0       0       0       
      +0       0       0       0       0       0
 10708 ;;Total ram usage:        2 bytes
 10709 ;; Hardware stack levels used: 1
 10710 ;; This function calls:
 10711 ;;		Nothing
 10712 ;; This function is called by:
 10713 ;;		_INTERRUPT_InterruptManager
 10714 ;; This function uses a non-reentrant model
 10715 ;;
 10716                           
 10717                           	psect	text66
 10718  004890                     __ptext66:
 10719                           	callstack 0
 10720  004890                     _Temp:
 10721                           	callstack 26
 10722  004890                     
 10723                           ;Joystick.c: 144:     FVRCONbits.FVREN = 1;
 10724  004890  013E               	movlb	62	; () banked
 10725  004892  8FC1               	bsf	193,7,b	;volatile
 10726  004894                     
 10727                           ; BSR set to: 62
 10728                           ;Joystick.c: 145:     FVRCONbits.ADFVR = 0b10;
 10729  004894  51C1               	movf	193,w,b	;volatile
 10730  004896  0BFC               	andlw	-4
 10731  004898  0902               	iorlw	2
 10732  00489A  6FC1               	movwf	193,b	;volatile
 10733                           
 10734                           ;Joystick.c: 147:     ADREFbits.ADPREF = 0b11;
 10735  00489C  51FD               	movf	253,w,b	;volatile
 10736  00489E  0BF0               	andlw	-16
 10737  0048A0  0903               	iorlw	3
 10738  0048A2  6FFD               	movwf	253,b	;volatile
 10739                           
 10740                           ;Joystick.c: 148:     ADREFbits.ADNREF = 0b00;
 10741  0048A4  0E0F               	movlw	-241
 10742  0048A6  17FD               	andwf	253,f,b	;volatile
 10743  0048A8                     
 10744                           ; BSR set to: 62
 10745                           ;Joystick.c: 150:     FVRCONbits.TSRNG = 1;
 10746  0048A8  89C1               	bsf	193,4,b	;volatile
 10747  0048AA                     
 10748                           ; BSR set to: 62
 10749                           ;Joystick.c: 151:     FVRCONbits.TSEN = 1;
 10750  0048AA  8BC1               	bsf	193,5,b	;volatile
 10751                           
 10752                           ;Joystick.c: 153:     ADPCH = 0x3C;
 10753  0048AC  0E3C               	movlw	60
 10754  0048AE  6FF1               	movwf	241,b	;volatile
 10755  0048B0                     
 10756                           ; BSR set to: 62
 10757                           ;Joystick.c: 156:     ADCON0bits.ADON = 1;
 10758  0048B0  8FF8               	bsf	248,7,b	;volatile
 10759  0048B2                     
 10760                           ; BSR set to: 62
 10761                           ;Joystick.c: 157:     ADCON0bits.ADGO = 1;
 10762  0048B2  81F8               	bsf	248,0,b	;volatile
 10763  0048B4                     i2l1638:
 10764                           
 10765                           ; BSR set to: 62
 10766  0048B4  B1F8               	btfsc	248,0,b	;volatile
 10767  0048B6  EF5F  F024         	goto	i2u467_41
 10768  0048BA  EF61  F024         	goto	i2u467_40
 10769  0048BE                     i2u467_41:
 10770  0048BE  EF5A  F024         	goto	i2l1638
 10771  0048C2                     i2u467_40:
 10772  0048C2                     
 10773                           ; BSR set to: 62
 10774                           ;Joystick.c: 160:     adc_meas = (uint16_t) ((ADRESH << 8) | ADRESL);
 10775  0048C2  51EF               	movf	239,w,b	;volatile
 10776  0048C4  006F FBC0  F001    	movff	16112,??_Temp	;volatile
 10777  0048CA  6A02               	clrf	(??_Temp+1)^0,c
 10778  0048CC  C001  F002         	movff	??_Temp,??_Temp+1
 10779  0048D0  6A01               	clrf	??_Temp^0,c
 10780  0048D2  1001               	iorwf	??_Temp^0,w,c
 10781  0048D4  0100               	movlb	0	; () banked
 10782  0048D6  6F9F               	movwf	_adc_meas& (0+255),b
 10783  0048D8  5002               	movf	(??_Temp+1)^0,w,c
 10784  0048DA  6FA0               	movwf	(_adc_meas+1)& (0+255),b
 10785  0048DC                     
 10786                           ; BSR set to: 0
 10787                           ;Joystick.c: 161:     ADREFbits.ADPREF = 0b00;
 10788  0048DC  0EF0               	movlw	-16
 10789  0048DE  013E               	movlb	62	; () banked
 10790  0048E0  17FD               	andwf	253,f,b	;volatile
 10791  0048E2                     
 10792                           ; BSR set to: 62
 10793  0048E2  0012               	return		;funcret
 10794  0048E4                     __end_of_Temp:
 10795                           	callstack 0
 10796                           
 10797 ;; *************** function _RutinaTransmicionUSART_ASCII *****************
 10798 ;; Defined at:
 10799 ;;		line 47 in file "UART.c"
 10800 ;; Parameters:    Size  Location     Type
 10801 ;;		None
 10802 ;; Auto vars:     Size  Location     Type
 10803 ;;		None
 10804 ;; Return value:  Size  Location     Type
 10805 ;;                  1    wreg      void 
 10806 ;; Registers used:
 10807 ;;		wreg, fsr2l, fsr2h, status,2, status,0
 10808 ;; Tracked objects:
 10809 ;;		On entry : 0/0
 10810 ;;		On exit  : 0/0
 10811 ;;		Unchanged: 0/0
 10812 ;; Data sizes:     COMRAM   BANK0   BANK1   BANK2   BANK3   BANK4   BANK5   BANK6   BANK7   BANK8   BANK9  BANK10  BANK1
      +1  BANK12  BANK13  BANK14  BANK15  BANK16  BANK17  BANK18  BANK19  BANK20  BANK21  BANK22  BANK23  BANK24  BANK25  BANK2
      +6  BANK27  BANK28  BANK29  BANK30  BANK31
 10813 ;;      Params:         0       0       0       0       0       0       0       0       0       0       0       0       
      +0       0       0       0       0       0       0       0       0       0       0       0       0       0       0       
      +0       0       0       0       0       0
 10814 ;;      Locals:         0       0       0       0       0       0       0       0       0       0       0       0       
      +0       0       0       0       0       0       0       0       0       0       0       0       0       0       0       
      +0       0       0       0       0       0
 10815 ;;      Temps:          1       0       0       0       0       0       0       0       0       0       0       0       
      +0       0       0       0       0       0       0       0       0       0       0       0       0       0       0       
      +0       0       0       0       0       0
 10816 ;;      Totals:         1       0       0       0       0       0       0       0       0       0       0       0       
      +0       0       0       0       0       0       0       0       0       0       0       0       0       0       0       
      +0       0       0       0       0       0
 10817 ;;Total ram usage:        1 bytes
 10818 ;; Hardware stack levels used: 1
 10819 ;; This function calls:
 10820 ;;		Nothing
 10821 ;; This function is called by:
 10822 ;;		_INTERRUPT_InterruptManager
 10823 ;; This function uses a non-reentrant model
 10824 ;;
 10825                           
 10826                           	psect	text67
 10827  00472A                     __ptext67:
 10828                           	callstack 0
 10829  00472A                     _RutinaTransmicionUSART_ASCII:
 10830                           	callstack 26
 10831  00472A                     
 10832                           ;UART.c: 49:     if (*digito_ptr != 0x0A) {
 10833  00472A  0060  F3CB  FFD9   	movff	_digito_ptr,fsr2l
 10834  004730  0060  F3CF  FFDA   	movff	_digito_ptr+1,fsr2h
 10835  004736  0E0A               	movlw	10
 10836  004738  18DE               	xorwf	postinc2,w,c
 10837  00473A  B4D8               	btfsc	status,2,c
 10838  00473C  EFA2  F023         	goto	i2u468_41
 10839  004740  EFA4  F023         	goto	i2u468_40
 10840  004744                     i2u468_41:
 10841  004744  EFB2  F023         	goto	i2l5509
 10842  004748                     i2u468_40:
 10843  004748                     
 10844                           ;UART.c: 51:         U1TXB = *digito_ptr;
 10845  004748  0060  F3CB  FFD9   	movff	_digito_ptr,fsr2l
 10846  00474E  0060  F3CF  FFDA   	movff	_digito_ptr+1,fsr2h
 10847  004754  50DF               	movf	indf2,w,c
 10848  004756  013D               	movlb	61	; () banked
 10849  004758  6FEA               	movwf	234,b	;volatile
 10850  00475A                     
 10851                           ; BSR set to: 61
 10852                           ;UART.c: 52:         digito_ptr++;
 10853  00475A  0100               	movlb	0	; () banked
 10854  00475C  4BF2               	infsnz	_digito_ptr& (0+255),f,b
 10855  00475E  2BF3               	incf	(_digito_ptr+1)& (0+255),f,b
 10856                           
 10857                           ;UART.c: 54:     } else {
 10858  004760  EFC3  F023         	goto	i2l1691
 10859  004764                     i2l5509:
 10860                           
 10861                           ;UART.c: 55:         U1TXB = *digito_ptr;
 10862  004764  0060  F3CB  FFD9   	movff	_digito_ptr,fsr2l
 10863  00476A  0060  F3CF  FFDA   	movff	_digito_ptr+1,fsr2h
 10864  004770  50DF               	movf	indf2,w,c
 10865  004772  013D               	movlb	61	; () banked
 10866  004774  6FEA               	movwf	234,b	;volatile
 10867  004776                     
 10868                           ; BSR set to: 61
 10869  004776  9CBC               	bcf	188,6,c	;volatile
 10870  004778                     
 10871                           ; BSR set to: 61
 10872                           ;UART.c: 57:         PIE3bits.U1TXIE = 0;
 10873  004778  0139               	movlb	57	; () banked
 10874  00477A  9993               	bcf	147,4,b	;volatile
 10875  00477C                     
 10876                           ; BSR set to: 57
 10877                           ;UART.c: 58:         digito_ptr = digitos;
 10878  00477C  0E18               	movlw	low _digitos
 10879  00477E  0100               	movlb	0	; () banked
 10880  004780  6FF2               	movwf	_digito_ptr& (0+255),b
 10881  004782  0E01               	movlw	high _digitos
 10882  004784  6FF3               	movwf	(_digito_ptr+1)& (0+255),b
 10883  004786                     i2l1691:
 10884                           
 10885                           ; BSR set to: 0
 10886  004786  0012               	return		;funcret
 10887  004788                     __end_of_RutinaTransmicionUSART_ASCII:
 10888                           	callstack 0
 10889                           
 10890                           ;
 10891                           ; Interrupt Vector Table @ 0x8
 10892                           ;
 10893                           
 10894                           	psect	ivt0x8
 10895  000008                     __pivt0x8:
 10896                           	callstack 0
 10897  000008                     ivt0x8_base:
 10898                           	callstack 0
 10899                           
 10900                           ; high-priority vector
 10901  000008  EF20  F016         	goto	_INTERRUPT_InterruptManager
 10902  000018                     	org	16
 10903                           
 10904                           ; low-priority vector
 10905  000018  00FF               	reset	
 10906                           
 10907                           	psect	text68
 10908  000000                     __ptext68:
 10909                           	callstack 0
 10910  000000                     
 10911                           	psect	rparam
 10912  0000                     
 10913                           	psect	config
 10914                           
 10915                           ;Config register CONFIG1L @ 0x300000
 10916                           ;	External Oscillator Selection
 10917                           ;	FEXTOSC = OFF, Oscillator not enabled
 10918                           ;	Reset Oscillator Selection
 10919                           ;	RSTOSC = HFINTOSC_64MHZ, HFINTOSC with HFFRQ = 64 MHz and CDIV = 1:1
 10920  300000                     	org	3145728
 10921  300000  8C                 	db	140
 10922                           
 10923                           ;Config register CONFIG1H @ 0x300001
 10924                           ;	Clock out Enable bit
 10925                           ;	CLKOUTEN = OFF, CLKOUT function is disabled
 10926                           ;	PRLOCKED One-Way Set Enable bit
 10927                           ;	PR1WAY = ON, PRLOCK bit can be cleared and set only once
 10928                           ;	Clock Switch Enable bit
 10929                           ;	CSWEN = ON, Writing to NOSC and NDIV is allowed
 10930                           ;	Fail-Safe Clock Monitor Enable bit
 10931                           ;	FCMEN = ON, Fail-Safe Clock Monitor enabled
 10932  300001                     	org	3145729
 10933  300001  FF                 	db	255
 10934                           
 10935                           ;Config register CONFIG2L @ 0x300002
 10936                           ;	MCLR Enable bit
 10937                           ;	MCLRE = EXTMCLR, If LVP = 0, MCLR pin is MCLR; If LVP = 1, RE3 pin function is MCLR
 10938                           ;	Power-up timer selection bits
 10939                           ;	PWRTS = PWRT_OFF, PWRT is disabled
 10940                           ;	Multi-vector enable bit
 10941                           ;	MVECEN = OFF, Interrupt contoller does not use vector table to prioritze interrupts
 10942                           ;	IVTLOCK bit One-way set enable bit
 10943                           ;	IVT1WAY = ON, IVTLOCK bit can be cleared and set only once
 10944                           ;	Low Power BOR Enable bit
 10945                           ;	LPBOREN = OFF, ULPBOR disabled
 10946                           ;	Brown-out Reset Enable bits
 10947                           ;	BOREN = SBORDIS, Brown-out Reset enabled , SBOREN bit is ignored
 10948  300002                     	org	3145730
 10949  300002  F7                 	db	247
 10950                           
 10951                           ;Config register CONFIG2H @ 0x300003
 10952                           ;	Brown-out Reset Voltage Selection bits
 10953                           ;	BORV = VBOR_2P45, Brown-out Reset Voltage (VBOR) set to 2.45V
 10954                           ;	ZCD Disable bit
 10955                           ;	ZCD = OFF, ZCD disabled. ZCD can be enabled by setting the ZCDSEN bit of ZCDCON
 10956                           ;	PPSLOCK bit One-Way Set Enable bit
 10957                           ;	PPS1WAY = ON, PPSLOCK bit can be cleared and set only once; PPS registers remain locke
      +                          d after one clear/set cycle
 10958                           ;	Stack Full/Underflow Reset Enable bit
 10959                           ;	STVREN = ON, Stack full/underflow will cause Reset
 10960                           ;	Debugger Enable bit
 10961                           ;	DEBUG = OFF, Background debugger disabled
 10962                           ;	Extended Instruction Set Enable bit
 10963                           ;	XINST = OFF, Extended Instruction Set and Indexed Addressing Mode disabled
 10964  300003                     	org	3145731
 10965  300003  FF                 	db	255
 10966                           
 10967                           ;Config register CONFIG3L @ 0x300004
 10968                           ;	WDT Period selection bits
 10969                           ;	WDTCPS = WDTCPS_31, Divider ratio 1:65536; software control of WDTPS
 10970                           ;	WDT operating mode
 10971                           ;	WDTE = OFF, WDT Disabled; SWDTEN is ignored
 10972  300004                     	org	3145732
 10973  300004  9F                 	db	159
 10974                           
 10975                           ;Config register CONFIG3H @ 0x300005
 10976                           ;	WDT Window Select bits
 10977                           ;	WDTCWS = WDTCWS_7, window always open (100%); software control; keyed access not requi
      +                          red
 10978                           ;	WDT input clock selector
 10979                           ;	WDTCCS = SC, Software Control
 10980  300005                     	org	3145733
 10981  300005  FF                 	db	255
 10982                           
 10983                           ;Config register CONFIG4L @ 0x300006
 10984                           ;	Boot Block Size selection bits
 10985                           ;	BBSIZE = BBSIZE_512, Boot Block size is 512 words
 10986                           ;	Boot Block enable bit
 10987                           ;	BBEN = OFF, Boot block disabled
 10988                           ;	Storage Area Flash enable bit
 10989                           ;	SAFEN = OFF, SAF disabled
 10990                           ;	Application Block write protection bit
 10991                           ;	WRTAPP = OFF, Application Block not write protected
 10992  300006                     	org	3145734
 10993  300006  FF                 	db	255
 10994                           
 10995                           ;Config register CONFIG4H @ 0x300007
 10996                           ;	Boot Block Write Protection bit
 10997                           ;	WRTB = OFF, Boot Block not write-protected
 10998                           ;	Configuration Register Write Protection bit
 10999                           ;	WRTC = OFF, Configuration registers not write-protected
 11000                           ;	Data EEPROM Write Protection bit
 11001                           ;	WRTD = OFF, Data EEPROM not write-protected
 11002                           ;	SAF Write protection bit
 11003                           ;	WRTSAF = OFF, SAF not Write Protected
 11004                           ;	Low Voltage Programming Enable bit
 11005                           ;	LVP = ON, Low voltage programming enabled. MCLR/VPP pin function is MCLR. MCLRE config
      +                          uration bit is ignored
 11006  300007                     	org	3145735
 11007  300007  FF                 	db	255
 11008                           
 11009                           ;Config register CONFIG5L @ 0x300008
 11010                           ;	PFM and Data EEPROM Code Protection bit
 11011                           ;	CP = OFF, PFM and Data EEPROM code protection disabled
 11012  300008                     	org	3145736
 11013  300008  FF                 	db	255
 11014                           
 11015                           ;Config register CONFIG5H @ 0x300009
 11016                           ;	unspecified, using default values
 11017  300009                     	org	3145737
 11018  300009  FF                 	db	255
 11019                           tosu	equ	0x3FFF
 11020                           tosh	equ	0x3FFE
 11021                           tosl	equ	0x3FFD
 11022                           stkptr	equ	0x3FFC
 11023                           pclatu	equ	0x3FFB
 11024                           pclath	equ	0x3FFA
 11025                           pcl	equ	0x3FF9
 11026                           tblptru	equ	0x3FF8
 11027                           tblptrh	equ	0x3FF7
 11028                           tblptrl	equ	0x3FF6
 11029                           tablat	equ	0x3FF5
 11030                           prodh	equ	0x3FF4
 11031                           prodl	equ	0x3FF3
 11032                           indf0	equ	0x3FEF
 11033                           postinc0	equ	0x3FEE
 11034                           postdec0	equ	0x3FED
 11035                           preinc0	equ	0x3FEC
 11036                           plusw0	equ	0x3FEB
 11037                           fsr0h	equ	0x3FEA
 11038                           fsr0l	equ	0x3FE9
 11039                           wreg	equ	0x3FE8
 11040                           indf1	equ	0x3FE7
 11041                           postinc1	equ	0x3FE6
 11042                           postdec1	equ	0x3FE5
 11043                           preinc1	equ	0x3FE4
 11044                           plusw1	equ	0x3FE3
 11045                           fsr1h	equ	0x3FE2
 11046                           fsr1l	equ	0x3FE1
 11047                           bsr	equ	0x3FE0
 11048                           indf2	equ	0x3FDF
 11049                           postinc2	equ	0x3FDE
 11050                           postdec2	equ	0x3FDD
 11051                           preinc2	equ	0x3FDC
 11052                           plusw2	equ	0x3FDB
 11053                           fsr2h	equ	0x3FDA
 11054                           fsr2l	equ	0x3FD9
 11055                           status	equ	0x3FD8

Data Sizes:
    Strings     0
    Constant    6
    Data        23
    BSS         151
    Persistent  46
    Stack       0

Auto Spaces:
    Space          Size  Autos    Used
    COMRAM           95     58      93
    BANK0           160     53     158
    BANK1           256      0      80
    BANK2           256      0       0
    BANK3           256      0       0
    BANK4           256      0       0
    BANK5           256      0       0
    BANK6           256      0       0
    BANK7           256      0       0
    BANK8           256      0       0
    BANK9           256      0       0
    BANK10          256      0       0
    BANK11          256      0       0
    BANK12          256      0       0
    BANK13          256      0       0
    BANK14          256      0       0
    BANK15          256      0       0
    BANK16          256      0       0
    BANK17          256      0       0
    BANK18          256      0       0
    BANK19          256      0       0
    BANK20          256      0       0
    BANK21          256      0       0
    BANK22          256      0       0
    BANK23          256      0       0
    BANK24          256      0       0
    BANK25          256      0       0
    BANK26          256      0       0
    BANK27          256      0       0
    BANK28          256      0       0
    BANK29          256      0       0
    BANK30          256      0       0
    BANK31          256      0       0

Pointer List with Targets:

    digito_ptr	PTR volatile unsigned char  size(2) Largest target is 28
		 -> digitos(BANK1[28]), NULL(NULL[0]), 

    TMR5_SetInterruptHandler@InterruptHandler	PTR FTN()void  size(3) Largest target is 1
		 -> TMR5_DefaultInterruptHandler(), 

    TMR5_InterruptHandler	PTR FTN()void  size(3) Largest target is 1
		 -> TMR5_DefaultInterruptHandler(), Absolute function(), 

    TMR1_SetInterruptHandler@InterruptHandler	PTR FTN()void  size(3) Largest target is 1
		 -> TMR1_DefaultInterruptHandler(), 

    TMR1_InterruptHandler	PTR FTN()void  size(3) Largest target is 1
		 -> TMR1_DefaultInterruptHandler(), Absolute function(), 

    UART1_SetTxInterruptHandler@InterruptHandler	PTR FTN()void  size(3) Largest target is 1
		 -> UART1_Transmit_ISR(), 

    UART1_TxInterruptHandler	PTR FTN()void  size(3) Largest target is 1
		 -> UART1_Transmit_ISR(), Absolute function(), 

    UART1_SetRxInterruptHandler@InterruptHandler	PTR FTN()void  size(3) Largest target is 1
		 -> UART1_Receive_ISR(), 

    UART1_RxInterruptHandler	PTR FTN()void  size(3) Largest target is 1
		 -> UART1_Receive_ISR(), Absolute function(), 

    UART1_SetErrorHandler@interruptHandler	PTR FTN()void  size(3) Largest target is 1
		 -> UART1_DefaultErrorHandler(), 

    UART1_SetOverrunErrorHandler@interruptHandler	PTR FTN()void  size(3) Largest target is 1
		 -> UART1_DefaultOverrunErrorHandler(), 

    UART1_SetFramingErrorHandler@interruptHandler	PTR FTN()void  size(3) Largest target is 1
		 -> UART1_DefaultFramingErrorHandler(), 

    UART1_ErrorHandler	PTR FTN()void  size(3) Largest target is 1
		 -> UART1_DefaultErrorHandler(), Absolute function(), 

    UART1_RxCompleteInterruptHandler	PTR FTN()void  size(3) Largest target is 1
		 -> Absolute function(), 

    UART1_OverrunErrorHandler	PTR FTN()void  size(3) Largest target is 1
		 -> UART1_DefaultOverrunErrorHandler(), Absolute function(), 

    UART1_FramingErrorHandler	PTR FTN()void  size(3) Largest target is 1
		 -> UART1_DefaultFramingErrorHandler(), Absolute function(), 

    TMR6_SetInterruptHandler@InterruptHandler	PTR FTN()void  size(3) Largest target is 1
		 -> TMR6_DefaultInterruptHandler(), 

    TMR6_InterruptHandler	PTR FTN()void  size(3) Largest target is 1
		 -> TMR6_DefaultInterruptHandler(), Absolute function(), 

    TMR4_SetInterruptHandler@InterruptHandler	PTR FTN()void  size(3) Largest target is 1
		 -> TMR4_DefaultInterruptHandler(), 

    TMR4_InterruptHandler	PTR FTN()void  size(3) Largest target is 1
		 -> TMR4_DefaultInterruptHandler(), Absolute function(), 

    IOCBF0_SetInterruptHandler@InterruptHandler	PTR FTN()void  size(3) Largest target is 1
		 -> IOCBF0_DefaultInterruptHandler(), 

    IOCBF0_InterruptHandler	PTR FTN()void  size(3) Largest target is 1
		 -> Absolute function(), IOCBF0_DefaultInterruptHandler(), 


Critical Paths under _main in COMRAM

    None.

Critical Paths under _INTERRUPT_InterruptManager in COMRAM

    _INTERRUPT_InterruptManager->_actualizarEstadoMotor
    _actualizarEstadoMotor->_velocidadTransitorio
    _velocidadTransitorio->i2___fltol
    i2___fltol->___fldiv
    i2___fltol->i2___flmul
    i2___flmul->i2___xxtofl
    i2_PWM6_LoadDutyValue->___wmul
    _reverseMode->_current
    _forwardMode->_current
    ___fldiv->i2___xxtofl
    _UART1_Receive->_UART1_Read

Critical Paths under _main in BANK0

    _main->___fltol
    ___fltol->___flmul
    ___flmul->___xxtofl
    _SYSTEM_Initialize->_TMR1_Initialize
    _SYSTEM_Initialize->_TMR5_Initialize
    _UART1_Initialize->_UART1_SetErrorHandler
    _UART1_Initialize->_UART1_SetFramingErrorHandler
    _UART1_Initialize->_UART1_SetOverrunErrorHandler
    _UART1_Initialize->_UART1_SetRxInterruptHandler
    _UART1_Initialize->_UART1_SetTxInterruptHandler
    _TMR6_Initialize->_TMR6_SetInterruptHandler
    _TMR5_Initialize->_TMR5_SetInterruptHandler
    _TMR4_Initialize->_TMR4_SetInterruptHandler
    _TMR1_Initialize->_TMR1_SetInterruptHandler
    _PIN_MANAGER_Initialize->_IOCBF0_SetInterruptHandler

Critical Paths under _INTERRUPT_InterruptManager in BANK0

    None.

Critical Paths under _main in BANK1

    None.

Critical Paths under _INTERRUPT_InterruptManager in BANK1

    None.

Critical Paths under _main in BANK2

    None.

Critical Paths under _INTERRUPT_InterruptManager in BANK2

    None.

Critical Paths under _main in BANK3

    None.

Critical Paths under _INTERRUPT_InterruptManager in BANK3

    None.

Critical Paths under _main in BANK4

    None.

Critical Paths under _INTERRUPT_InterruptManager in BANK4

    None.

Critical Paths under _main in BANK5

    None.

Critical Paths under _INTERRUPT_InterruptManager in BANK5

    None.

Critical Paths under _main in BANK6

    None.

Critical Paths under _INTERRUPT_InterruptManager in BANK6

    None.

Critical Paths under _main in BANK7

    None.

Critical Paths under _INTERRUPT_InterruptManager in BANK7

    None.

Critical Paths under _main in BANK8

    None.

Critical Paths under _INTERRUPT_InterruptManager in BANK8

    None.

Critical Paths under _main in BANK9

    None.

Critical Paths under _INTERRUPT_InterruptManager in BANK9

    None.

Critical Paths under _main in BANK10

    None.

Critical Paths under _INTERRUPT_InterruptManager in BANK10

    None.

Critical Paths under _main in BANK11

    None.

Critical Paths under _INTERRUPT_InterruptManager in BANK11

    None.

Critical Paths under _main in BANK12

    None.

Critical Paths under _INTERRUPT_InterruptManager in BANK12

    None.

Critical Paths under _main in BANK13

    None.

Critical Paths under _INTERRUPT_InterruptManager in BANK13

    None.

Critical Paths under _main in BANK14

    None.

Critical Paths under _INTERRUPT_InterruptManager in BANK14

    None.

Critical Paths under _main in BANK15

    None.

Critical Paths under _INTERRUPT_InterruptManager in BANK15

    None.

Critical Paths under _main in BANK16

    None.

Critical Paths under _INTERRUPT_InterruptManager in BANK16

    None.

Critical Paths under _main in BANK17

    None.

Critical Paths under _INTERRUPT_InterruptManager in BANK17

    None.

Critical Paths under _main in BANK18

    None.

Critical Paths under _INTERRUPT_InterruptManager in BANK18

    None.

Critical Paths under _main in BANK19

    None.

Critical Paths under _INTERRUPT_InterruptManager in BANK19

    None.

Critical Paths under _main in BANK20

    None.

Critical Paths under _INTERRUPT_InterruptManager in BANK20

    None.

Critical Paths under _main in BANK21

    None.

Critical Paths under _INTERRUPT_InterruptManager in BANK21

    None.

Critical Paths under _main in BANK22

    None.

Critical Paths under _INTERRUPT_InterruptManager in BANK22

    None.

Critical Paths under _main in BANK23

    None.

Critical Paths under _INTERRUPT_InterruptManager in BANK23

    None.

Critical Paths under _main in BANK24

    None.

Critical Paths under _INTERRUPT_InterruptManager in BANK24

    None.

Critical Paths under _main in BANK25

    None.

Critical Paths under _INTERRUPT_InterruptManager in BANK25

    None.

Critical Paths under _main in BANK26

    None.

Critical Paths under _INTERRUPT_InterruptManager in BANK26

    None.

Critical Paths under _main in BANK27

    None.

Critical Paths under _INTERRUPT_InterruptManager in BANK27

    None.

Critical Paths under _main in BANK28

    None.

Critical Paths under _INTERRUPT_InterruptManager in BANK28

    None.

Critical Paths under _main in BANK29

    None.

Critical Paths under _INTERRUPT_InterruptManager in BANK29

    None.

Critical Paths under _main in BANK30

    None.

Critical Paths under _INTERRUPT_InterruptManager in BANK30

    None.

Critical Paths under _main in BANK31

    None.

Critical Paths under _INTERRUPT_InterruptManager in BANK31

    None.

Call Graph Tables:

 ---------------------------------------------------------------------------------
 (Depth) Function   	        Calls       Base Space   Used Autos Params    Refs
 ---------------------------------------------------------------------------------
 (0) _main                                                 4     4      0    4147
                                             49 BANK0      4     4      0
                 _PWM6_LoadDutyValue
                  _SYSTEM_Initialize
                            ___flmul
                            ___fltol
                           ___xxtofl
                      _actualizarDir
                     _convertirASCII
 ---------------------------------------------------------------------------------
 (1) _convertirASCII                                       3     3      0       0
                                              0 BANK0      3     3      0
 ---------------------------------------------------------------------------------
 (1) _actualizarDir                                        0     0      0       0
 ---------------------------------------------------------------------------------
 (1) ___xxtofl                                            14    10      4     498
                                              0 BANK0     14    10      4
 ---------------------------------------------------------------------------------
 (1) ___fltol                                             10     6      4     405
                                             39 BANK0     10     6      4
                            ___flmul (ARG)
                           ___xxtofl (ARG)
 ---------------------------------------------------------------------------------
 (1) ___flmul                                             25    17      8    1844
                                             14 BANK0     25    17      8
                           ___xxtofl (ARG)
 ---------------------------------------------------------------------------------
 (1) _SYSTEM_Initialize                                    0     0      0     980
                    _ADCC_Initialize
                    _CWG1_Initialize
                    _CWG2_Initialize
                    _CWG3_Initialize
               _INTERRUPT_Initialize
              _OSCILLATOR_Initialize
             _PIN_MANAGER_Initialize
                     _PMD_Initialize
                    _PWM6_Initialize
                    _SPI1_Initialize
                    _TMR1_Initialize
                    _TMR2_Initialize
                    _TMR4_Initialize
                    _TMR5_Initialize
                    _TMR6_Initialize
                   _UART1_Initialize
 ---------------------------------------------------------------------------------
 (2) _UART1_Initialize                                     0     0      0     490
              _UART1_SetErrorHandler
       _UART1_SetFramingErrorHandler
       _UART1_SetOverrunErrorHandler
        _UART1_SetRxInterruptHandler
        _UART1_SetTxInterruptHandler
 ---------------------------------------------------------------------------------
 (3) _UART1_SetTxInterruptHandler                          3     0      3      98
                                              0 BANK0      3     0      3
 ---------------------------------------------------------------------------------
 (3) _UART1_SetRxInterruptHandler                          3     0      3      98
                                              0 BANK0      3     0      3
 ---------------------------------------------------------------------------------
 (3) _UART1_SetOverrunErrorHandler                         3     0      3      98
                                              0 BANK0      3     0      3
 ---------------------------------------------------------------------------------
 (3) _UART1_SetFramingErrorHandler                         3     0      3      98
                                              0 BANK0      3     0      3
 ---------------------------------------------------------------------------------
 (3) _UART1_SetErrorHandler                                3     0      3      98
                                              0 BANK0      3     0      3
 ---------------------------------------------------------------------------------
 (2) _TMR6_Initialize                                      0     0      0      98
           _TMR6_SetInterruptHandler
 ---------------------------------------------------------------------------------
 (3) _TMR6_SetInterruptHandler                             3     0      3      98
                                              0 BANK0      3     0      3
 ---------------------------------------------------------------------------------
 (2) _TMR5_Initialize                                      2     2      0      98
                                              3 BANK0      2     2      0
           _TMR5_SetInterruptHandler
 ---------------------------------------------------------------------------------
 (3) _TMR5_SetInterruptHandler                             3     0      3      98
                                              0 BANK0      3     0      3
 ---------------------------------------------------------------------------------
 (2) _TMR4_Initialize                                      0     0      0      98
           _TMR4_SetInterruptHandler
 ---------------------------------------------------------------------------------
 (3) _TMR4_SetInterruptHandler                             3     0      3      98
                                              0 BANK0      3     0      3
 ---------------------------------------------------------------------------------
 (2) _TMR2_Initialize                                      0     0      0       0
 ---------------------------------------------------------------------------------
 (2) _TMR1_Initialize                                      2     2      0      98
                                              3 BANK0      2     2      0
           _TMR1_SetInterruptHandler
 ---------------------------------------------------------------------------------
 (3) _TMR1_SetInterruptHandler                             3     0      3      98
                                              0 BANK0      3     0      3
 ---------------------------------------------------------------------------------
 (2) _SPI1_Initialize                                      0     0      0       0
 ---------------------------------------------------------------------------------
 (2) _PWM6_Initialize                                      0     0      0       0
 ---------------------------------------------------------------------------------
 (2) _PMD_Initialize                                       0     0      0       0
 ---------------------------------------------------------------------------------
 (2) _PIN_MANAGER_Initialize                               0     0      0      98
         _IOCBF0_SetInterruptHandler
 ---------------------------------------------------------------------------------
 (3) _IOCBF0_SetInterruptHandler                           3     0      3      98
                                              0 BANK0      3     0      3
 ---------------------------------------------------------------------------------
 (2) _OSCILLATOR_Initialize                                0     0      0       0
 ---------------------------------------------------------------------------------
 (2) _INTERRUPT_Initialize                                 0     0      0       0
 ---------------------------------------------------------------------------------
 (2) _CWG3_Initialize                                      0     0      0       0
 ---------------------------------------------------------------------------------
 (2) _CWG2_Initialize                                      0     0      0       0
 ---------------------------------------------------------------------------------
 (2) _CWG1_Initialize                                      0     0      0       0
 ---------------------------------------------------------------------------------
 (2) _ADCC_Initialize                                      0     0      0       0
 ---------------------------------------------------------------------------------
 (1) _PWM6_LoadDutyValue                                   4     2      2     420
                                              0 BANK0      4     2      2
 ---------------------------------------------------------------------------------
 Estimated maximum stack depth 3
 ---------------------------------------------------------------------------------
 (Depth) Function   	        Calls       Base Space   Used Autos Params    Refs
 ---------------------------------------------------------------------------------
 (4) _INTERRUPT_InterruptManager                           2     2      0    7232
                                             56 COMRAM     2     2      0
       _RutinaTransmicionUSART_ASCII
                               _Temp
                      _UART1_Receive
                            ___fldiv
              _actualizarEstadoMotor
               i2_PWM6_LoadDutyValue
                          i2___fltol
                         i2___xxtofl
 ---------------------------------------------------------------------------------
 (5) _actualizarEstadoMotor                                1     1      0    4863
                                             55 COMRAM     1     1      0
                               _STOP
                        _forwardMode
                        _reverseMode
                 _startUpForwardMode
                 _startUpReverseMode
               _velocidadTransitorio
               i2_PWM6_LoadDutyValue
                    i2_actualizarDir
 ---------------------------------------------------------------------------------
 (6) i2_actualizarDir                                      0     0      0       0
 ---------------------------------------------------------------------------------
 (6) _velocidadTransitorio                                 6     6      0    2707
                                             49 COMRAM     6     6      0
                             ___wmul
               i2_PWM6_LoadDutyValue
                          i2___flmul
                          i2___fltol
                         i2___xxtofl
 ---------------------------------------------------------------------------------
 (5) i2___xxtofl                                          14    10      4     374
                                              0 COMRAM    14    10      4
 ---------------------------------------------------------------------------------
 (5) i2___fltol                                           10     6      4     281
                                             39 COMRAM    10     6      4
                            ___fldiv (ARG)
                          i2___flmul (ARG)
                         i2___xxtofl (ARG)
 ---------------------------------------------------------------------------------
 (7) i2___flmul                                           25    17      8    1518
                                             14 COMRAM    25    17      8
                         i2___xxtofl (ARG)
 ---------------------------------------------------------------------------------
 (5) i2_PWM6_LoadDutyValue                                 4     2      2     200
                                              6 COMRAM     4     2      2
                             ___wmul (ARG)
 ---------------------------------------------------------------------------------
 (7) ___wmul                                               6     2      4     311
                                              0 COMRAM     6     2      4
 ---------------------------------------------------------------------------------
 (6) _startUpReverseMode                                   0     0      0       0
 ---------------------------------------------------------------------------------
 (6) _startUpForwardMode                                   0     0      0       0
 ---------------------------------------------------------------------------------
 (6) _reverseMode                                          0     0      0     978
                            _current
                             _state1
                             _state2
                             _state3
                             _state4
                             _state5
                             _state6
 ---------------------------------------------------------------------------------
 (7) _state6                                               0     0      0       0
 ---------------------------------------------------------------------------------
 (7) _state5                                               0     0      0       0
 ---------------------------------------------------------------------------------
 (7) _state4                                               0     0      0       0
 ---------------------------------------------------------------------------------
 (7) _state3                                               0     0      0       0
 ---------------------------------------------------------------------------------
 (7) _state2                                               0     0      0       0
 ---------------------------------------------------------------------------------
 (7) _state1                                               0     0      0       0
 ---------------------------------------------------------------------------------
 (6) _forwardMode                                          0     0      0     978
                            _current
                            _state1F
                            _state2F
                            _state3F
                            _state4F
                            _state5F
                            _state6F
 ---------------------------------------------------------------------------------
 (7) _state6F                                              0     0      0       0
 ---------------------------------------------------------------------------------
 (7) _state5F                                              0     0      0       0
 ---------------------------------------------------------------------------------
 (7) _state4F                                              0     0      0       0
 ---------------------------------------------------------------------------------
 (7) _state3F                                              0     0      0       0
 ---------------------------------------------------------------------------------
 (7) _state2F                                              0     0      0       0
 ---------------------------------------------------------------------------------
 (7) _state1F                                              0     0      0       0
 ---------------------------------------------------------------------------------
 (7) _current                                              4     2      2     978
                                              0 COMRAM     4     2      2
 ---------------------------------------------------------------------------------
 (6) _STOP                                                 0     0      0       0
 ---------------------------------------------------------------------------------
 (5) ___fldiv                                             25    17      8    1399
                                             14 COMRAM    25    17      8
                         i2___xxtofl (ARG)
 ---------------------------------------------------------------------------------
 (5) _UART1_Receive                                        2     2      0     115
                                              2 COMRAM     2     2      0
                   Absolute function *
   _UART1_DefaultFramingErrorHandler *
   _UART1_DefaultOverrunErrorHandler *
                         _UART1_Read
 ---------------------------------------------------------------------------------
 (6) _UART1_Read                                           2     2      0      47
                                              0 COMRAM     2     2      0
 ---------------------------------------------------------------------------------
 (6) _UART1_DefaultOverrunErrorHandler                     0     0      0       0
 ---------------------------------------------------------------------------------
 (6) _UART1_DefaultFramingErrorHandler                     0     0      0       0
 ---------------------------------------------------------------------------------
 (6) Absolute function(Fake)                               0     0      0       0
 ---------------------------------------------------------------------------------
 (5) _Temp                                                 2     2      0       0
                                              0 COMRAM     2     2      0
 ---------------------------------------------------------------------------------
 (5) _RutinaTransmicionUSART_ASCII                         1     1      0       0
                                              0 COMRAM     1     1      0
 ---------------------------------------------------------------------------------
 Estimated maximum stack depth 7
 ---------------------------------------------------------------------------------

 Call Graph Graphs:

 _main (ROOT)
   _PWM6_LoadDutyValue
   _SYSTEM_Initialize
     _ADCC_Initialize
     _CWG1_Initialize
     _CWG2_Initialize
     _CWG3_Initialize
     _INTERRUPT_Initialize
     _OSCILLATOR_Initialize
     _PIN_MANAGER_Initialize
       _IOCBF0_SetInterruptHandler
     _PMD_Initialize
     _PWM6_Initialize
     _SPI1_Initialize
     _TMR1_Initialize
       _TMR1_SetInterruptHandler
     _TMR2_Initialize
     _TMR4_Initialize
       _TMR4_SetInterruptHandler
     _TMR5_Initialize
       _TMR5_SetInterruptHandler
     _TMR6_Initialize
       _TMR6_SetInterruptHandler
     _UART1_Initialize
       _UART1_SetErrorHandler
       _UART1_SetFramingErrorHandler
       _UART1_SetOverrunErrorHandler
       _UART1_SetRxInterruptHandler
       _UART1_SetTxInterruptHandler
   ___flmul
     ___xxtofl (ARG)
   ___fltol
     ___flmul (ARG)
     ___xxtofl (ARG)
   ___xxtofl
   _actualizarDir
   _convertirASCII

 _INTERRUPT_InterruptManager (ROOT)
   _RutinaTransmicionUSART_ASCII
   _Temp
   _UART1_Receive
     Absolute function(Fake) *
     _UART1_DefaultFramingErrorHandler *
     _UART1_DefaultOverrunErrorHandler *
     _UART1_Read *
   ___fldiv
     i2___xxtofl (ARG)
   _actualizarEstadoMotor
     _STOP
     _forwardMode
       _current
       _state1F
       _state2F
       _state3F
       _state4F
       _state5F
       _state6F
     _reverseMode
       _current
       _state1
       _state2
       _state3
       _state4
       _state5
       _state6
     _startUpForwardMode
     _startUpReverseMode
     _velocidadTransitorio
       ___wmul
       i2_PWM6_LoadDutyValue
         ___wmul (ARG)
       i2___flmul
         i2___xxtofl (ARG)
       i2___fltol
         ___fldiv (ARG)
         i2___flmul (ARG)
         i2___xxtofl (ARG)
       i2___xxtofl
     i2_PWM6_LoadDutyValue
     i2_actualizarDir
   i2_PWM6_LoadDutyValue
   i2___fltol
   i2___xxtofl

 Address spaces:
Name               Size   Autos  Total    Cost      Usage
BIGRAM            1FFF      0       0     114        0.0%
EEDATA             400      0       0       0        0.0%
BITBIGSFRllhhhh    22A      0       0      88        0.0%
BITBIGSFRllllll    190      0       0     112        0.0%
BITBANK31          100      0       0      66        0.0%
BANK31             100      0       0      67        0.0%
BITBANK30          100      0       0      64        0.0%
BANK30             100      0       0      65        0.0%
BITBANK29          100      0       0      62        0.0%
BANK29             100      0       0      63        0.0%
BITBANK28          100      0       0      60        0.0%
BANK28             100      0       0      61        0.0%
BITBANK27          100      0       0      58        0.0%
BANK27             100      0       0      59        0.0%
BITBANK26          100      0       0      56        0.0%
BANK26             100      0       0      57        0.0%
BITBANK25          100      0       0      54        0.0%
BANK25             100      0       0      55        0.0%
BITBANK24          100      0       0      52        0.0%
BANK24             100      0       0      53        0.0%
BITBANK23          100      0       0      50        0.0%
BANK23             100      0       0      51        0.0%
BITBANK22          100      0       0      48        0.0%
BANK22             100      0       0      49        0.0%
BITBANK21          100      0       0      46        0.0%
BANK21             100      0       0      47        0.0%
BITBANK20          100      0       0      44        0.0%
BANK20             100      0       0      45        0.0%
BITBANK19          100      0       0      42        0.0%
BANK19             100      0       0      43        0.0%
BITBANK18          100      0       0      40        0.0%
BANK18             100      0       0      41        0.0%
BITBANK17          100      0       0      38        0.0%
BANK17             100      0       0      39        0.0%
BITBANK16          100      0       0      36        0.0%
BANK16             100      0       0      37        0.0%
BITBANK15          100      0       0      34        0.0%
BANK15             100      0       0      35        0.0%
BITBANK14          100      0       0      32        0.0%
BANK14             100      0       0      33        0.0%
BITBANK13          100      0       0      30        0.0%
BANK13             100      0       0      31        0.0%
BITBANK12          100      0       0      28        0.0%
BANK12             100      0       0      29        0.0%
BITBANK11          100      0       0      26        0.0%
BANK11             100      0       0      27        0.0%
BITBANK10          100      0       0      24        0.0%
BANK10             100      0       0      25        0.0%
BITBANK9           100      0       0      22        0.0%
BANK9              100      0       0      23        0.0%
BITBANK8           100      0       0      20        0.0%
BANK8              100      0       0      21        0.0%
BITBANK7           100      0       0      18        0.0%
BANK7              100      0       0      19        0.0%
BITBANK6           100      0       0      16        0.0%
BANK6              100      0       0      17        0.0%
BITBANK5           100      0       0      14        0.0%
BANK5              100      0       0      15        0.0%
BITBANK4           100      0       0      12        0.0%
BANK4              100      0       0      13        0.0%
BITBANK3           100      0       0      10        0.0%
BANK3              100      0       0      11        0.0%
BITBANK2           100      0       0       8        0.0%
BANK2              100      0       0       9        0.0%
BITBANK1           100      0       0       6        0.0%
BANK1              100      0      50       7       31.2%
BITBIGSFRllhhhh     CB      0       0      84        0.0%
BITBIGSFRllhhhh     C6      0       0      81        0.0%
BITBANK0            A0      0       0       4        0.0%
BANK0               A0     35      9E       5       98.8%
BITCOMRAM           5F      0       0       0        0.0%
COMRAM              5F     3A      5D       1       97.9%
BITBIGSFRllhhl      59      0       0      90        0.0%
BITBIGSFRllhhhh     40      0       0      78        0.0%
BITBIGSFRhhh        2D      0       0      68        0.0%
BITBIGSFRllllll     2A      0       0     103        0.0%
BITBIGSFRllhhhh     27      0       0      75        0.0%
BITBIGSFRllllll     1F      0       0      98        0.0%
BITBIGSFRllhhhh     1C      0       0      80        0.0%
BITBIGSFRllllll     16      0       0     107        0.0%
BITBIGSFRllllll     11      0       0     106        0.0%
BITBIGSFRlllllh      B      0       0      97        0.0%
BITBIGSFRllhhhh      8      0       0      76        0.0%
BITBIGSFRllllll      6      0       0     110        0.0%
BITBIGSFRllhhhh      6      0       0      74        0.0%
BITBIGSFRllllll      6      0       0      99        0.0%
BITBIGSFRllllll      5      0       0     101        0.0%
BITBIGSFRllhhhl      5      0       0      89        0.0%
BITBIGSFRlllhl       5      0       0      94        0.0%
BITBIGSFRllhll       5      0       0      92        0.0%
BITBIGSFRhhlh        4      0       0      69        0.0%
BITBIGSFRllhhhh      4      0       0      73        0.0%
BITBIGSFRllhhhh      4      0       0      77        0.0%
BITBIGSFRllhlh       4      0       0      91        0.0%
BITBIGSFRlllhh       4      0       0      93        0.0%
BITBIGSFRllllhh      4      0       0      95        0.0%
BITBIGSFRhhlll       4      0       0      71        0.0%
BITBIGSFRhll         3      0       0      72        0.0%
BITBIGSFRllllll      2      0       0     111        0.0%
BITBIGSFRllhhhh      2      0       0      85        0.0%
BITBIGSFRllllll      2      0       0     108        0.0%
BITBIGSFRllllll      2      0       0     100        0.0%
BITBIGSFRllllhl      2      0       0      96        0.0%
BITBIGSFRhhllh       1      0       0      70        0.0%
BITBIGSFRllhhhh      1      0       0      82        0.0%
BITBIGSFRllhhhh      1      0       0      83        0.0%
BITBIGSFRllllll      1      0       0     109        0.0%
BITBIGSFRllhhhh      1      0       0      87        0.0%
BITBIGSFRllhhhh      1      0       0      86        0.0%
BITBIGSFRllhhhh      1      0       0      79        0.0%
BITBIGSFRllllll      1      0       0     104        0.0%
BITBIGSFRllllll      1      0       0     105        0.0%
BITBIGSFRllllll      1      0       0     102        0.0%
BIGSFR               0      0       0     200        0.0%
BITSFR_8             0      0       0     200        0.0%
SFR_8                0      0       0     200        0.0%
BITSFR_7             0      0       0     200        0.0%
SFR_7                0      0       0     200        0.0%
BITSFR_6             0      0       0     200        0.0%
SFR_6                0      0       0     200        0.0%
BITSFR_5             0      0       0     200        0.0%
SFR_5                0      0       0     200        0.0%
BITSFR_4             0      0       0     200        0.0%
SFR_4                0      0       0     200        0.0%
BITSFR_3             0      0       0     200        0.0%
SFR_3                0      0       0     200        0.0%
BITSFR_2             0      0       0     200        0.0%
SFR_2                0      0       0     200        0.0%
BITSFR_1             0      0       0     200        0.0%
SFR_1                0      0       0     200        0.0%
BITSFR               0      0       0     200        0.0%
SFR                  0      0       0     200        0.0%
STACK                0      0       0       2        0.0%
NULL                 0      0       0       0        0.0%
ABS                  0      0     14B     113        0.0%
DATA                 0      0     14B       3        0.0%
CODE                 0      0       0       0        0.0%


Microchip Technology PIC18 Macro Assembler V2.36 build 20220127204148 
Symbol Table                                                                                   Mon Jun 02 15:02:34 2025

                                _rps_anterior 008D                                  ___fldiv@aexp 0027  
                                ___fldiv@bexp 0026                                             _i 0095  
            __end_of_TMR5_SetInterruptHandler 4C80                  __end_of_velocidadTransitorio 45D0  
                                ___fldiv@sign 001F                                            _i2 003B  
                         ___wmul@multiplicand 0003                                   _pulse_count 007C  
                                         l210 4B8A                                           l204 49C0  
                                         l125 44E8                                           l207 4C0C  
                                         l136 4CA8                                           l237 4BA8  
                                         l451 49F6                                           l356 47E2  
                                         l607 4B16                                           l448 4BF4  
                                         l640 4BC2                                           l553 4B66  
                                         l529 4C8C                                           l580 4B3E  
                                         l486 4AC4                                           l822 4A92  
                                         l765 4D36                                           l865 4C70  
                                         l975 4692                                           _PR2 003FAB  
                                         _PR4 003F9F                                           _PR6 003F93  
                             i2_actualizarDir 483A                               _timer1ReloadVal 00F8  
                                         _dir 0056                                           _rps 0054  
                                  i2___xxtofl 39C6                               _TMR2_Initialize 4B8C  
                                         tosl 003FFD                                           wreg 003FE8  
                                 i2___flmul@a 0013                                   i2___flmul@b 000F  
                                ___flmul@aexp 00C7                                  ___flmul@bexp 00C8  
                        i2_PWM6_LoadDutyValue 4A2E                               _CWG2_Initialize 4B18  
                          _UART1_Transmit_ISR 000000                                  ___flmul@sign 00C2  
                                ___flmul@temp 00CD                                  ___flmul@prod 00C9  
                                ___fltol@exp1 00D8                                          l1050 4C54  
                                        l1123 4C9A                                          l1053 4C46  
                                        l1062 4C2A                                          l1056 4C62  
                                        l1059 4C38                                          l1093 497E  
                                        l1157 4930                                          l2321 22E8  
                                        l2314 20CE                                          l1187 4C7E  
                                        l2331 2418                                          l2323 2360  
                                        l2324 234E                                          l1604 4838  
                                        l2318 2456                                          l2362 3900  
                                        l2355 3868                                          l2358 39C4  
                                        l2369 395C                                          l4501 4C80  
                                        l4503 4C64                                          l4511 4C3A  
                                        l4513 4C56                                          l4505 4C2C  
                                        l5321 4984                                          l1697 3FBC  
                                        l6201 3448                                          l4515 4C8E  
                                        l4507 4C1E                                          l5331 4998  
                                        l5323 4988                                          l6211 346C  
                                        l6203 344C                                          l4517 4C72  
                                        l4509 4C48                                          l5341 49AC  
                                        l5333 499C                                          l5325 498C  
                                        l6221 34C8                                          l6213 347C  
                                        l6205 3452                                          l5351 49C2  
                                        l5343 49B0                                          l5335 49A0  
                                        l5327 4990                                          l5319 4980  
                                        l6231 3506                                          l6215 34AE  
                                        l6223 34CC                                          l6207 3456  
                                        l6151 33D8                                          l5345 49B4  
                                        l5337 49A4                                          l5329 4994  
                                        l6241 357E                                          l6233 351E  
                                        l6225 34DC                                          l6217 34B6  
                                        l6209 3458                                          l6161 33F2  
                                        l6153 33DC                                          l4811 4404  
                                        l5347 49B8                                          l5339 49A8  
                                        l6243 3596                                          l6235 3536  
                                        l6227 34E0                                          l6219 34C2  
                                        l6171 340A                                          l6163 33F4  
                                        l6155 33DE                                          l4821 448E  
                                        l4813 4482                                          l4901 48FC  
                                        l5349 49BC                                          l1997 42FC  
                                        l6245 35EC                                          l6237 354E  
                                        l6229 34F2                                          l6181 341E  
                                        l6173 340E                                          l6165 33F8  
                                        l6157 33E0                                          l4831 449C  
                                        l4823 4490                                          l4815 4484  
                                        l4911 4946                                          l4903 4916  
                                        l6247 35F4                                          l6239 3566  
                                        l6191 3436                                          l6183 3422  
                                        l6175 3412                                          l6167 33FC  
                                        l6159 33EA                                          l4921 4B18  
                                        l4841 44BC                                          l4833 449E  
                                        l4825 4492                                          l4817 4486  
                                        l4913 494A                                          l4905 491A  
                                        l5801 22A2                                          l5561 4808  
                                        l6249 35FC                                          l6193 343E  
                                        l6185 3426                                          l6177 3416  
                                        l6169 3402                                          l4923 4AF0  
                                        l4499 4C9C                                          l4851 44D0  
                                        l4843 44C0                                          l4835 44A0  
                                        l4827 4494                                          l4819 4488  
                                        l4915 4964                                          l4907 492C  
                                        l4931 45E6                                          l5811 22F8  
                                        l5803 22B0                                          l5731 2036  
                                        l5723 2008                                          l5563 481A  
                                        l5555 47E4                                          l5571 3F7A  
                                        l6195 3442                                          l6187 342C  
                                        l6179 341A                                          l4925 4B40  
                                        l4861 44E4                                          l4853 44D4  
                                        l4845 44C4                                          l4837 44B2  
                                        l4829 449A                                          l4917 4968  
                                        l4909 4932                                          l4941 460E  
                                        l4933 45FC                                          l5813 2306  
                                        l5805 22CE                                          l5741 2072  
                                        l5733 2046                                          l5725 2016  
                                        l5901 3832                                          l5565 481E  
                                        l5557 47EC                                          l5581 3FB6  
                                        l5573 3F82                                          l6197 3444  
                                        l6189 3430                                          l4863 4D34  
                                        l4855 44D8                                          l4847 44C8  
                                        l4839 44B6                                          l4919 497A  
                                        l4871 4A94                                          l4951 4622  
                                        l4943 4612                                          l4935 4602  
                                        l4927 45D0                                          l5823 2370  
                                        l5831 23B8                                          l5815 230A  
                                        l5807 22D8                                          l5751 20A8  
                                        l5743 2078                                          l5735 2056  
                                        l5727 2024                                          l5911 38AA  
                                        l5903 3878                                          l5567 4830  
                                        l5559 4800                                          l5583 3FB8  
                                        l5575 3F86                                          l6199 3446  
                                        l4857 44DC                                          l4849 44CC  
                                        l4865 4B68                                          l4881 4B8C  
                                        l4873 4AA8                                          l4961 4636  
                                        l4953 4626                                          l4945 4616  
                                        l4937 4606                                          l4929 45D4  
                                        l5841 242C                                          l5833 23D2  
                                        l5825 237C                                          l5817 2318  
                                        l5809 22E6                                          l5753 20B8  
                                        l5745 2086                                          l5737 205C  
                                        l5729 2026                                          l5921 3932  
                                        l5913 38B6                                          l5905 388E  
                                        l5577 3F9A                                          l5569 3E96  
                                        l4867 4BF6                                          l4859 44E0  
                                        l4971 4BAA                                          l4883 4BA0  
                                        l4875 4AAC                                          l4891 4A7A  
                                        l4963 463A                                          l4955 462A  
                                        l4947 461A                                          l4939 460A  
                                        l5843 243A                                          l5835 23E6  
                                        l5827 238A                                          l5819 2346  
                                        l5771 2142                                          l5763 2102  
                                        l5755 20BE                                          l5747 2088  
                                        l5739 206C                                          l5931 3970  
                                        l5923 393E                                          l5915 38E8  
                                        l5579 3FAE                                          l4869 4788  
                                        l4885 4BDE                                          l4973 4BC0  
                                        l4877 4AAE                                          l4893 4A7C  
                                        l4965 464C                                          l4957 462E  
                                        l4949 461E                                          l5845 243C  
                                        l5837 2400                                          l5829 23B4  
                                        l5781 2194                                          l5773 215E  
                                        l5765 2112                                          l5757 20DE  
                                        l5749 2098                                          l5861 424C  
                                        l5853 41F6                                          l5933 3994  
                                        l5925 394C                                          l5917 38EA  
                                        l5909 38A2                                          l4879 4AC0  
                                        l4895 4A8E                                          l4887 4A62  
                                        l4967 465E                                          l4959 4632  
                                        l5839 241C                                          l5847 2442  
                                        l5791 21F2                                          l5783 21A4  
                                        l5775 216A                                          l5767 211C  
                                        l5759 20EE                                          l5863 424E  
                                        l5855 420E                                          l5935 39A4  
                                        l5927 396A                                          l5919 38F6  
                                        l4897 48E4                                          l4889 4A76  
                                        l4969 468E                                          l5849 2446  
                                        l5793 2212                                          l5785 21B4  
                                        l5777 2176                                          l5769 2136  
                                        l5865 425E                                          l5937 39B2  
                                        l5929 396C                                          l4899 48F8  
                                        l5795 2222                                          l5787 21C4  
                                        l5779 2184                                          l5891 42DC  
                                        l5875 4288                                          l5867 4262  
                                        l5859 4222                                          l5939 39B4  
                                        l5797 2242                                          l5789 21E2  
                                        l5893 42EC                                          l5885 42B0  
                                        l5877 4292                                          l5869 4270  
                                        l5799 226C                                          l5887 42BC  
                                        l5879 429C                                          l5889 42CC  
                                        l5897 3812                                          l5899 3824  
                                        _LATA 003FBA                                          _LATB 003FBB  
                                        _LATC 003FBC                                          _LATD 003FBD  
                                        _LATE 003FBE                                          u5000 2024  
                                        u5001 2020                                          u5010 2036  
                                        _T2PR 003FAB                                          u5011 2032  
                                        u5100 2306                                          u5020 2046  
                                        u5101 2302                                          u5021 2042  
                                        u5110 2318                                          u5030 2086  
                                        u5111 2314                                          u5031 2082  
                                        u5120 2346                                          u5040 2098  
                                        u5200 4242                                          u5121 2342  
                                        u5041 2094                                          u5130 235C  
                                        u5050 20A8                                          u5210 4270  
                                        _T4PR 003F9F                                          u5131 2358  
                                        u5051 20A4                                          u5211 426C  
                                        u5140 2370                                          u5060 20DE  
                                        u5220 4284                                          u5300 392E  
                                        u5141 236C                                          u5061 20DA  
                                        u5221 4280                                          u5205 4238  
                                        u5301 392A                                          u5150 238A  
                                        u5070 20EE                                          u5230 42AC  
                                        u5310 394C                                          u5151 2386  
                                        u5071 20EA                                          u5231 42A8  
                                        u5311 3948                                          u5160 23D2  
                                        u5080 228C                                          u5240 42CC  
                                        u5320 395C                                          u5161 23CE  
                                        u5241 42C8                                          u5321 3958  
                                        u5170 2400                                          u5090 22E6  
                                        u5250 42DC                                          u5330 396A  
                                        _T6PR 003F93                                          u5171 23FC  
                                        u5091 22E2                                          u5251 42D8  
                                        u5331 3966                                          u5180 243A  
                                        u5340 39A4                                          u5260 3824  
                                        _PMD0 0039C0                                          u5181 2436  
                                        u5085 2282                                          u5341 39A0  
                                        u5261 3820                                          _PMD1 0039C1  
                                        u5190 420E                                          u5350 39B2  
                                        u5270 3832                                          _PMD2 0039C2  
                                        u5191 420A                                          u5351 39AE  
                                        u5271 382E                                          _PMD3 0039C3  
                                        u5280 388E                                          u4720 4800  
                                        _PMD4 0039C4                                          u5281 388A  
                                        u4721 47FC                                          _PMD5 0039C5  
                                        u5290 38E4                                          u4730 481A  
                                        _PMD6 0039C6                                          u4395 49E8  
                                        u5291 38E0                                          u4731 4816  
                                        _PMD7 0039C7                                          u4740 4830  
                                        u4741 482C                                          u4760 3F9A  
                                        u5800 346C                                          u4761 3F96  
                                        u5801 3468                                          u5810 347C  
                                        u4755 3F04                                          u5811 3478  
                                        u5820 34DC                                          u5821 34D8  
                                        u5830 34F2                                          u5831 34EE  
                                        _TMR2 003FAA                                          _TMR4 003F9E  
                                        _TMR6 003F92                                          _STOP 4BC4  
                                        _WPUA 003A41                                          _WPUB 003A51  
                                        _WPUC 003A61                                          _WPUD 003A71  
                                        _WPUE 003A81                                 _conteo_preuba 008F  
                                        _Temp 4890                         __end_of_UART1_Receive 380E  
                                        _dato 0050                                          _cont 00F4  
                                        _main 33D8                         _actualizarEstadoMotor 3FBE  
                                        _duty 005B                                          fsr2h 003FDA  
                                        indf1 003FE7                                          indf2 003FDF  
                                        fsr1l 003FE1                                          fsr2l 003FD9  
                                        _suma 009D                                          prodh 003FF4  
                                        prodl 003FF3                                          start 001A  
                             _timer5ReloadVal 00F6                                  i2___fltol@f1 0028  
                             ___fldiv@new_exp 0020                 ??_UART1_SetTxInterruptHandler 00AB  
                  ??_TMR1_SetInterruptHandler 00AB                                _SPI1STATUSbits 003D17  
                  ??_TMR4_SetInterruptHandler 00AB                               _CWG3_Initialize 4AF0  
                                ___param_bank 000000                                   ?_UART1_Read 0001  
                                       ?_STOP 0001                 __end_of_OSCILLATOR_Initialize 4C0E  
                                       ?_Temp 0001                                 ___fltol@sign1 00D7  
                                       _ADACT 003EFE                                         _ADCAP 003EF5  
                                       ?_main 0001                                         _ADCLK 003EFF  
                                       _ADCNT 003EEB                                         _ADPCH 003EF1  
                             __end_of___fldiv 2C40                                         _ADREF 003EFD  
                                       _ADRPT 003EEC                               __end_of___flmul 2458  
                             __end_of___fltol 42FE                                         _T1CLK 003FB5  
                                       _T1CON 003FB2                                         _U1P1H 003DED  
                                       _U1P2H 003DEF                                         _U1P3H 003DF1  
                                       _U1P1L 003DEC                                         _U1P2L 003DEE  
                                       _T2CON 003FAC                                         _U1P3L 003DF0  
                                       _T5CLK 003F9D                                         _T4CON 003FA0  
                                       _T2HLT 003FAD                                         _T5CON 003F9A  
                                       _T6CON 003F94                                         _T4HLT 003FA1  
                                       _T6HLT 003F95                                         _T2TMR 003FAA  
                                       _U1UIR 003DF8                                         _U1RXB 003DE8  
                                       _T2RST 003FAF                                         _U1TXB 003DEA  
                                       _T4TMR 003F9E                                         _T4RST 003FA3  
                                       i2l451 4A60                                         _T6TMR 003F92  
                                       _T6RST 003F97                                         i2l781 2EDA  
                                       i2l787 2EFE                                         i2l999 3750  
                                       _OSCEN 0039DD                                         _TMR1H 003FB1  
                                       _TMR1L 003FB0                                         _TMR5H 003F99  
                                       _TMR5L 003F98                    __end_of_startUpReverseMode 3D08  
                                       _TRISA 003FC2                                         _TRISB 003FC3  
                                       _TRISC 003FC4                                         _TRISD 003FC5  
                                       _TRISE 003FC6                                  ?_forwardMode 0001  
                             _TMR4_Initialize 4A94                               _PWM6_Initialize 4BDE  
                       ?i2_PWM6_LoadDutyValue 0007                     ?_TMR6_SetInterruptHandler 00A8  
                                       _ascii 00A6                                         _index 0053  
                             __end_of_current 41F6                       __end_of_TMR1_Initialize 4980  
                                       pclath 003FFA                                         pclatu 003FFB  
                                       tablat 003FF5                               __end_of_state1F 4D2E  
                             __end_of_state2F 4CF2                               __end_of_state3F 4D24  
                             __end_of_state4F 4CE6                               __end_of_state5F 4D1A  
                             __end_of_state6F 4CDA                       __end_of_CWG1_Initialize 4B68  
                                       status 003FD8           __end_of_UART1_SetRxInterruptHandler 4C3A  
                 _UART1_SetRxInterruptHandler 4C2C                                 i2___flmul@grs 001C  
         fp__UART1_DefaultFramingErrorHandler 0000      __end_of_UART1_DefaultFramingErrorHandler 4D3E  
          ??_UART1_DefaultFramingErrorHandler 0001             ?_UART1_DefaultFramingErrorHandler 0001  
            _UART1_DefaultFramingErrorHandler 4D3C                               _TMR5_Initialize 48E4  
                                __end_of_STOP 4BDE                               __initialization 4694  
                       __end_of_actualizarDir 483A                                  __end_of_Temp 48E4  
                                __end_of_main 360E                       __end_ofi2_actualizarDir 4890  
            _UART1_RxCompleteInterruptHandler 0084                       __end_of_TMR2_Initialize 4BAA  
                 ?_INTERRUPT_InterruptManager 0001                                        ??_STOP 0001  
                                      ??_Temp 0001                       __end_of_CWG2_Initialize 4B40  
                                      ??_main 00D9                      _TMR5_SetInterruptHandler 4C72  
                               __activetblptr 000003                       _IOCBF0_InterruptHandler 00EF  
                                 ?i2___xxtofl 0001                                  _calcPromedio 00A7  
                             _TMR6_Initialize 4A62                              _UART1_Initialize 45D0  
                              _convertirASCII 3E96                                        _ADACCH 003EE9  
                                      _ADACCL 003EE8                                        _ADACCU 003EEA  
                                      _ADACQH 003EF4                                        _ADACQL 003EF3  
                                      _ADCON0 003EF8                                        _ADCON1 003EF9  
                                      _ADCON2 003EFA                                        _ADCON3 003EFB  
                                      _ADERRH 003EE3                                        _ADERRL 003EE2  
                                      _ADLTHH 003EDF                                        _ADLTHL 003EDE  
                                      _ADRESH 003EF0                                        _ADRESL 003EEF  
                                      _ADPREH 003EF7                                        _ADPREL 003EF6  
                                      _ADSTAT 003EFC                                        _ADUTHH 003EE1  
                                      _ADUTHL 003EE0                                        _ANSELA 003A40  
                                      _ANSELB 003A50                                        _ANSELC 003A60  
                                      _ANSELD 003A70                                        _ANSELE 003A80  
                                      _RB1I2C 003A5A                                        _T1GATE 003FB4  
                                      _RB2I2C 003A5B                                        _T1GCON 003FB3  
                                      _RD0I2C 003A7A                                        _U1CON0 003DF2  
                                      _U1CON1 003DF3                                        _U1CON2 003DF4  
                                      _RD1I2C 003A7B                                        _RC3I2C 003A6A  
                                      _RC4I2C 003A6B                                        _U1BRGH 003DF6  
                                      _U1FIFO 003DF7                                        _U1BRGL 003DF5  
                                      _T5GATE 003F9C                                        _T5GCON 003F9B  
                        _velocidadTransitorio 44EA                                        _RB2PPS 003A0A  
                                      _RB3PPS 003A0B                                        _RD0PPS 003A18  
                                      _RD1PPS 003A19                                        _RB5PPS 003A0D  
                                      _RC3PPS 003A13                                        _RC4PPS 003A14  
                                      _RE0PPS 003A20                                        _RC5PPS 003A15  
                                      _ODCONA 003A42                                        _ODCONB 003A52  
                                      _ODCONC 003A62                                        _ODCOND 003A72  
                                      _ODCONE 003A82                                        i2l1012 4A2C  
                                      i2l1008 380C                                        i2l1041 4D3C  
                                      i2l1044 4D3A                                        i2l1401 3D4A  
                                      i2l1410 4D2C                                        i2l1402 3D8C  
                                      i2l1403 3DCE                                        i2l1404 3E10  
                                      i2l1340 3BFE                                        i2l1413 4CF0  
                                      i2l1405 3E52                                        i2l1341 3C40  
                                      i2l1422 4D18                                        i2l1342 3C82  
                                      i2l1351 4D0E                                        i2l1407 3E94  
                                      i2l1343 3CC4                                        i2l1336 4BDC  
                                      i2l1416 4D22                                        i2l1440 33D6  
                                      i2l1360 4CB4                                        i2l1425 4CD8  
                                      i2l1345 3D06                                        i2l2321 2736  
                                      i2l1354 4CC0                                        i2l2314 251C  
                                      i2l1610 45CE                                        i2l1419 4CE4  
                                      i2l1363 4CFA                                        i2l1339 3BBC  
                                      i2l2331 2866                                        i2l2323 27AE  
                                      i2l1348 4CCC                                        i2l1700 4AEE  
                                      i2l2324 279C                                        i2l1604 488E  
                                      i2l1357 4D04                                        i2l2318 28A4  
                                      i2l1622 40DC                                        i2l1632 41B2  
                                      i2l1641 48E2                                        i2l5001 3B96  
                                      i2l2282 2C3E                                        i2l1626 411E  
                                      i2l1378 3170                                        i2l2362 3AB4  
                                      i2l1635 41F4                                        i2l5011 3C0C  
                                      i2l5003 3BA4                                        i2l2355 3A1C  
                                      i2l2284 2A9E                                        i2l2293 2AE4  
                                      i2l5101 308C                                        i2l5021 3C6A  
                                      i2l5013 3C1A                                        i2l5005 3BCA  
                                      i2l1638 48B4                                        i2l2358 3B78  
                                      i2l2295 2B5C                                        i2l2287 2A62  
                                      i2l5111 30C0                                        i2l5103 3094  
                                      i2l5031 3CE0                                        i2l5023 3C90  
                                      i2l5015 3C28                                        i2l5007 3BD8  
                                      i2l2296 2B4A                                        i2l5201 31E6  
                                      i2l5121 30FA                                        i2l5113 30CE  
                                      i2l5105 3098                                        i2l5041 2F36  
                                      i2l5033 3CEE                                        i2l5025 3C9E  
                                      i2l5017 3C4E                                        i2l5009 3BE6  
                                      i2l2369 3B10                                        i2l6001 2D4C  
                                      i2l1691 4786                                        i2l5211 3226  
                                      i2l5203 31F4                                        i2l5131 3134  
                                      i2l5123 30FE                                        i2l5115 30D6  
                                      i2l5107 30A4                                        i2l5051 2F66  
                                      i2l5043 2F3E                                        i2l5035 2F0C  
                                      i2l5027 3CAC                                        i2l5019 3C5C  
                                      i2l6011 2D80                                        i2l6003 2D54  
                                      i2l5221 325A                                        i2l5213 322E  
                                      i2l5205 3202                                        i2l5141 3164  
                                      i2l5133 313C                                        i2l5117 30EE  
                                      i2l5109 30B2                                        i2l5125 310A  
                                      i2l5061 2FA4                                        i2l5045 2F56  
                                      i2l5037 2F1A                                        i2l5053 2F72  
                                      i2l5029 3CD2                                        i2l5301 45A2  
                                      i2l6021 2DA8                                        i2l6013 2D84  
                                      i2l6005 2D5E                                        i2l5231 3294  
                                      i2l5223 3268                                        i2l5215 3232  
                                      i2l5207 320A                                        i2l5135 3154  
                                      i2l5127 3118                                        i2l5119 30F2  
                                      i2l5063 2FBC                                        i2l5055 2F80  
                                      i2l5071 2FD8                                        i2l5047 2F5A  
                                      i2l5039 2F28                                        i2l5151 3D58  
                                      i2l5143 3D08                                        i2l5303 45AA  
                                      i2l5311 485E                                        i2l6031 2E24  
                                      i2l6023 2DB0                                        i2l6015 2D92  
                                      i2l6007 2D6E                                        i2l5401 3754  
                                      i2l5241 32CE                                        i2l5233 3298  
                                      i2l5225 3270                                        i2l5209 3222  
                                      i2l5217 323E                                        i2l4521 4D06  
                                      i2l5137 3158                                        i2l5129 3126  
                                      i2l5081 3022                                        i2l5073 2FE6  
                                      i2l5065 2FC0                                        i2l5057 2F8E  
                                      i2l5049 2F62                                        i2l5161 3DB6  
                                      i2l5153 3D66                                        i2l5145 3D16  
                                      i2l4601 4354                                        i2l5313 4870  
                                      i2l5305 483A                                        i2l6041 2E54  
                                      i2l6033 2E2C                                        i2l6025 2DB8  
                                      i2l6017 2DA0                                        i2l6009 2D7C  
                                      i2l5411 378E                                        i2l5403 3760  
                                      i2l4531 40DE                                        i2l5251 32FE  
                                      i2l5243 32D6                                        i2l5227 3288  
                                      i2l5219 324C                                        i2l5235 32A4  
                                      i2l4523 4CB6                                        i2l5139 3160  
                                      i2l5091 304C                                        i2l5083 3026  
                                      i2l5075 2FF4                                        i2l5067 2FC8  
                                      i2l5059 2F9C                                        i2l5171 3E2C  
                                      i2l5163 3DDC                                        i2l5155 3D74  
                                      i2l5147 3D24                                        i2l4603 4364  
                                      i2l5315 4874                                        i2l5307 4842  
                                      i2l6051 2EAC                                        i2l6043 2E64  
                                      i2l6035 2E30                                        i2l6027 2E06  
                                      i2l6019 2DA4                                        i2l5501 48DC  
                                      i2l5421 37D4                                        i2l5413 379E  
                                      i2l5405 3772                                        i2l4541 4116  
                                      i2l4533 40EE                                        i2l5261 333C  
                                      i2l5245 32EE                                        i2l5237 32B2  
                                      i2l5253 330A                                        i2l5229 328C  
                                      i2l5181 3172                                        i2l4525 4CFC  
                                      i2l5093 305A                                        i2l5085 302E  
                                      i2l5077 3002                                        i2l5069 2FCC  
                                      i2l5173 3E3A                                        i2l5165 3DEA  
                                      i2l5157 3D9A                                        i2l5149 3D32  
                                      i2l4701 2630                                        i2l4613 438E  
                                      i2l4605 4368                                        i2l5317 4886  
                                      i2l5309 4856                                        i2l6053 2EAE  
                                      i2l6061 2EBA                                        i2l6045 2E66  
                                      i2l6029 2E1C                                        i2l6037 2E36  
                                      i2l5511 4776                                        i2l5503 472A  
                                      i2l5423 37E6                                        i2l5415 37B0  
                                      i2l5407 3776                                        i2l4551 4144  
                                      i2l4543 4118                                        i2l4535 40FE  
                                      i2l5263 3354                                        i2l5255 3318  
                                      i2l5271 3370                                        i2l5247 32F2  
                                      i2l5239 32C0                                        i2l5191 31BC  
                                      i2l5183 3180                                        i2l4519 4CC2  
                                      i2l4527 4CAA                                        i2l5095 3068  
                                      i2l5087 3032                                        i2l5079 300A  
                                      i2l5175 3E60                                        i2l5167 3DF8  
                                      i2l5159 3DA8                                        i2l4711 26BA  
                                      i2l4703 2640                                        i2l4631 43F2  
                                      i2l4623 43B6                                        i2l4615 4398  
                                      i2l4607 4376                                        i2l5431 3FC2  
                                      i2l6071 2EFA                                        i2l6063 2ECA  
                                      i2l6055 2EB0                                        i2l6047 2E8C  
                                      i2l6039 2E46                                        i2l5513 4778  
                                      i2l5505 4748                                        i2l5425 37EA  
                                      i2l5417 37B4                                        i2l5409 377E  
                                      i2l5361 363E                                        i2l5601 28FC  
                                      i2l4561 4192                                        i2l4553 4160  
                                      i2l4545 412E                                        i2l4537 410E  
                                      i2l5281 33BA                                        i2l5273 337E  
                                      i2l5265 3358                                        i2l5257 3326  
                                      i2l5249 32FA                                        i2l5193 31C0  
                                      i2l5185 318E                                        i2l4529 4CF2  
                                      i2l5097 3070                                        i2l5089 303E  
                                      i2l5177 3E6E                                        i2l5169 3E1E  
                                      i2l4721 2734                                        i2l4713 26F0  
                                      i2l4705 2660                                        i2l4641 2474  
                                      i2l4625 43C2                                        i2l4617 43A2  
                                      i2l4801 3B48                                        i2l5441 400A  
                                      i2l5433 3FD4                                        i2l6057 2EB2  
                                      i2l6049 2EA8                                        i2l6065 2EDA  
                                      _INLVLA 003A44                                        _INLVLB 003A54  
                                      i2l5515 477C                                        i2l5507 475A  
                                      i2l5427 37FE                                        i2l5419 37C4  
                                      i2l5371 36A0                                        i2l5363 3652  
                                      i2l5355 360E                                        i2l5611 2928  
                                      i2l5603 290C                                        i2l4563 41A6  
                                      i2l4555 4172                                        i2l4547 4132  
                                      i2l4539 4112                                        i2l4571 4D24  
                                      i2l5283 33BE                                        i2l5275 338C  
                                      i2l5267 3360                                        i2l5259 3334  
                                      i2l5195 31C8                                        i2l5187 319C  
                                      i2l5099 3088                                        i2l5179 3E7C  
                                      i2l4731 2794                                        i2l4723 2746  
                                      i2l4715 26FE                                        i2l4707 2670  
                                      i2l4651 24BA                                        i2l4643 2484  
                                      i2l4635 2458                                        i2l4627 43D2  
                                      i2l4803 3B58                                        i2l5291 455A  
                                      i2l5451 4036                                        i2l5443 4012  
                                      i2l5435 3FE6                                        i2l6067 2EEA  
                                      i2l6059 2EB4                                        _INLVLC 003A64  
                                      _INLVLD 003A74                                        i2l5509 4764  
                                      i2l5381 36DC                                        i2l5373 36BA  
                                      i2l5365 366C                                        i2l5357 361E  
                                      i2l5701 2BCE                                        i2l5613 2938  
                                      i2l5621 2962                                        i2l5605 2912  
                                      i2l4565 41AC                                        i2l4557 4178  
                                      i2l4549 4136                                        i2l4573 4CE6  
                                      i2l4581 4CCE                                        i2l5285 33C6  
                                      i2l5277 339A                                        i2l5269 3364  
                                      i2l5197 31CC                                        i2l5189 31A4  
                                      i2l4741 2802                                        i2l4725 2754  
                                      i2l4717 271C                                        i2l4709 2690  
                                      i2l4661 24E6                                        i2l4653 24C0  
                                      i2l4645 2494                                        i2l4637 2464  
                                      i2l4629 43E2                                        i2l1997 4402  
                                      i2l4805 3B66                                        i2l5293 4568  
                                      i2l5461 4078                                        i2l5453 403A  
                                      i2l5445 401E                                        i2l5437 3FF8  
                                      i2l5429 3FBE                                        i2l6069 2EF8  
                                      _INLVLE 003A84                                        i2l5391 36FA  
                                      i2l5383 36EE                                        i2l5375 36C0  
                                      i2l5367 367C                                        i2l5359 362E  
                                      i2l5711 2C2C                                        i2l5703 2BE4  
                                      i2l5631 29A4                                        i2l5623 2972  
                                      i2l5615 2948                                        i2l5607 2918  
                                      i2l4567 41B0                                        i2l4559 418C  
                                      i2l4575 4D1A                                        i2l5287 33CA  
                                      i2l5279 33A2                                        i2l5199 31D8  
                                      i2l4583 4AC6                                        i2l4751 286A  
                                      i2l4735 27BE                                        i2l4743 2806  
                                      i2l4727 2758                                        i2l4719 2726  
                                      i2l4671 253C                                        i2l4663 24F6  
                                      i2l4655 24C6                                        i2l4647 24A4  
                                      i2l4639 2472                                        i2l4591 42FE  
                                      i2l4807 3B68                                        i2l5295 456E  
                                      i2l5471 409E                                        i2l5463 407C  
                                      i2l5447 4022                                        i2l5439 3FFC  
                                      i2l5455 403E                                        i2l5393 370A  
                                      i2l5385 36F2                                        i2l5377 36C6  
                                      i2l5369 368C                                        i2l5713 2C32  
                                      i2l5705 2BFE                                        i2l5625 2988  
                                      i2l5617 2958                                        i2l5609 2926  
                                      i2l4569 41C0                                        i2l4577 4CDA  
                                      i2l4585 4AE6                                        i2l4761 2894  
                                      i2l4753 287A                                        i2l4745 2820  
                                      i2l4737 27CA                                        i2l4729 2766  
                                      i2l4681 2584                                        i2l4665 2506  
                                      i2l4657 24D4                                        i2l4649 24AA  
                                      i2l4593 4314                                        i2l5297 458C  
                                      i2l5289 44EA                                        i2l5481 40CC  
                                      i2l5465 408A                                        i2l5473 40A2  
                                      i2l5457 4052                                        i2l5449 4026  
                      ?_actualizarEstadoMotor 0001                                        i2l5491 48A8  
                                      i2l5395 371A                                        i2l5715 2C34  
                                      i2l5707 2C1A                                        i2l5651 2A26  
                                      i2l5643 29DC                                        i2l5627 2998  
                                      i2l5635 29B8                                        i2l5619 295A  
                                      i2l4579 4D10                                        i2l4755 2888  
                                      i2l4747 2834                                        i2l4739 27D8  
                                      i2l4691 25D2                                        i2l4683 2590  
                                      i2l4675 2550                                        i2l4667 250C  
                                      i2l4659 24D6                                        i2l4771 3A2C  
                                      i2l5299 4598                                        i2l5483 40D4  
                                      i2l5475 40B2                                        i2l5467 408E  
                                      i2l5459 4066                                        i2l5493 48AA  
                                      i2l5397 372C                                        i2l5389 36F4  
                                      i2l5709 2C1E                                        i2l5661 2A6C  
                                      i2l5653 2A2E                                        i2l5645 29F6  
                                      i2l5637 29C8                                        i2l5629 29A0  
                                      i2l4589 4A2E                                        i2l4757 288A  
                                      i2l4749 284E                                        i2l4693 25E2  
                                      i2l4685 25AC                                        i2l4677 2560  
                                      i2l4669 252C                                        i2l4597 4328  
                                      i2l4781 3A6A                                        i2l4773 3A42  
                                      i2l4765 39C8                                        i2l5485 40D8  
                                      i2l5477 40B6                                        i2l5469 409A  
                                      i2l5495 48B0                                        i2l5487 4890  
                                      i2l5399 373E                                        i2l5671 2AC4  
                                      i2l5663 2A8A                                        i2l5655 2A3E  
                                      i2l5647 2A06                                        i2l5639 29C8  
                                      i2l5591 28C2                                        i2l4759 2890  
                                      i2l4695 25F2                                        i2l4687 25B8  
                                      i2l4679 256A                                        i2l4599 4352  
                                      i2l4791 3AF2                                        i2l4783 3A9C  
                                      i2l4767 39D8                                        i2l5479 40BA  
                                      i2l5497 48B2                                        i2l5489 4894  
                                      i2l5681 2B02                                        i2l5673 2ACA  
                                      i2l5665 2A8C                                        i2l5657 2A52  
                                      i2l5649 2A16                                        i2l5593 28D2  
                                      i2l5585 28A6                                        i2l4697 2602  
                                      i2l4689 25C4                                        i2l4793 3B00  
                                      i2l4785 3A9E                                        i2l4777 3A56  
                                      i2l4769 39E6                                        i2l5499 48C2  
                                      i2l5691 2B6C                                        i2l5683 2B06  
                                      i2l5675 2AD4                                        i2l5667 2A9C  
                                      i2l5659 2A60                                        i2l5595 28E2  
                                      i2l5587 28B2                                        i2l4699 2612  
                                      i2l4795 3B1E                                        i2l4787 3AAA  
                                      i2l4779 3A5E                                        i2l4981 4A0E  
                                      i2l5693 2B78                                        i2l5685 2B14  
                                      i2l5677 2AE2                                        i2l5669 2AAE  
                                      i2l5597 28F2                                        i2l5589 28C0  
                                      i2l4797 3B20                                        i2l4789 3AE6  
                                      i2l4991 4A2A                                        i2l4983 4A12  
                                      i2l4975 49F8                                        i2l5695 2B86  
                                      i2l5687 2B42                                        i2l5679 2AF4  
                                      i2l5599 28F4                                        i2l4799 3B24  
                                      i2l4985 4A16                                        i2l4977 49F8  
                                      i2l5697 2BB0                                        i2l5961 2C5C  
                                      i2l4987 4A26                                        i2l4979 4A08  
                                      i2l5699 2BB4                                        i2l4995 4BC4  
                                      i2l5971 2C8E                                        i2l5963 2C6A  
                                      i2l4989 4A28                                        i2l4997 3B7A  
                                      i2l5981 2CD2                                        i2l5973 2C92  
                                      i2l5965 2C6C                                        i2l4999 3B88  
                                      i2l5983 2CE6                                        i2l5975 2CA6  
                                      i2l5991 2D16                                        i2l5967 2C70  
                                      i2l5959 2C4C                                        i2l5993 2D24  
                                      i2l5985 2D02                                        i2l5977 2CC0  
                                      i2l5969 2C80                                        i2l5995 2D32  
                                      i2l5987 2D06                                        i2l5979 2CC6  
                                      i2l5997 2D34                                        i2l5989 2D12  
                                      i2l5999 2D38                                        _OSCFRQ 0039DF  
                     __end_of_CWG3_Initialize 4B18                         _UART1_SetErrorHandler 4C56  
                            __end_of___xxtofl 39C6                    __end_of_umbral_estabilidad 2007  
                _TMR1_DefaultInterruptHandler 000000                                  _CCPTMRS1bits 003F5F  
                                      ___wmul 4AC6                                     ??___fldiv 0017  
                                   ??___flmul 00BE                                     ??___fltol 00D3  
                                ?_reverseMode 0001                                        _leidos 0080  
                                      _estado 0041                       __end_of_PWM6_Initialize 4BF6  
                     __end_of_TMR4_Initialize 4AC6                                        clear_0 46FA  
                                      clear_1 4706                                        clear_2 4712  
                                      _timer6 0052                                        isa$std 000001  
                                      _state1 4CC2                                        _state2 4D06  
                                      _state3 4CB6                                        _state4 4CFC  
                                      _state5 4CAA                                        _state6 4CF2  
                             _ADCC_Initialize 4788                        __end_of_convertirASCII 3FBE  
                _TMR4_DefaultInterruptHandler 000000                        ??i2_PWM6_LoadDutyValue 0009  
                              _PMD_Initialize 4B68                                  __pdataCOMRAM 0056  
                                   ??_current 0003                             __end_ofi2___flmul 28A6  
                           __end_ofi2___fltol 4404                                  __mediumconst 0000  
                                      tblptrh 003FF7                                        tblptrl 003FF6  
                                      tblptru 003FF8                                     ??_state1F 0001  
                                   ??_state2F 0001                                     ??_state3F 0001  
                                   ??_state4F 0001                                     ??_state5F 0001  
                                   ??_state6F 0001      TMR5_SetInterruptHandler@InterruptHandler 00A8  
    TMR1_SetInterruptHandler@InterruptHandler 00A8   UART1_SetTxInterruptHandler@InterruptHandler 00A8  
 UART1_SetRxInterruptHandler@InterruptHandler 00A8      TMR6_SetInterruptHandler@InterruptHandler 00A8  
    TMR4_SetInterruptHandler@InterruptHandler 00A8    IOCBF0_SetInterruptHandler@InterruptHandler 00A8  
        __end_of_UART1_SetOverrunErrorHandler 4C48                  _UART1_SetOverrunErrorHandler 4C3A  
                   _UART1_DefaultErrorHandler 000000                                i2___flmul@aexp 0020  
                              i2___flmul@bexp 0021                         ?_velocidadTransitorio 0001  
                              i2___flmul@sign 001B                                i2___flmul@temp 0026  
                              i2___flmul@prod 0022                              ?_TMR1_Initialize 0001  
                     __end_of_TMR5_Initialize 4932                                  ___xxtofl@arg 00B2  
                                ___xxtofl@exp 00B1                             _SYSTEM_Initialize 4980  
                                ___xxtofl@val 00A8                                    __accesstop 0060  
                     __end_of__initialization 4724                                i2___fltol@exp1 0031  
                            ?_CWG1_Initialize 0001                            ?_SYSTEM_Initialize 0001  
                               ___rparam_used 000001                                    ___fltol@f1 00CF  
                              __pcstackCOMRAM 0001                            _startUpForwardMode 3D08  
                                __pidataBANK0 4D38                                  __pidataBANK1 4C0E  
                         ??_SYSTEM_Initialize 00AD                              ?i2_actualizarDir 0001  
                           ??_SPI1_Initialize 00A8                _IOCBF0_DefaultInterruptHandler 000000  
                            ?_TMR2_Initialize 0001                       __end_of_TMR6_Initialize 4A94  
                      __end_of_PMD_Initialize 4B8C                              ?_CWG2_Initialize 0001  
                         ?_startUpForwardMode 0001                                    _acelerando 0045  
                          _spi1_configuration 2001                               ?_convertirASCII 0001  
                   _UART1_FramingErrorHandler 00E6                     __end_of_SYSTEM_Initialize 49C2  
                                  __pbssBANK0 0060                                    __pbssBANK1 0100  
               ?_UART1_SetOverrunErrorHandler 00A8                        ?_UART1_SetErrorHandler 00A8  
                        ??_startUpForwardMode 0001                              ?_CWG3_Initialize 0001  
                                  __pnvCOMRAM 005B                         _TMR4_InterruptHandler 00EC  
                                     IVTBASEH 003FD6                                       IVTBASEL 003FD5  
                                     IVTBASEU 003FD7                                  ??_UART1_Read 0001  
                                     ?___wmul 0001              __end_of_TMR6_SetInterruptHandler 4C72  
                     __end_of_ADCC_Initialize 47E4                    __end_of_PWM6_LoadDutyValue 49F8  
                                     _ADFLTRH 003EE7                                       _ADFLTRL 003EE6  
                                  _digito_ptr 00F2                                       _ADPREVH 003EEE  
                                     _ADPREVL 003EED                              ?_PWM6_Initialize 0001  
                            ?_TMR4_Initialize 0001                                       _ADSTPTH 003EE5  
                                     _ADSTPTL 003EE4                               ?_PMD_Initialize 0001  
                                     ?_state1 0001                                       ?_state2 0001  
                                     ?_state3 0001                                       ?_state4 0001  
                                     ?_state5 0001                                       ?_state6 0001  
                           _UART1_Receive_ISR 000000                                       _CWG1AS0 003F58  
                                     _CWG1DBF 003F55                                       _CWG1AS1 003F59  
                                     _CWG2DBF 003F4C                                       _CWG2AS0 003F4F  
                                     _CWG2AS1 003F50                                       _CWG1DBR 003F54  
                                     _CWG3DBF 003F43                                       _CWG3AS0 003F46  
                                     _CWG3AS1 003F47                                       _CWG2DBR 003F4B  
                                     _CWG3DBR 003F42                                       _CWG1ISM 003F53  
                                     _CWG2ISM 003F4A                                       _CWG3ISM 003F41  
                                     _CWG1STR 003F5A                                       _CWG2STR 003F51  
                                     _CWG3STR 003F48                                       _U1ERRIE 003DFA  
                                     _U1ERRIR 003DF9                                    _dir_previo 003D  
                          _sumatoriaCorriente 0078                                       _U1RXPPS 003AE5  
                                   ?___xxtofl 00A8                                       _OSCCON1 0039D9  
                                     _OSCCON3 0039DB                                       _SPI1CLK 003D1C  
                                     _SPI1RXB 003D10                                       _SPI1TXB 003D11  
                                     _OSCTUNE 0039DE                                       _PWM6DCH 003F69  
                                     _PWM6DCL 003F68                                       _PWM6CON 003F6A  
                                     _SLRCONA 003A43                                       _SLRCONB 003A53  
                                     _SLRCONC 003A63                                       _SLRCOND 003A73  
                                     _SLRCONE 003A83                        ??_velocidadTransitorio 0032  
                          __end_of_UART1_Read 4A2E                              ?_TMR5_Initialize 0001  
                                  _conversion 0134                            _startUpReverseMode 3B7A  
                       UART1_Receive@regValue 0003                                     _ADREFbits 003EFD  
                                  _leidos_ptr 0043                                       __Hparam 0000  
                                     __Lparam 0000                      __end_of_UART1_Initialize 4694  
                  ??_TMR5_SetInterruptHandler 00AB                          UART1_Read@tempRxTail 0001  
                         ?_startUpReverseMode 0001                                       ___fldiv 28A6  
                                     ___flmul 2008                                       ___fltol 41F6  
                                __psmallconst 2000                 ?_RutinaTransmicionUSART_ASCII 0001  
                                     __pcinit 4694                              ?_TMR6_Initialize 0001  
                                     __ramtop 2000                                       _digitos 0118  
                                     __ptext0 33D8                                       __ptext1 3E96  
                                     __ptext2 47E4                                       __ptext3 380E  
                                     __ptext4 41F6                                       __ptext5 2008  
                                     __ptext6 4980                                       __ptext7 45D0  
                                     __ptext8 4C1E                                       __ptext9 4C2C  
                                   _T1CONbits 003FB2                                       _enviado 005A  
                       _OSCILLATOR_Initialize 4BF6                                     _T2CONbits 003FAC  
                                     _current 40DE                                  ??i2___xxtofl 0005  
                                  ??___xxtofl 00AC                                       _lowByte 0046  
                                   _T4CONbits 003FA0                      ??_PIN_MANAGER_Initialize 00AB  
                   ?_TMR1_SetInterruptHandler 00A8                                     _T2HLTbits 003FAD  
                                   _IOCBFbits 003A57                                    _lowByte_16 0087  
                                   _T5CONbits 003F9A                     ?_TMR4_SetInterruptHandler 00A8  
                                   _IOCBNbits 003A56                          ??_startUpReverseMode 0001  
                                   _T6CONbits 003F94                                     _IOCBPbits 003A55  
                                     _porcent 00FC                                     _T4HLTbits 003FA1  
                                     _prevdir 014D                                       _state1F 4D24  
                                     _state2F 4CE6                                       _state3F 4D1A  
                                     _state4F 4CDA                                       _state5F 4D10  
                                     _state6F 4CCE                       ??_actualizarEstadoMotor 0038  
                                   _T6HLTbits 003F95                          end_of_initialization 4724  
                                   _T2RSTbits 003FAF                                     _T4RSTbits 003FA3  
         __end_of_UART1_SetTxInterruptHandler 4C2C                   _UART1_SetTxInterruptHandler 4C1E  
                                   _T6RSTbits 003F97                                i2___xxtofl@arg 000B  
                              i2___xxtofl@exp 000A                                i2___xxtofl@val 0001  
              ??_UART1_SetOverrunErrorHandler 00AB                                     _SPI1TCNTL 003D12  
                          __end_ofi2___xxtofl 3B7A                                    _tiempoC_80 004A  
                                     postdec1 003FE5                                       postdec2 003FDD  
                                     postinc0 003FEE                                       postinc2 003FDE  
                            ?_ADCC_Initialize 0001                                     _PORTBbits 003FCB  
                                   _PORTDbits 003FCD                      _TMR6_SetInterruptHandler 4C64  
                       _TMR5_InterruptHandler 00DD                            _umbral_estabilidad 2006  
                               ___xxtofl@sign 00B0                                     _TRISBbits 003FC3  
                                   _TRISCbits 003FC4                                   ___fldiv@grs 0022  
                                 ___fldiv@rem 001B                  ??_IOCBF0_SetInterruptHandler 00AB  
                             i2___fltol@sign1 0030                                     i2___flmul 2458  
                                   i2___fltol 42FE                                   ___flmul@grs 00C3  
                             _SPI1_Initialize 4BAA                                 _UART1_Receive 360E  
                __end_of_INTERRUPT_Initialize 4D38                              ??_convertirASCII 00A8  
                              __end_of___wmul 4AF0                                 __pidataCOMRAM 4D2E  
                      ?_OSCILLATOR_Initialize 0001                                __end_of_state1 4CCE  
                              __end_of_state2 4D10                                __end_of_state3 4CC2  
                              __end_of_state4 4D06                                __end_of_state5 4CB6  
                              __end_of_state6 4CFC                ??_RutinaTransmicionUSART_ASCII 0001  
                         start_initialization 4694                  _TMR5_DefaultInterruptHandler 000000  
                     ??_UART1_SetErrorHandler 00AB                                    ?i2___flmul 000F  
                                  ?i2___fltol 0028                                    ivt0x8_base 0008  
                               _uart1RxBuffer 0068                                ?_UART1_Receive 0001  
                               _uart1TxBuffer 0110                       UART1_Receive@tempRxHead 0004  
                            ??_PMD_Initialize 00A8                                 _actualizarDir 47E4  
                                    ??___wmul 0005                                   __pdataBANK0 00FC  
                                 __pdataBANK1 0134                                      ??_state1 0001  
                                    ??_state2 0001                                      ??_state3 0001  
                                    ??_state4 0001                                      ??_state5 0001  
                                    ??_state6 0001                                  _estadoPrevio 003F  
                                   ___fldiv@a 0013                                     ___fldiv@b 000F  
                               ??_forwardMode 0005                               _cambioVelocidad 00A5  
                                   ___flmul@a 00BA                                     ___flmul@b 00B6  
                                 __pbssCOMRAM 003B                            _UART1_ErrorHandler 0144  
                               __pcstackBANK0 00A8                            _PWM6_LoadDutyValue 49C2  
                     __end_of_SPI1_Initialize 4BC4                      _UART1_RxInterruptHandler 014A  
                         ?_PWM6_LoadDutyValue 00A8                  ?_UART1_SetRxInterruptHandler 00A8  
                       _TMR6_InterruptHandler 00E9                                     __pnvBANK0 00DD  
                                   __pnvBANK1 0144                        _PIN_MANAGER_Initialize 4404  
                              ?_actualizarDir 0001                             ?_UART1_Initialize 0001  
        __end_of_UART1_SetFramingErrorHandler 4C56                  _UART1_SetFramingErrorHandler 4C48  
            __end_of_TMR1_SetInterruptHandler 4C9C                                   _CWG1STRbits 003F5A  
            __end_of_TMR4_SetInterruptHandler 4C8E                           UART1_Read@readValue 0002  
                                    ?___fldiv 000F                                      ?___flmul 00B6  
                                 _CWG2STRbits 003F51                                      ?___fltol 00CF  
                                 _CWG3STRbits 003F48                            ??_UART1_Initialize 00AB  
                            _uart1RxLastError 00A2                          ??_PWM6_LoadDutyValue 00AA  
                ??_INTERRUPT_InterruptManager 0039                                   __smallconst 2000  
                                    ?_current 0001           fp__UART1_DefaultOverrunErrorHandler 0000  
    __end_of_UART1_DefaultOverrunErrorHandler 4D3C            ??_UART1_DefaultOverrunErrorHandler 0001  
           ?_UART1_DefaultOverrunErrorHandler 0001              _UART1_DefaultOverrunErrorHandler 4D3A  
                                   _corriente 0100            __end_of_IOCBF0_SetInterruptHandler 4CAA  
                  _IOCBF0_SetInterruptHandler 4C9C                                     _measuring 0051  
                                    ?_state1F 0001                                      ?_state2F 0001  
                                    ?_state3F 0001                                      ?_state4F 0001  
                                    ?_state5F 0001                                      ?_state6F 0001  
                                    _CWG1CON0 003F56                                      _CWG1CON1 003F57  
                                    _CWG2CON0 003F4D                                      _CWG2CON1 003F4E  
                                    _CWG3CON0 003F44                                      _CWG3CON1 003F45  
                                 ??i2___flmul 0017                                   ??i2___fltol 002C  
                                    _T2CLKCON 003FAE                                   _U1ERRIRbits 003DF9  
                                 _highByte_16 0089                                      _T4CLKCON 003FA2  
               __end_of_actualizarEstadoMotor 40DE                               ??_UART1_Receive 0003  
                        _INTERRUPT_Initialize 4D34                                      _T6CLKCON 003F96  
                         __end_of_forwardMode 33D8                                ___wmul@product 0005  
                                    _LATAbits 003FBA         UART1_SetErrorHandler@interruptHandler 00A8  
                                    _LATCbits 003FBC                                      _LATEbits 003FBE  
                                    _PIE0bits 003990                                      _PIE1bits 003991  
                                    _PIE2bits 003992                                     _send_data 0070  
                                    _PIE3bits 003993                                      _PIE4bits 003994  
                                    _PIE7bits 003997                                      _PIE8bits 003998  
                                    _PIE9bits 003999                                  _SPI1CON0bits 003D14  
                              current@current 0001                                  _SPI1CON1bits 003D15  
                                _SPI1CON2bits 003D16                 ??_UART1_SetRxInterruptHandler 00AB  
                                    i2u310_40 41A6                                      i2u302_40 40EE  
                                    i2u310_41 41A2                                      i2u302_41 40EA  
                                    i2u311_40 41C0                                      i2u303_40 40FE  
                                    i2u311_41 41BC                                      i2u303_41 40FA  
                                    i2u304_40 410E                                      i2u400_40 3DB6  
                                    i2u320_40 2472                                      i2u304_41 410A  
                                    i2u400_41 3DB2                                      i2u320_41 246E  
                                    i2u312_45 4A52                                      i2u305_40 412E  
                                    i2u401_40 3DDC                                      i2u321_40 2484  
                                    i2u313_40 4314                                      i2u305_41 412A  
                                    i2u401_41 3DD8                                      i2u321_41 2480  
                                    i2u313_41 4310                                      i2u306_40 4144  
                                    i2u410_40 3180                                      i2u402_40 3DEA  
                                    i2u330_40 2754                                      i2u322_40 2494  
                                    i2u314_40 4348                                      i2u306_41 4140  
                                    i2u410_41 317C                                      i2u402_41 3DE6  
                                    i2u330_41 2750                                      i2u322_41 2490  
                                    i2u314_45 433E                                      i2u307_40 4160  
                                    i2u411_40 318E                                      i2u403_40 3DF8  
                                    i2u331_40 2766                                      i2u323_40 24D4  
                                    i2u315_40 4376                                      i2u307_41 415C  
                                    i2u411_41 318A                                      i2u403_41 3DF4  
                                    i2u331_41 2762                                      i2u323_41 24D0  
                                    i2u315_41 4372                                      i2u308_40 4172  
                                    i2u420_40 3268                                      i2u412_40 319C  
                                    i2u404_40 3E1E                                      i2u332_40 2794  
                                    i2u324_40 24E6                                      i2u316_40 438A  
                                    i2u340_40 39E6                                      i2u308_41 416E  
                                    i2u420_41 3264                                      i2u412_41 3198  
                                    i2u404_41 3E1A                                      i2u332_41 2790  
                                    i2u324_41 24E2                                      i2u316_41 4386  
                                    i2u340_41 39E2                                      i2u309_40 418C  
                                    i2u421_40 3288                                      i2u413_40 31BC  
                                    i2u405_40 3E2C                                      i2u333_40 27AA  
                                    i2u325_40 24F6                                      i2u317_40 43B2  
                                    i2u341_40 3A42                                      i2u309_41 4188  
                                    i2u421_41 3284                                      i2u413_41 31B8  
                                    i2u405_41 3E28                                      i2u333_41 27A6  
                                    i2u325_41 24F2                                      i2u317_41 43AE  
                                    i2u341_41 3A3E                                      i2u430_40 337E  
                                    i2u422_40 32B2                                      i2u414_40 31E6  
                                    i2u406_40 3E3A                                      i2u350_40 3B88  
                                    i2u334_40 27BE                                      i2u326_40 252C  
                                    i2u318_40 43D2                                      i2u342_40 3A98  
                                    i2u430_41 337A                                      i2u422_41 32AE  
                                    i2u414_41 31E2                                      i2u406_41 3E36  
                                    i2u350_41 3B84                                      i2u334_41 27BA  
                                    i2u326_41 2528                                      i2u318_41 43CE  
                                    i2u342_41 3A94                                      i2u431_40 338C  
                                    i2u423_40 32C0                                      i2u415_40 31F4  
                                    i2u407_40 3E60                                      i2u351_40 3B96  
                                    i2u335_40 27D8                                      i2u327_40 253C  
                                    i2u319_40 43E2                                      i2u343_40 3AE2  
                                    i2u431_41 3388                                      i2u423_41 32BC  
                                    i2u415_41 31F0                                      i2u407_41 3E5C  
                                    i2u351_41 3B92                                      i2u335_41 27D4  
                                    i2u327_41 2538                                      i2u319_41 43DE  
                                    i2u343_41 3ADE                                      _PIR0bits 0039A0  
                                    i2u440_40 362E                                      i2u432_40 339A  
                                    i2u424_40 32CE                                      i2u416_40 3202  
                                    i2u408_40 3E6E                                      i2u360_40 3C5C  
                                    i2u352_40 3BA4                                      i2u336_40 2820  
                                    i2u328_40 26DA                                      i2u344_40 3B00  
                                    i2u440_41 362A                                      i2u432_41 3396  
                                    i2u424_41 32CA                                      i2u416_41 31FE  
                                    i2u408_41 3E6A                                      i2u360_41 3C58  
                                    i2u352_41 3BA0                                      i2u336_41 281C  
                                    i2u344_41 3AFC                                      i2u328_45 26D0  
                                    i2u441_40 3652                                      i2u433_40 33BA  
                                    i2u425_40 32EE                                      i2u417_40 3222  
                                    i2u409_40 3E7C                                      i2u361_40 3C6A  
                                    i2u353_40 3BCA                                      i2u337_40 284E  
                                    i2u329_40 2734                                      i2u345_40 3B10  
                                    i2u441_41 364E                                      i2u433_41 33B6  
                                    i2u425_41 32EA                                      i2u417_41 321E  
                                    i2u409_41 3E78                                      i2u361_41 3C66  
                                    i2u353_41 3BC6                                      i2u337_41 284A  
                                    i2u329_41 2730                                      i2u345_41 3B0C  
                                    i2u450_40 373E                                      i2u426_40 3318  
                                    i2u418_40 324C                                      i2u370_40 2F36  
                                    i2u362_40 3C90                                      i2u354_40 3BD8  
                                    i2u338_40 2888                                      i2u346_40 3B1E  
                                    i2u434_40 4568                                      i2u450_41 373A  
                                    i2u426_41 3314                                      i2u418_41 3248  
                                    i2u370_41 2F32                                      i2u362_41 3C8C  
                                    i2u354_41 3BD4                                      i2u338_41 2884  
                                    i2u346_41 3B1A                                      i2u434_41 4564  
                                    i2u451_40 3750                                      i2u443_40 367C  
                                    i2u442_48 3658                                      i2u427_40 3326  
                                    i2u419_40 325A                                      i2u371_40 2F56  
                                    i2u363_40 3C9E                                      i2u355_40 3BE6  
                                    i2u347_40 3B58                                      i2u339_40 39D8  
                                    i2u435_40 458C                                      i2u451_41 374C  
                                    i2u443_41 3678                                      i2u442_49 366C  
                                    i2u427_41 3322                                      i2u419_41 3256  
                                    i2u371_41 2F52                                      i2u363_41 3C9A  
                                    i2u355_41 3BE2                                      i2u347_41 3B54  
                                    i2u339_41 39D4                                      i2u435_41 4588  
                                    _PIR2bits 0039A2                                      _SPI1BAUD 003D19  
                                    i2u452_40 3772                                      i2u444_40 36A0  
                                    i2u428_40 3334                                      i2u380_40 304C  
                                    i2u372_40 2F80                                      i2u364_40 3CAC  
                                    i2u356_40 3C0C                                      i2u348_40 3B66  
                                    i2u436_40 4856                                      i2u460_40 3FF8  
                                    i2u452_41 376E                                      i2u444_41 369C  
                                    i2u428_41 3330                                      i2u380_41 3048  
                                    i2u372_41 2F7C                                      i2u364_41 3CA8  
                                    i2u356_41 3C08                                      i2u348_41 3B62  
                                    i2u436_41 4852                                      i2u460_41 3FF4  
                                    i2u349_40 4A26                                      i2u453_40 378E  
                                    i2u429_40 3354                                      i2u381_40 305A  
                                    i2u373_40 2F8E                                      i2u365_40 3CD2  
                                    i2u357_40 3C1A                                      i2u437_40 4870  
                                    i2u461_40 4036                                      i2u541_40 2C5C  
                                    i2u349_41 4A22                                      i2u453_41 378A  
                                    i2u429_41 3350                                      i2u381_41 3056  
                                    i2u373_41 2F8A                                      i2u365_41 3CCE  
                                    i2u357_41 3C16                                      i2u437_41 486C  
                                    i2u461_41 4032                                      i2u541_41 2C58  
                                    _PIR3bits 0039A3                                      i2u454_40 379E  
                                    i2u446_40 36D8                                      i2u445_48 36A6  
                                    i2u390_40 3134                                      i2u382_40 3068  
                                    i2u374_40 2F9C                                      i2u366_40 3CE0  
                                    i2u358_40 3C28                                      i2u438_40 4886  
                                    i2u462_40 4052                                      i2u550_40 2D32  
                                    i2u542_40 2C6A                                      i2u454_41 379A  
                                    i2u446_41 36D4                                      i2u445_49 36BA  
                                    i2u390_41 3130                                      i2u382_41 3064  
                                    i2u374_41 2F98                                      i2u366_41 3CDC  
                                    i2u358_41 3C24                                      i2u438_41 4882  
                                    i2u462_41 404E                                      i2u550_41 2D2E  
                                    i2u542_41 2C66                                      i2u455_40 37C4  
                                    i2u447_40 370A                                      i2u391_40 3154  
                                    i2u383_40 3088                                      i2u375_40 2FBC  
                                    i2u367_40 3CEE                                      i2u359_40 3C4E  
                                    i2u463_40 4066                                      i2u551_40 2D4C  
                                    i2u543_40 2C80                                      i2u455_41 37C0  
                                    i2u447_41 3706                                      i2u391_41 3150  
                                    i2u383_41 3084                                      i2u375_41 2FB8  
                                    i2u367_41 3CEA                                      i2u359_41 3C4A  
                                    i2u463_41 4062                                      i2u551_41 2D48  
                                    i2u543_41 2C7C                                      _PIR4bits 0039A4  
                                    _SPI1CON0 003D14                                      _SPI1CON1 003D15  
                                    _SPI1CON2 003D16                                      i2u456_40 37D4  
                                    i2u448_40 371A                                      i2u480_40 2926  
                                    i2u384_40 30B2                                      i2u376_40 2FE6  
                                    i2u368_40 2F1A                                      i2u392_40 3D16  
                                    i2u464_40 4078                                      i2u560_40 2ECA  
                                    i2u552_40 2D6E                                      i2u544_40 2C8E  
                                    i2u456_41 37D0                                      i2u448_41 3716  
                                    i2u480_41 2922                                      i2u384_41 30AE  
                                    i2u376_41 2FE2                                      i2u368_41 2F16  
                                    i2u392_41 3D12                                      i2u464_41 4074  
                                    i2u560_41 2EC6                                      i2u552_41 2D6A  
                                    i2u544_41 2C8A                                      i2u457_40 37FE  
                                    i2u449_40 372C                                      i2u481_40 2938  
                                    i2u385_40 30C0                                      i2u377_40 2FF4  
                                    i2u369_40 2F28                                      i2u393_40 3D24  
                                    i2u465_40 40B2                                      i2u561_40 2EEA  
                                    i2u553_40 2D7C                                      i2u545_40 2CA6  
                                    i2u457_41 37FA                                      i2u449_41 3728  
                                    i2u481_41 2934                                      i2u385_41 30BC  
                                    i2u377_41 2FF0                                      i2u369_41 2F24  
                                    i2u393_41 3D20                                      i2u465_41 40AE  
                                    i2u561_41 2EE6                                      i2u553_41 2D78  
                                    i2u545_41 2CA2                                      i2u490_40 2AE2  
                                    i2u482_40 2948                                      i2u386_40 30CE  
                                    i2u378_40 3002                                      i2u394_40 3D32  
                                    i2u466_40 40CC                                      i2u458_40 3FD4  
                                    i2u562_40 2EF8                                      i2u554_40 2D92  
                                    i2u546_40 2CC0                                      i2u490_41 2ADE  
                                    i2u482_41 2944                                      i2u386_41 30CA  
                                    i2u378_41 2FFE                                      i2u394_41 3D2E  
                                    i2u466_41 40C8                                      i2u458_41 3FD0  
                                    i2u562_41 2EF4                                      i2u554_41 2D8E  
                                    i2u546_41 2CBC                                      i2u467_40 48C2  
                                    i2u491_40 2B02                                      i2u483_40 2988  
                                    i2u387_40 30EE                                      i2u379_40 3022  
                                    i2u395_40 3D58                                      i2u459_40 3FE6  
                                    i2u555_40 2DA0                                      i2u547_40 2CE6  
                                    i2u467_41 48BE                                      i2u491_41 2AFE  
                                    i2u483_41 2984                                      i2u387_41 30EA  
                                    i2u379_41 301E                                      i2u395_41 3D54  
                                    i2u459_41 3FE2                                      i2u555_41 2D9C  
                                    i2u547_41 2CE2                                      i2u468_40 4748  
                                    i2u492_40 2B14                                      i2u484_40 29C8  
                                    i2u388_40 3118                                      i2u396_40 3D66  
                                    i2u556_40 2E46                                      i2u548_40 2D02  
                                    i2u468_41 4744                                      i2u492_41 2B10  
                                    i2u484_41 29C4                                      i2u388_41 3114  
                                    i2u396_41 3D62                                      i2u556_41 2E42  
                                    i2u548_41 2CFE                                      i2u493_40 2B42  
                                    i2u485_40 2A3E                                      i2u477_40 28C0  
                                    i2u389_40 3126                                      i2u397_40 3D74  
                                    i2u557_40 2E54                                      i2u549_40 2D24  
                                    i2u493_41 2B3E                                      i2u485_41 2A3A  
                                    i2u477_41 28BC                                      i2u389_41 3122  
                                    i2u397_41 3D70                                      i2u557_41 2E50  
                                    i2u549_41 2D20                                      _PIR7bits 0039A7  
                                    i2u494_40 2B58                                      i2u486_40 2A60  
                                    i2u478_40 28D2                                      i2u398_40 3D9A  
                                    i2u558_40 2E64                                     _prevHallA 00FA  
                                    i2u494_41 2B54                                      i2u486_41 2A5C  
                                    i2u478_41 28CE                                      i2u398_41 3D96  
                                    i2u558_41 2E60                                     _prevHallB 005D  
                                   _prevHallC 014F                                      i2u495_40 2B6C  
                                    i2u487_40 2A8A                                      i2u479_40 28E2  
                                    i2u399_40 3DA8                                      i2u559_40 2E8C  
                                    i2u495_41 2B68                                      i2u487_41 2A86  
                                    i2u479_41 28DE                                      i2u399_41 3DA4  
                                    i2u559_41 2E88                                      _PIR8bits 0039A8  
                                    i2u496_40 2B86                                      i2u488_40 2AAE  
                                    i2u496_41 2B82                                      i2u488_41 2AAA  
                                    i2u497_40 2BCE                                      i2u489_40 2AC4  
                                    i2u497_41 2BCA                                      i2u489_41 2AC0  
                                    _PIR9bits 0039A9                                      i2u498_40 2BFE  
                                    i2u498_41 2BFA                                      i2u499_40 2C2C  
                                    i2u499_41 2C28                    ??_TMR6_SetInterruptHandler 00AB  
                                    i2u588_47 4002                                      i2u589_47 4082  
                                   _velocidad 0093                                 ??_reverseMode 0005  
               ?_UART1_SetFramingErrorHandler 00A8                             ??_TMR1_Initialize 00AB  
                                  _ADCON0bits 003EF8                                    _ADCON1bits 003EF9  
                                  _ADCON2bits 003EFA                                    _ADCON3bits 003EFB  
                           ___wmul@multiplier 0001                             ??_CWG1_Initialize 00A8  
                   ?_TMR5_SetInterruptHandler 00A8                              ?_SPI1_Initialize 0001  
                                 _empezoTimer 004B                                   _INTCON0bits 003FD2  
                                   copy_data0 46A8                                     copy_data1 46E6  
                       ?_INTERRUPT_Initialize 0001                             ??i2_actualizarDir 0001  
                      _uart1TxBufferRemaining 00FB                             ??_TMR2_Initialize 00A8  
                           ??_CWG2_Initialize 00A8                                  _uart1RxCount 004D  
                             ??_actualizarDir 00A8                                    _ADSTATbits 003EFC  
                                    __Hrparam 0000                                      _ValorADC 009B  
                                    __Lrparam 0000                                _cambioValorADC 00A1  
                     ??_OSCILLATOR_Initialize 00A8                                      _adc_meas 009F  
                    _TMR1_SetInterruptHandler 4C8E                      _TMR4_SetInterruptHandler 4C80  
                                  _CWG1CLKCON 003F52                                _canal_eleccion 004C  
               i2PWM6_LoadDutyValue@dutyValue 0007                                    _CWG2CLKCON 003F49  
                                  _CWG3CLKCON 003F40                         _TMR1_InterruptHandler 00E0  
                           ??_CWG3_Initialize 00A8                                      ___xxtofl 380E  
                         __end_of_reverseMode 3172                                   _forwardMode 3172  
                                    __pivt0x8 0008                      velocidadTransitorio@paso 0036  
                                    __ptext10 4C3A                                      __ptext11 4C48  
                                    __ptext20 4932                                      __ptext12 4C56  
                                    __ptext21 4C8E                                      __ptext13 4A62  
                                  _T1GCONbits 003FB3                                      __ptext30 4B18  
                                    __ptext22 4BAA                                      __ptext14 4C64  
                                    __ptext31 4B40                                      __ptext23 4BDE  
                                    __ptext15 48E4                                      __ptext40 2458  
                                    __ptext32 4788                                      __ptext24 4B68  
                                    __ptext16 4C72                                      __ptext41 4A2E  
                                    __ptext33 49C2                                      __ptext25 4404  
                                    __ptext17 4A94                                      __ptext50 4D06  
                                    __ptext42 4AC6                                      __ptext34 2C40  
                                    __ptext26 4C9C                                      __ptext18 4C80  
                                    __ptext51 4CC2                                      __ptext43 3B7A  
                                    __ptext35 3FBE                                      __ptext27 4BF6  
                                    __ptext19 4B8C                                      __ptext60 4BC4  
                                    __ptext52 3172                                      __ptext44 3D08  
                                    __ptext36 483A                                      __ptext28 4D34  
                                    __ptext61 28A6                                      __ptext53 4CCE  
                                    __ptext45 2F0C                                      __ptext37 44EA  
                                    __ptext29 4AF0                                      __ptext62 360E  
                                    __ptext54 4D10                                      __ptext46 4CF2  
                                    __ptext38 39C6                                      __ptext63 49F8  
                                    __ptext55 4CDA                                      __ptext47 4CAA  
                                    __ptext39 42FE                                      __ptext64 4D3A  
                                    __ptext56 4D1A                                      __ptext48 4CFC  
                                    __ptext65 4D3C                                      __ptext57 4CE6  
                                    __ptext49 4CB6                                      __ptext66 4890  
                                    __ptext58 4D24                                      __ptext67 472A  
                                    __ptext59 40DE                                      __ptext68 0000  
                                    _highByte 0047                                      _contConm 0058  
               __end_of_UART1_SetErrorHandler 4C64                                  _validacion_c 008B  
                           ??_TMR4_Initialize 00AB                             ??_PWM6_Initialize 00A8  
                                  _T5GCONbits 003F9B                  __end_ofi2_PWM6_LoadDutyValue 4A62  
                   _UART1_OverrunErrorHandler 00E3  UART1_SetOverrunErrorHandler@interruptHandler 00A8  
                                    isa$xinst 000000                                      _promedio 0097  
          __end_of_INTERRUPT_InterruptManager 2F0C                    _INTERRUPT_InterruptManager 2C40  
                           ??_TMR5_Initialize 00AB                ??_UART1_SetFramingErrorHandler 00AB  
                                 _uart1RxHead 004F                                   _uart1TxHead 00A4  
                                 _uart1RxTail 004E                                   _uart1TxTail 00A3  
                                  _FVRCONbits 003EC1                                   _preValorADC 0099  
                                  _RC6_Previo 0049                        ??_INTERRUPT_Initialize 00A8  
                _TMR6_DefaultInterruptHandler 000000                                      intlevel2 0000  
                             i2___xxtofl@sign 0009                       ?_PIN_MANAGER_Initialize 0001  
                           ??_TMR6_Initialize 00AB          __end_of_RutinaTransmicionUSART_ASCII 4788  
                _RutinaTransmicionUSART_ASCII 472A                           _uart1RxStatusBuffer 0060  
                                  _SPI1SDIPPS 003ADF                                    _SPI1SCKPPS 003ADE  
                                  _UART1_Read 49F8  UART1_SetFramingErrorHandler@interruptHandler 00A8  
                                 _reverseMode 2F0C                          _contador_estabilidad 0048  
                              _prueba_current 0091                   ?_IOCBF0_SetInterruptHandler 00A8  
                 PWM6_LoadDutyValue@dutyValue 00A8                      _UART1_TxInterruptHandler 0147  
                  __end_of_startUpForwardMode 3E96                __end_of_PIN_MANAGER_Initialize 44EA  
                           ??_ADCC_Initialize 00A8                  ?_UART1_SetTxInterruptHandler 00A8  
                             _TMR1_Initialize 4932                    __end_of_spi1_configuration 2006  
                             _CWG1_Initialize 4B40  
